
dhrystone_4mcu.elf:     file format elf32-msp430

SYMBOL TABLE:
0000fffe l    d  __reset_vector	00000000 __reset_vector
00004000 l    d  .rodata	00000000 .rodata
00004754 l    d  .text	00000000 .text
00000200 l    d  .data	00000000 .data
0000034e l    d  .bss	00000000 .bss
00000000 l    d  .MP430.attributes	00000000 .MP430.attributes
00000000 l    d  .comment	00000000 .comment
00000000 l    d  .debug_aranges	00000000 .debug_aranges
00000000 l    d  .debug_info	00000000 .debug_info
00000000 l    d  .debug_abbrev	00000000 .debug_abbrev
00000000 l    d  .debug_line	00000000 .debug_line
00000000 l    d  .debug_frame	00000000 .debug_frame
00000000 l    d  .debug_str	00000000 .debug_str
00000000 l    d  .debug_loc	00000000 .debug_loc
00000000 l    d  .debug_ranges	00000000 .debug_ranges
00000000 l    d  .debug_line.text.udivmodhi4	00000000 .debug_line.text.udivmodhi4
00000000 l    d  .debug_line.text.__divhi3	00000000 .debug_line.text.__divhi3
00000000 l    d  .debug_line.text.__modhi3	00000000 .debug_line.text.__modhi3
00000000 l    d  .debug_line.text.__udivhi3	00000000 .debug_line.text.__udivhi3
00000000 l    d  .debug_line.text.__umodhi3	00000000 .debug_line.text.__umodhi3
00000000 l    d  .debug_line.text.malloc	00000000 .debug_line.text.malloc
00000000 l    d  .debug_line.text.free	00000000 .debug_line.text.free
00000000 l    d  .debug_line.text.memcpy	00000000 .debug_line.text.memcpy
00000000 l    d  .debug_line.text._free_r	00000000 .debug_line.text._free_r
00000000 l    d  .debug_line.text._malloc_r	00000000 .debug_line.text._malloc_r
00000000 l    d  .debug_line.text._printf_r	00000000 .debug_line.text._printf_r
00000000 l    d  .debug_line.text.printf	00000000 .debug_line.text.printf
00000000 l    d  .debug_line.text._puts_r	00000000 .debug_line.text._puts_r
00000000 l    d  .debug_line.text.puts	00000000 .debug_line.text.puts
00000000 l    d  .debug_line.text._sbrk_r	00000000 .debug_line.text._sbrk_r
00000000 l    d  .debug_line.text.strcmp	00000000 .debug_line.text.strcmp
00000000 l    d  .debug_line.text.strlen	00000000 .debug_line.text.strlen
00000000 l    d  .debug_line.text._vfprintf_r	00000000 .debug_line.text._vfprintf_r
00000000 l    d  .debug_line.text.vfprintf	00000000 .debug_line.text.vfprintf
00000000 l    d  .debug_line.text.__sbprintf	00000000 .debug_line.text.__sbprintf
00000000 l    d  .debug_line.text.__swsetup_r	00000000 .debug_line.text.__swsetup_r
00000000 l    d  .debug_line.text.quorem	00000000 .debug_line.text.quorem
00000000 l    d  .debug_line.text._dtoa_r	00000000 .debug_line.text._dtoa_r
00000000 l    d  .debug_line.text.__sflush_r	00000000 .debug_line.text.__sflush_r
00000000 l    d  .debug_line.text._fflush_r	00000000 .debug_line.text._fflush_r
00000000 l    d  .debug_line.text.fflush	00000000 .debug_line.text.fflush
00000000 l    d  .debug_line.text.__fp_lock	00000000 .debug_line.text.__fp_lock
00000000 l    d  .debug_line.text.__fp_unlock	00000000 .debug_line.text.__fp_unlock
00000000 l    d  .debug_line.text._cleanup_r	00000000 .debug_line.text._cleanup_r
00000000 l    d  .debug_line.text.__sfmoreglue	00000000 .debug_line.text.__sfmoreglue
00000000 l    d  .debug_line.text._cleanup	00000000 .debug_line.text._cleanup
00000000 l    d  .debug_line.text.__sinit	00000000 .debug_line.text.__sinit
00000000 l    d  .debug_line.text.__sfp	00000000 .debug_line.text.__sfp
00000000 l    d  .debug_line.text.__sfp_lock_acquire	00000000 .debug_line.text.__sfp_lock_acquire
00000000 l    d  .debug_line.text.__sfp_lock_release	00000000 .debug_line.text.__sfp_lock_release
00000000 l    d  .debug_line.text.__sinit_lock_acquire	00000000 .debug_line.text.__sinit_lock_acquire
00000000 l    d  .debug_line.text.__sinit_lock_release	00000000 .debug_line.text.__sinit_lock_release
00000000 l    d  .debug_line.text.__fp_lock_all	00000000 .debug_line.text.__fp_lock_all
00000000 l    d  .debug_line.text.__fp_unlock_all	00000000 .debug_line.text.__fp_unlock_all
00000000 l    d  .debug_line.text.__sfvwrite_r	00000000 .debug_line.text.__sfvwrite_r
00000000 l    d  .debug_line.text._fwalk	00000000 .debug_line.text._fwalk
00000000 l    d  .debug_line.text._fwalk_reent	00000000 .debug_line.text._fwalk_reent
00000000 l    d  .debug_line.text._setlocale_r	00000000 .debug_line.text._setlocale_r
00000000 l    d  .debug_line.text.__locale_charset	00000000 .debug_line.text.__locale_charset
00000000 l    d  .debug_line.text.__locale_mb_cur_max	00000000 .debug_line.text.__locale_mb_cur_max
00000000 l    d  .debug_line.text.__locale_msgcharset	00000000 .debug_line.text.__locale_msgcharset
00000000 l    d  .debug_line.text.__locale_cjk_lang	00000000 .debug_line.text.__locale_cjk_lang
00000000 l    d  .debug_line.text._localeconv_r	00000000 .debug_line.text._localeconv_r
00000000 l    d  .debug_line.text.setlocale	00000000 .debug_line.text.setlocale
00000000 l    d  .debug_line.text.localeconv	00000000 .debug_line.text.localeconv
00000000 l    d  .debug_line.text.__smakebuf_r	00000000 .debug_line.text.__smakebuf_r
00000000 l    d  .debug_line.text.memchr	00000000 .debug_line.text.memchr
00000000 l    d  .debug_line.text.memmove	00000000 .debug_line.text.memmove
00000000 l    d  .debug_line.text.memset	00000000 .debug_line.text.memset
00000000 l    d  .debug_line.text._Balloc	00000000 .debug_line.text._Balloc
00000000 l    d  .debug_line.text._Bfree	00000000 .debug_line.text._Bfree
00000000 l    d  .debug_line.text.__multadd	00000000 .debug_line.text.__multadd
00000000 l    d  .debug_line.text.__s2b	00000000 .debug_line.text.__s2b
00000000 l    d  .debug_line.text.__hi0bits	00000000 .debug_line.text.__hi0bits
00000000 l    d  .debug_line.text.__lo0bits	00000000 .debug_line.text.__lo0bits
00000000 l    d  .debug_line.text.__i2b	00000000 .debug_line.text.__i2b
00000000 l    d  .debug_line.text.__multiply	00000000 .debug_line.text.__multiply
00000000 l    d  .debug_line.text.__pow5mult	00000000 .debug_line.text.__pow5mult
00000000 l    d  .debug_line.text.__lshift	00000000 .debug_line.text.__lshift
00000000 l    d  .debug_line.text.__mcmp	00000000 .debug_line.text.__mcmp
00000000 l    d  .debug_line.text.__mdiff	00000000 .debug_line.text.__mdiff
00000000 l    d  .debug_line.text.__ulp	00000000 .debug_line.text.__ulp
00000000 l    d  .debug_line.text.__b2d	00000000 .debug_line.text.__b2d
00000000 l    d  .debug_line.text.__d2b	00000000 .debug_line.text.__d2b
00000000 l    d  .debug_line.text.__ratio	00000000 .debug_line.text.__ratio
00000000 l    d  .debug_line.text._mprec_log10	00000000 .debug_line.text._mprec_log10
00000000 l    d  .debug_line.text.__copybits	00000000 .debug_line.text.__copybits
00000000 l    d  .debug_line.text.__any_on	00000000 .debug_line.text.__any_on
00000000 l    d  .debug_line.text._calloc_r	00000000 .debug_line.text._calloc_r
00000000 l    d  .debug_line.text._realloc_r	00000000 .debug_line.text._realloc_r
00000000 l    d  .debug_line.text.cleanup_glue	00000000 .debug_line.text.cleanup_glue
00000000 l    d  .debug_line.text._reclaim_reent	00000000 .debug_line.text._reclaim_reent
00000000 l    d  .debug_line.text.__fpclassifyd	00000000 .debug_line.text.__fpclassifyd
00000000 l    d  .debug_line.text.__sread	00000000 .debug_line.text.__sread
00000000 l    d  .debug_line.text.__seofread	00000000 .debug_line.text.__seofread
00000000 l    d  .debug_line.text.__swrite	00000000 .debug_line.text.__swrite
00000000 l    d  .debug_line.text.__sseek	00000000 .debug_line.text.__sseek
00000000 l    d  .debug_line.text.__sclose	00000000 .debug_line.text.__sclose
00000000 l    d  .debug_line.text.__sprint_r	00000000 .debug_line.text.__sprint_r
00000000 l    d  .debug_line.text._vfiprintf_r	00000000 .debug_line.text._vfiprintf_r
00000000 l    d  .debug_line.text.vfiprintf	00000000 .debug_line.text.vfiprintf
00000000 l    d  .debug_line.text._write_r	00000000 .debug_line.text._write_r
00000000 l    d  .debug_line.text._close_r	00000000 .debug_line.text._close_r
00000000 l    d  .debug_line.text._fclose_r	00000000 .debug_line.text._fclose_r
00000000 l    d  .debug_line.text.fclose	00000000 .debug_line.text.fclose
00000000 l    d  .debug_line.text._fputwc_r	00000000 .debug_line.text._fputwc_r
00000000 l    d  .debug_line.text.fputwc	00000000 .debug_line.text.fputwc
00000000 l    d  .debug_line.text._fstat_r	00000000 .debug_line.text._fstat_r
00000000 l    d  .debug_line.text._isatty_r	00000000 .debug_line.text._isatty_r
00000000 l    d  .debug_line.text._lseek_r	00000000 .debug_line.text._lseek_r
00000000 l    d  .debug_line.text._malloc_usable_size_r	00000000 .debug_line.text._malloc_usable_size_r
00000000 l    d  .debug_line.text._read_r	00000000 .debug_line.text._read_r
00000000 l    d  .debug_line.text.__swbuf_r	00000000 .debug_line.text.__swbuf_r
00000000 l    d  .debug_line.text.__swbuf	00000000 .debug_line.text.__swbuf
00000000 l    d  .debug_line.text._wcrtomb_r	00000000 .debug_line.text._wcrtomb_r
00000000 l    d  .debug_line.text.wcrtomb	00000000 .debug_line.text.wcrtomb
00000000 l    d  .debug_line.text.__ascii_wctomb	00000000 .debug_line.text.__ascii_wctomb
00000000 l    d  .debug_line.text._wctomb_r	00000000 .debug_line.text._wctomb_r
00000000 l    d  .debug_line.text._fpadd_parts	00000000 .debug_line.text._fpadd_parts
00000000 l    d  .debug_line.text.__adddf3	00000000 .debug_line.text.__adddf3
00000000 l    d  .debug_line.text.__subdf3	00000000 .debug_line.text.__subdf3
00000000 l    d  .debug_line.text.__muldf3	00000000 .debug_line.text.__muldf3
00000000 l    d  .debug_line.text.__divdf3	00000000 .debug_line.text.__divdf3
00000000 l    d  .debug_line.text.__eqdf2	00000000 .debug_line.text.__eqdf2
00000000 l    d  .debug_line.text.__nedf2	00000000 .debug_line.text.__nedf2
00000000 l    d  .debug_line.text.__gtdf2	00000000 .debug_line.text.__gtdf2
00000000 l    d  .debug_line.text.__gedf2	00000000 .debug_line.text.__gedf2
00000000 l    d  .debug_line.text.__ltdf2	00000000 .debug_line.text.__ltdf2
00000000 l    d  .debug_line.text.__floatsidf	00000000 .debug_line.text.__floatsidf
00000000 l    d  .debug_line.text.__fixdfsi	00000000 .debug_line.text.__fixdfsi
00000000 l    d  .debug_line.text.__floatunsidf	00000000 .debug_line.text.__floatunsidf
00000000 l    d  .debug_line.text.udivmodsi4	00000000 .debug_line.text.udivmodsi4
00000000 l    d  .debug_line.text.__divsi3	00000000 .debug_line.text.__divsi3
00000000 l    d  .debug_line.text.__modsi3	00000000 .debug_line.text.__modsi3
00000000 l    d  .debug_line.text.__udivsi3	00000000 .debug_line.text.__udivsi3
00000000 l    d  .debug_line.text.__umodsi3	00000000 .debug_line.text.__umodsi3
00000000 l    d  .debug_line.text.__muldi3	00000000 .debug_line.text.__muldi3
00000000 l    d  .debug_line.text.__lshrdi3	00000000 .debug_line.text.__lshrdi3
00000000 l    d  .debug_line.text.__ashldi3	00000000 .debug_line.text.__ashldi3
00000000 l    d  .debug_line.text.__clzsi2	00000000 .debug_line.text.__clzsi2
00000000 l    d  .debug_line.text.__pack_d	00000000 .debug_line.text.__pack_d
00000000 l    d  .debug_line.text.__unpack_d	00000000 .debug_line.text.__unpack_d
00000000 l    d  .debug_line.text.__fpcmp_parts_d	00000000 .debug_line.text.__fpcmp_parts_d
00000000 l    d  .debug_line.text.__mulhi3	00000000 .debug_line.text.__mulhi3
00000000 l    d  .debug_line.text.__mulqi3	00000000 .debug_line.text.__mulqi3
00000000 l    d  .debug_line.text.__mulsi3	00000000 .debug_line.text.__mulsi3
00000000 l    d  .debug_line.text.abort	00000000 .debug_line.text.abort
00000000 l    d  .debug_line.text.__errno	00000000 .debug_line.text.__errno
00000000 l    d  .debug_line.text._init_signal_r	00000000 .debug_line.text._init_signal_r
00000000 l    d  .debug_line.text._signal_r	00000000 .debug_line.text._signal_r
00000000 l    d  .debug_line.text._raise_r	00000000 .debug_line.text._raise_r
00000000 l    d  .debug_line.text.__sigtramp_r	00000000 .debug_line.text.__sigtramp_r
00000000 l    d  .debug_line.text.raise	00000000 .debug_line.text.raise
00000000 l    d  .debug_line.text.signal	00000000 .debug_line.text.signal
00000000 l    d  .debug_line.text._init_signal	00000000 .debug_line.text._init_signal
00000000 l    d  .debug_line.text.__sigtramp	00000000 .debug_line.text.__sigtramp
00000000 l    d  .debug_line.text._kill_r	00000000 .debug_line.text._kill_r
00000000 l    d  .debug_line.text._getpid_r	00000000 .debug_line.text._getpid_r
00000000 l    df *ABS*	00000000 /home/matthew/ti/gcc/bin/../lib/gcc/msp430-elf/4.9.1/../../../../msp430-elf/lib/430/crt0.o
0000fffe l       __reset_vector	00000000 __msp430_resetvec_hook
000047ba l       .text	00000000 _msp430_run_array
000047c8 l       .text	00000000 _msp430_run_done
00000000 l       .debug_line	00000000 L0
0000475e l       .text	00000000 L0
000047ca l       .text	00000000 L0
0000dbd6 l       .text	00000000 L0
00004754 l       .text	00000000 L0
0000475e l       .text	00000000 L0
0000478e l       .text	00000000 L0
000047ca l       .text	00000000 L0
0000dbd2 l       .text	00000000 L0
0000dbd6 l       .text	00000000 L0
00000000 l       .debug_aranges	00000000 L0
00004754 l       .text	00000000 L0
0000475e l       .text	00000000 L0
0000478e l       .text	00000000 L0
000047ca l       .text	00000000 L0
0000dbd2 l       .text	00000000 L0
0000dbd6 l       .text	00000000 L0
00000000 l       .debug_info	00000000 L0
00000000 l    df *ABS*	00000000 dhry21a.c
000000ff l       .debug_line	00000000 L0
00004f9e l       .text	00000000 L0
00000000 l    df *ABS*	00000000 copydata.c
00004408 l     O .rodata	00000002 romdatacopysize
0000068e l       .debug_line	00000000 L0
000050b6 l       .text	00000000 L0
00000000 l    df *ABS*	00000000 puts.c
00005702 l       .text	00000000 L0
0000570e l       .text	00000000 L0
00000000 l    df *ABS*	00000000 vfprintf.c
00006e58 l       .text	00000086 __sbprintf
00004450 l     O .rodata	00000010 blanks.4057
00004440 l     O .rodata	00000010 zeroes.4058
00006e3c l       .text	00000000 L0
00006e58 l       .text	00000000 L0
00006ede l       .text	00000000 L0
00000000 l    df *ABS*	00000000 dtoa.c
00006fe6 l       .text	000002d8 quorem
000072be l       .text	00000000 L0
000085d2 l       .text	00000000 L0
00000000 l    df *ABS*	00000000 findfp.c
000087fc l       .text	00000004 __fp_lock
00008800 l       .text	00000004 __fp_unlock
00008800 l       .text	00000000 L0
00008804 l       .text	00000000 L0
0000880e l       .text	00000000 L0
0000885a l       .text	00000000 L0
00008864 l       .text	00000000 L0
000089ae l       .text	00000000 L0
00008a60 l       .text	00000000 L0
00008a62 l       .text	00000000 L0
00008a64 l       .text	00000000 L0
00008a66 l       .text	00000000 L0
00008a68 l       .text	00000000 L0
00008a76 l       .text	00000000 L0
00008a84 l       .text	00000000 L0
00000000 l    df *ABS*	00000000 impure.c
00000222 l     O .data	00000078 impure_data
00000000 l    df *ABS*	00000000 locale.c
000002ba l     O .data	00000020 lc_ctype_charset
0000029a l     O .data	00000020 lc_message_charset
000002da l     O .data	00000022 lconv
00008ea2 l       .text	00000000 L0
00008ea8 l       .text	00000000 L0
00008eae l       .text	00000000 L0
00008eb4 l       .text	00000000 L0
00008eb8 l       .text	00000000 L0
00008ebe l       .text	00000000 L0
00008ece l       .text	00000000 L0
00008ed4 l       .text	00000000 L0
00000000 l    df *ABS*	00000000 mprec.c
000044b6 l     O .rodata	00000006 p05.2560
000090fe l       .text	00000000 L0
00009144 l       .text	00000000 L0
0000926c l       .text	00000000 L0
00009340 l       .text	00000000 L0
000093c4 l       .text	00000000 L0
00009482 l       .text	00000000 L0
000094aa l       .text	00000000 L0
0000971e l       .text	00000000 L0
000097e2 l       .text	00000000 L0
0000990c l       .text	00000000 L0
00009974 l       .text	00000000 L0
00009b48 l       .text	00000000 L0
00009bf4 l       .text	00000000 L0
00009d4c l       .text	00000000 L0
00009ec6 l       .text	00000000 L0
00009f8c l       .text	00000000 L0
00009fe8 l       .text	00000000 L0
0000a042 l       .text	00000000 L0
0000a0c8 l       .text	00000000 L0
00000000 l    df *ABS*	00000000 vfprintf.c
0000af9e l       .text	00000086 __sbprintf
00004606 l     O .rodata	00000010 blanks.4000
000045f6 l     O .rodata	00000010 zeroes.4001
0000a450 l       .text	00000000 L0
0000af82 l       .text	00000000 L0
0000af9e l       .text	00000000 L0
0000b024 l       .text	00000000 L0
00000000 l    df *ABS*	00000000 fp-bit.c
00000000 l    df *ABS*	00000000 libgcc2.c
00000000 l    df *ABS*	00000000 sbrk.c
00000300 l     O .data	00000002 heap.1339
000050ea l       .debug_line	00000000 L0
0000d9d8 l       .text	00000000 L0
00000000 l    df *ABS*	00000000 crtstuff.c
00004748 l     O .rodata	00000000 __CTOR_LIST__
0000474e l     O .rodata	00000000 __DTOR_LIST__
00004740 l     O .rodata	00000000 __EH_FRAME_BEGIN__
00000200 l     O .data	00000000 __JCR_LIST__
0000dbdc l     O .text	00000000 __TMC_LIST__
000047ca l       .text	00000000 deregister_tm_clones
000047e0 l       .text	00000000 register_tm_clones
0000480a l       .text	00000000 __do_global_dtors_aux
0000034e l     O .bss	00000001 completed.2763
00000204 l     O .data	00000000 p.2764
0000483e l       .text	00000000 call___do_global_dtors_aux
00004840 l       .text	00000000 frame_dummy
00000350 l     O .bss	0000000e object.2775
00004870 l       .text	00000000 call_frame_dummy
00000000 l    df *ABS*	00000000 crtstuff.c
0000474c l     O .rodata	00000000 __CTOR_END__
00004750 l     O .rodata	00000000 __DTOR_END__
00004740 l     O .rodata	00000000 __FRAME_END__
00000200 l     O .data	00000000 __JCR_END__
0000dbdc l     O .text	00000000 __TMC_END__
0000dba0 l       .text	00000000 __do_global_ctors_aux
0000dbbe l       .text	00000000 call___do_global_ctors_aux
00000000 l    df *ABS*	00000000 crt_bss.o
00004d5e l       .debug_line	00000000 L0
0000476c l       .text	00000000 L0
0000067c l       .debug_aranges	00000000 L0
0000475e l       .text	00000000 L0
0000476c l       .text	00000000 L0
0001bd5b l       .debug_info	00000000 L0
00000000 l    df *ABS*	00000000 crt_movedata.o
00004de0 l       .debug_line	00000000 L0
00004780 l       .text	00000000 L0
00000690 l       .debug_aranges	00000000 L0
0000476c l       .text	00000000 L0
00004780 l       .text	00000000 L0
0001be2d l       .debug_info	00000000 L0
00000000 l    df *ABS*	00000000 crt_main.o
00004e6e l       .debug_line	00000000 L0
0000478a l       .text	00000000 L0
000006a4 l       .debug_aranges	00000000 L0
00004780 l       .text	00000000 L0
0000478a l       .text	00000000 L0
0001beff l       .debug_info	00000000 L0
00000000 l    df *ABS*	00000000 crt_callexit.o
00004eea l       .debug_line	00000000 L0
0000478e l       .text	00000000 L0
000006b8 l       .debug_aranges	00000000 L0
0000478a l       .text	00000000 L0
0000478e l       .text	00000000 L0
0001bfd1 l       .debug_info	00000000 L0
00000000 l    df *ABS*	00000000 dhry21b.c
000004bc l       .debug_line	00000000 L0
00005092 l       .text	00000000 L0
00000000 l    df *ABS*	00000000 omsp_func.c
00000642 l       .debug_line	00000000 L0
0000509e l       .text	00000000 L0
00000000 l    df *ABS*	00000000 lib2divHI.c
00005116 l       .text	00000000 L0
00005162 l       .text	00000000 L0
00005194 l       .text	00000000 L0
0000519c l       .text	00000000 L0
000051a4 l       .text	00000000 L0
00000000 l    df *ABS*	00000000 srli.o
00000000 l    df *ABS*	00000000 lib2hw_mul.o
00000130 l       *ABS*	00000000 MPY_OP1
00000132 l       *ABS*	00000000 MPY_OP1_S
00000134 l       *ABS*	00000000 MAC_OP1
00000138 l       *ABS*	00000000 MPY_OP2
00000138 l       *ABS*	00000000 MAC_OP2
0000013a l       *ABS*	00000000 RESULT_LO
0000013c l       *ABS*	00000000 RESULT_HI
00000000 l    df *ABS*	00000000 malloc.c
0000540c l       .text	00000000 L0
00005418 l       .text	00000000 L0
00000000 l    df *ABS*	00000000 memcpy.c
00005436 l       .text	00000000 L0
00000000 l    df *ABS*	00000000 nano-mallocr.c
00005530 l       .text	00000000 L0
00000000 l    df *ABS*	00000000 nano-mallocr.c
00005628 l       .text	00000000 L0
00000000 l    df *ABS*	00000000 printf.c
00005652 l       .text	00000000 L0
00005680 l       .text	00000000 L0
00000000 l    df *ABS*	00000000 sbrkr.c
00005730 l       .text	00000000 L0
00000000 l    df *ABS*	00000000 strcmp.c
0000574c l       .text	00000000 L0
00000000 l    df *ABS*	00000000 strlen.c
00005760 l       .text	00000000 L0
00000000 l    df *ABS*	00000000 wsetup.c
00006fe6 l       .text	00000000 L0
00000000 l    df *ABS*	00000000 fflush.c
0000877e l       .text	00000000 L0
000087dc l       .text	00000000 L0
000087fc l       .text	00000000 L0
00000000 l    df *ABS*	00000000 fvwrite.c
00008db4 l       .text	00000000 L0
00000000 l    df *ABS*	00000000 fwalk.c
00008e08 l       .text	00000000 L0
00008e62 l       .text	00000000 L0
00000000 l    df *ABS*	00000000 makebuf.c
00008fe4 l       .text	00000000 L0
00000000 l    df *ABS*	00000000 memchr.c
00008ffe l       .text	00000000 L0
00000000 l    df *ABS*	00000000 memmove.c
00009042 l       .text	00000000 L0
00000000 l    df *ABS*	00000000 memset.c
00009056 l       .text	00000000 L0
00000000 l    df *ABS*	00000000 nano-mallocr.c
0000a0f4 l       .text	00000000 L0
00000000 l    df *ABS*	00000000 nano-mallocr.c
0000a150 l       .text	00000000 L0
00000000 l    df *ABS*	00000000 reent.c
0000a16e l       .text	00000000 L0
0000a27a l       .text	00000000 L0
00000000 l    df *ABS*	00000000 s_fpclassify.c
0000a2f8 l       .text	00000000 L0
00000000 l    df *ABS*	00000000 stdio.c
0000a338 l       .text	00000000 L0
0000a33c l       .text	00000000 L0
0000a37e l       .text	00000000 L0
0000a3b8 l       .text	00000000 L0
0000a3c2 l       .text	00000000 L0
00000000 l    df *ABS*	00000000 writer.c
0000b04a l       .text	00000000 L0
00000000 l    df *ABS*	00000000 closer.c
0000b06c l       .text	00000000 L0
00000000 l    df *ABS*	00000000 fclose.c
0000b12c l       .text	00000000 L0
0000b138 l       .text	00000000 L0
00000000 l    df *ABS*	00000000 fputwc.c
0000b244 l       .text	00000000 L0
0000b2a2 l       .text	00000000 L0
00000000 l    df *ABS*	00000000 fstatr.c
0000b2c6 l       .text	00000000 L0
00000000 l    df *ABS*	00000000 isattyr.c
0000b2e8 l       .text	00000000 L0
00000000 l    df *ABS*	00000000 lseekr.c
0000b316 l       .text	00000000 L0
00000000 l    df *ABS*	00000000 nano-mallocr.c
0000b332 l       .text	00000000 L0
00000000 l    df *ABS*	00000000 readr.c
0000b358 l       .text	00000000 L0
00000000 l    df *ABS*	00000000 wbuf.c
0000b42c l       .text	00000000 L0
0000b43c l       .text	00000000 L0
00000000 l    df *ABS*	00000000 wcrtomb.c
0000b4b0 l       .text	00000000 L0
0000b4d4 l       .text	00000000 L0
00000000 l    df *ABS*	00000000 wctomb_r.c
0000b4fa l       .text	00000000 L0
0000b53a l       .text	00000000 L0
00000000 l    df *ABS*	00000000 fp-bit.c
0000b53a l       .text	000005d0 _fpadd_parts
0000bb22 l       .text	00000000 L0
0000bb8c l       .text	00000000 L0
0000bbf6 l       .text	00000000 L0
00000000 l    df *ABS*	00000000 fp-bit.c
0000c0d8 l       .text	00000000 L0
00000000 l    df *ABS*	00000000 fp-bit.c
0000c3c2 l       .text	00000000 L0
00000000 l    df *ABS*	00000000 fp-bit.c
0000c436 l       .text	00000000 L0
00000000 l    df *ABS*	00000000 fp-bit.c
0000c4aa l       .text	00000000 L0
00000000 l    df *ABS*	00000000 fp-bit.c
0000c51e l       .text	00000000 L0
00000000 l    df *ABS*	00000000 fp-bit.c
0000c592 l       .text	00000000 L0
00000000 l    df *ABS*	00000000 fp-bit.c
0000c606 l       .text	00000000 L0
00000000 l    df *ABS*	00000000 fp-bit.c
0000c6b4 l       .text	00000000 L0
00000000 l    df *ABS*	00000000 fp-bit.c
0000c750 l       .text	00000000 L0
00000000 l    df *ABS*	00000000 fp-bit.c
0000c7bc l       .text	00000000 L0
00000000 l    df *ABS*	00000000 lib2divSI.c
0000c846 l       .text	00000000 L0
0000c8ca l       .text	00000000 L0
0000c92a l       .text	00000000 L0
0000c938 l       .text	00000000 L0
0000c946 l       .text	00000000 L0
00000000 l    df *ABS*	00000000 slli.o
00000000 l    df *ABS*	00000000 srai.o
00000000 l    df *ABS*	00000000 libgcc2.c
0000cb90 l       .text	00000000 L0
00000000 l    df *ABS*	00000000 libgcc2.c
0000cc0c l       .text	00000000 L0
00000000 l    df *ABS*	00000000 libgcc2.c
0000cc88 l       .text	00000000 L0
00000000 l    df *ABS*	00000000 libgcc2.c
0000ccd8 l       .text	00000000 L0
00000000 l    df *ABS*	00000000 fp-bit.c
0000cf92 l       .text	00000000 L0
00000000 l    df *ABS*	00000000 fp-bit.c
0000d70c l       .text	00000000 L0
00000000 l    df *ABS*	00000000 fp-bit.c
0000d7f0 l       .text	00000000 L0
00000000 l    df *ABS*	00000000 lib2mul.c
0000d824 l       .text	00000000 L0
0000d864 l       .text	00000000 L0
0000d8b6 l       .text	00000000 L0
00000000 l    df *ABS*	00000000 nosyscalls.o
00004f5a l       .debug_line	00000000 L0
0000d918 l       .text	00000000 L0
000006cc l       .debug_aranges	00000000 L0
0000d8b6 l       .text	00000000 L0
0000d918 l       .text	00000000 L0
0001c0a3 l       .debug_info	00000000 L0
00000000 l    df *ABS*	00000000 write.c
0000500b l       .debug_line	00000000 L0
0000d9a8 l       .text	00000000 L0
00000000 l    df *ABS*	00000000 cio.o
00005191 l       .debug_line	00000000 L0
0000d9dc l       .text	00000000 L0
00000708 l       .debug_aranges	00000000 L0
0000d9d8 l       .text	00000000 L0
0000d9dc l       .text	00000000 L0
0001c43c l       .debug_info	00000000 L0
00000000 l    df *ABS*	00000000 abort.c
0000d9ea l       .text	00000000 L0
00000000 l    df *ABS*	00000000 errno.c
0000d9f0 l       .text	00000000 L0
00000000 l    df *ABS*	00000000 signal.c
0000da2e l       .text	00000000 L0
0000da74 l       .text	00000000 L0
0000dae0 l       .text	00000000 L0
0000db44 l       .text	00000000 L0
0000db50 l       .text	00000000 L0
0000db60 l       .text	00000000 L0
0000db6a l       .text	00000000 L0
0000db76 l       .text	00000000 L0
00000000 l    df *ABS*	00000000 signalr.c
0000db9a l       .text	00000000 L0
0000dba0 l       .text	00000000 L0
00000000 l    df *ABS*	00000000 /home/matthew/ti/gcc/bin/../lib/gcc/msp430-elf/4.9.1/../../../../msp430-elf/lib/430/crtn.o
00005774 l       .debug_line	00000000 L0
0000dbd2 l       .text	00000000 L0
0000dbdc l       .text	00000000 L0
0000dbc8 l       .text	00000000 L0
0000dbd2 l       .text	00000000 L0
0000dbda l       .text	00000000 L0
0000dbdc l       .text	00000000 L0
0000078c l       .debug_aranges	00000000 L0
0000dbc8 l       .text	00000000 L0
0000dbd2 l       .text	00000000 L0
0000dbda l       .text	00000000 L0
0000dbdc l       .text	00000000 L0
0001e14c l       .debug_info	00000000 L0
00000368 g     O .bss	00000008 Microseconds
0000b316 g       .text	0000001c _malloc_usable_size_r
00005092 g       .text	0000000c putchar
0000d864 g       .text	00000052 __mspabi_mpyl
00009f8c g       .text	0000005c _mprec_log10
0000c988 g       .text	00000000 __mspabi_slll_9
0000c978 g       .text	00000000 __mspabi_slll_13
0000a042 g       .text	00000086 __any_on
0000b2c6 g       .text	00000022 _isatty_r
000044bc g     O .rodata	00000028 __mprec_tinytens
0000a150 g       .text	0000001e cleanup_glue
0000cc0c g       .text	0000007c __ashldi3
00005680 g       .text	00000082 _puts_r
0000b2e8 g       .text	0000002e _lseek_r
00000370 g     O .bss	00000008 Dhrystones_Per_Second
0000527c g     F .text	00000018 __mulsihi2
0000c3c2 g       .text	00000074 __eqdf2
000051cc g       .text	00000000 __mspabi_srli_9
0000c9cc g       .text	00000000 __mspabi_srai_6
0000c9d6 g       .text	00000000 __mspabi_srai_1
0000521c g       .text	00000000 __mspabi_srll_10
0000db76 g       .text	00000024 _kill_r
00005652 g       .text	0000002e printf
00005378 g     F .text	00000018 __umulsihi2_f5
0000b43c g       .text	00000074 _wcrtomb_r
0000da2e g       .text	00000046 _signal_r
0000a37e g       .text	0000003a __sseek
00008864 g       .text	0000014a __sinit
0000b358 g       .text	000000d4 __swbuf_r
00008e62 g       .text	00000040 _setlocale_r
0000880e g       .text	0000004c __sfmoreglue
000051c8 g       .text	00000000 __mspabi_srli_10
0000c9f8 g       .text	00000000 __mspabi_sral_10
0000c9e8 g       .text	00000000 __mspabi_sral_14
0000488a g       .text	00000022 Proc_3
00000378 g     O .bss	00000008 User_Time
0000c952 g       .text	00000000 __mspabi_slli_9
000051b4 g       .text	00000000 __mspabi_srli_15
00008ffe g       .text	00000044 memmove
00000380 g     O .bss	00000008 Begin_Time
0000bbf6 g       .text	000004de __mspabi_mpyd
0000885a g       .text	0000000a _cleanup
000051e0 g       .text	00000000 __mspabi_srli_4
00009056 g       .text	000000a8 _Balloc
0000c94c g       .text	00000000 __mspabi_slli_12
0000478a g     F .text	00000004 __crt0_call_exit
000050b6 g       .text	00000060 udivmodhi4
0000c4aa g       .text	00000074 __gtdf2
0000d9ea g       .text	00000006 __errno
00000302 g       .data	00000000 __CIOBUF__
00004fd6 g       .text	0000000a Proc_7
0000d9d8 g       .text	00000000 C$$IO$$
0000c9fc g       .text	00000000 __mspabi_sral_9
0000b2a2 g       .text	00000024 _fstat_r
000008b6 g     O .bss	00000002 errno
0000a338 g       .text	00000004 __seofread
000051d4 g       .text	00000000 __mspabi_srli_7
0000522e g       .text	00000000 __mspabi_srll_7
00005246 g       .text	00000000 __mspabi_srll_3
0000ca08 g       .text	00000000 __mspabi_sral_6
0000ca1c g       .text	00000000 __mspabi_sral_1
000052ac g     F .text	0000002e __mulsi2
000051a6 g       .text	00000000 __mspabi_func_epilog_6
0000d912  w      .text	00000000 getpid
0000c9ba g       .text	00000000 __mspabi_srai_15
00005418 g       .text	0000001e memcpy
0000c938 g       .text	0000000e __mspabi_remul
0000520a g       .text	00000000 __mspabi_srll_13
00008804 g       .text	0000000a _cleanup_r
0000c592 g       .text	00000074 __ltdf2
00005702 g       .text	0000000c puts
00004744 g       .rodata	00000000 __fini_array_end
0000a27a g       .text	0000007e __fpclassifyd
0000bb8c g       .text	0000006a __mspabi_subd
00009ec6 g       .text	000000c6 __ratio
000051c0 g       .text	00000000 __mspabi_srli_12
00005400 g       .text	0000000c malloc
00005628 g       .text	0000002a _printf_r
0000d90e  w      .text	00000000 isatty
0000da74 g       .text	0000006c _raise_r
0000450c g     O .rodata	000000c8 __mprec_tens
0000c9d2 g       .text	00000000 __mspabi_srai_3
0000c9d4 g       .text	00000000 __mspabi_srai_2
00008ea2 g       .text	00000006 __locale_charset
00004754 g     F .text	0000000a __crt0_start
0000db9a g       .text	00000006 _getpid_r
0000c980 g       .text	00000000 __mspabi_slll_11
0000c970 g       .text	00000000 __mspabi_slll_15
00005324 g     F .text	00000028 __umuldisi2_hw32
00000202 g     O .data	00000000 __dso_handle
00004f74 g       .text	0000001e Proc_4
000002fc g     O .data	00000002 __mb_cur_max
0000c948 g       .text	00000000 __mspabi_slli_14
00008eb8 g       .text	00000006 _localeconv_r
00009482 g       .text	00000028 __i2b
00008a84 g       .text	00000330 __sfvwrite_r
0000c95c g       .text	00000000 __mspabi_slli_4
0000475e g     F .text	0000000e __crt0_init_bss
0000dae0 g       .text	00000064 __sigtramp_r
0000570e g       .text	00000022 _sbrk_r
0000056a g       *ABS*	00000000 __bsssize
0000c9a4 g       .text	00000000 __mspabi_slll_2
0000c9c4 g       .text	00000000 __mspabi_srai_10
0000b332 g       .text	00000026 _read_r
0000534c g     F .text	00000014 __mulhi2_f5
00000388 g     O .bss	000004e2 Arr_2_Glob
00005162 g       .text	00000032 __mspabi_remi
0000cf92 g       .text	0000077a __unpack_d
0000b06c g       .text	000000c0 _fclose_r
000087dc g       .text	00000020 fflush
00004780 g     F .text	0000000a __crt0_call_init_then_main
000051b0 g       .text	00000000 __mspabi_func_epilog_1
0000c96a g       .text	00000000 __mspabi_slli
0000d9d8 g       .text	00000000 _libgloss_cio_hook
00009bf4 g       .text	00000158 __b2d
0000d8f2  w      .text	00000000 lseek
0000d90e  w      .text	00000000 _isatty
000051ac g       .text	00000000 __mspabi_func_epilog_3
000044a6 g     O .rodata	00000002 _global_impure_ptr
0000523a g       .text	00000000 __mspabi_srll_5
0000a0f4 g       .text	0000005c _realloc_r
000051f8 g       .text	00000000 __mspabi_srli
0000b138 g       .text	0000010c _fputwc_r
000044e4 g     O .rodata	00000028 __mprec_bigtens
0000926c g       .text	000000d4 __s2b
0000d9dc g       .text	0000000e abort
0000d9a8 g       .text	00000030 _sbrk
0000990c g       .text	00000068 __mcmp
0000c8ca g       .text	00000060 __mspabi_remli
00008a68 g       .text	0000000e __fp_lock_all
00005268 g     F .text	00000014 __mulhi2
0000086a g     O .bss	00000008 End_Time
00000872 g     O .bss	00000002 Next_Ptr_Glob
00004fe0 g       .text	00000058 Proc_8
00005216 g       .text	00000000 __mspabi_srll_11
0000a16e g       .text	0000010c _reclaim_reent
0000c998 g       .text	00000000 __mspabi_slll_5
00009340 g       .text	00000084 __hi0bits
0000c94e g       .text	00000000 __mspabi_slli_11
0000c750 g       .text	0000006c __mspabi_fltuld
0000c95e g       .text	00000000 __mspabi_slli_3
00005390 g     F .text	00000020 __mulsi2_f5
0000d918 g       .text	00000090 write
000051dc g       .text	00000000 __mspabi_srli_5
0000d8e4  w      .text	00000000 fstat
0000cb90 g       .text	0000007c __lshrdi3
0000d900  w      .text	00000000 kill
0000509e g       .text	00000018 __data_move
0000971e g       .text	000000c4 __pow5mult
00000366 g     O .bss	00000002 __nlocale_changed
00005038 g       .text	00000014 Func_1
00004470 g     O .rodata	00000012 __sf_fake_stderr
00000000  w      *UND*	00000000 __deregister_frame_info
000008b8 g       .MP430.attributes	00000000 end
0000c9f4 g       .text	00000000 __mspabi_sral_11
0000c9e4 g       .text	00000000 __mspabi_sral_15
0000c9ca g       .text	00000000 __mspabi_srai_7
00000000  w      *UND*	00000000 _ITM_registerTMCloneTable
0000c960 g       .text	00000000 __mspabi_slli_2
0000cc88 g       .text	00000050 __clzsi2
0000519c g       .text	00000008 __mspabi_remu
00005234 g       .text	00000000 __mspabi_srll_6
00008a60 g       .text	00000002 __sfp_lock_acquire
00008fe4 g       .text	0000001a memchr
00005436 g       .text	000000fa _free_r
0000ca10 g       .text	00000000 __mspabi_sral_4
00008ea8 g       .text	00000006 __locale_mb_cur_max
0000c7bc g       .text	0000008a udivmodsi4
00000364 g     O .bss	00000002 __mlocale_changed
0000c994 g       .text	00000000 __mspabi_slll_6
00004754 g       .text	00000000 _start
0000ca2e g       .text	00000162 __mspabi_mpyll
00000874 g     O .bss	00000002 Int_Glob
000097e2 g       .text	0000012a __lshift
0000db50 g       .text	00000010 signal
0000d8d6  w      .text	00000000 read
0000c99c g       .text	00000000 __mspabi_slll_4
0000c98c g       .text	00000000 __mspabi_slll_8
000047aa g     F .text	00000000 _msp430_run_fini_array
000051ec g       .text	00000000 __mspabi_srli_1
00005204 g       .text	00000000 __mspabi_srll_14
0000c958 g       .text	00000000 __mspabi_slli_6
00000876 g     O .bss	00000001 Ch_1_Glob
0000c9de g       .text	00000000 __mspabi_srai
000094aa g       .text	00000274 __multiply
0000d7f0 g       .text	00000034 __mspabi_mpyi
00009d4c g       .text	0000017a __d2b
0000c9c0 g       .text	00000000 __mspabi_srai_12
00005086 g       .text	0000000c Func_3
000048ac g       .text	0000014e Proc_1
00000877 g     O .bss	00000001 Ch_2_Glob
000051b8 g       .text	00000000 __mspabi_srli_14
0000014e g       *ABS*	00000000 __romdatacopysize
0000d70c g       .text	000000e4 __fpcmp_parts_d
0000b04a g       .text	00000022 _close_r
000053b0 g     F .text	00000028 __muldisi2_f5
00000878 g     O .bss	00000002 Ptr_Glob
00006ede g       .text	00000108 __swsetup_r
0000c974 g       .text	00000000 __mspabi_slll_14
000089ae g       .text	000000b2 __sfp
00009fe8 g       .text	0000005a __copybits
0000ca04 g       .text	00000000 __mspabi_sral_7
00008a66 g       .text	00000002 __sinit_lock_release
0000c9c8 g       .text	00000000 __mspabi_srai_8
000051c4 g       .text	00000000 __mspabi_srli_11
0000ca18 g       .text	00000000 __mspabi_sral_2
0000a2f8 g       .text	00000040 __sread
0000c990 g       .text	00000000 __mspabi_slll_7
00000000  w      *UND*	00000000 _ITM_deregisterTMCloneTable
0000d9a8  w      .text	00000030 sbrk
00004744 g       .rodata	00000000 __fini_array_start
0000877e g       .text	0000005e _fflush_r
0000a0c8 g       .text	0000002c _calloc_r
00005116 g       .text	0000004c __mspabi_divi
00004494 g     O .rodata	00000012 __sf_fake_stdin
00000000  w      *ABS*	00000000 __rom_highdatacopysize
0000dbc0 g       .text	00000000 __msp430_init
00009042 g       .text	00000014 memset
0000c97c g       .text	00000000 __mspabi_slll_12
000049fa g       .text	0000057a main
00005294 g     F .text	00000018 __umulsihi2
000052fc g     F .text	00000028 __muldisi2_hw32
0000c9c6 g       .text	00000000 __mspabi_srai_9
0000b42c g       .text	00000010 __swbuf
00000302 g       .data	00000000 _CIOBUF_
0000c846 g       .text	00000084 __mspabi_divli
0000a3b8 g       .text	0000000a __sclose
0000c9c2 g       .text	00000000 __mspabi_srai_11
0000b12c g       .text	0000000c fclose
00005240 g       .text	00000000 __mspabi_srll_4
00004744 g       .rodata	00000000 __init_array_end
000051e8 g       .text	00000000 __mspabi_srli_2
000072be g       .text	000012ec _dtoa_r
00005530 g       .text	000000f8 _malloc_r
0000b4d4 g       .text	00000026 __ascii_wctomb
0000ca28 g       .text	00000000 __mspabi_sral
0000c962 g       .text	00000000 __mspabi_slli_1
00005194 g       .text	00000008 __mspabi_divu
0000db60 g       .text	0000000a _init_signal
00000000  w      *ABS*	00000000 __high_bsssize
00008db4 g       .text	00000054 _fwalk
0000c9a0 g       .text	00000000 __mspabi_slll_3
00000000  w      *ABS*	00000000 __rom_highdatastart
00004616 g     O .rodata	0000000e __thenan_df
0000dbdc g       .text	00000000 __msp430_fini_end
0000ca00 g       .text	00000000 __mspabi_sral_8
00005730 g       .text	0000001c strcmp
0000c9ec g       .text	00000000 __mspabi_sral_13
0000af86 g       .text	00000018 vfiprintf
00005210 g       .text	00000000 __mspabi_srll_12
0000c436 g       .text	00000074 __nedf2
0000c95a g       .text	00000000 __mspabi_slli_5
0000dbe0 g       *ABS*	00000000 __romdatastart
00004624 g     O .rodata	00000100 __clz_tab
00000362 g     O .bss	00000002 _PathLocale
0000c94a g       .text	00000000 __mspabi_slli_13
0000c9d0 g       .text	00000000 __mspabi_srai_4
0000b024 g       .text	00000026 _write_r
00008ebe g       .text	00000010 setlocale
0000087a g     O .bss	00000008 Vax_Mips
0000478e g     F .text	00000000 _msp430_run_init_array
000051d8 g       .text	00000000 __mspabi_srli_6
00000220 g     O .data	00000002 _impure_ptr
00004872 g       .text	00000018 Proc_2
000085d6 g       .text	000001a8 __sflush_r
00008eb4 g       .text	00000004 __locale_cjk_lang
00004744 g       .rodata	00000000 __preinit_array_end
0000504c g       .text	0000003a Func_2
0000c950 g       .text	00000000 __mspabi_slli_10
00009b48 g       .text	000000ac __ulp
00008a76 g       .text	0000000e __fp_unlock_all
000051e4 g       .text	00000000 __mspabi_srli_3
00000000  w      *ABS*	00000000 __high_datastart
00000000  w      *ABS*	00000000 __upper_data_init
0000034e g       .bss	00000000 __bssstart
000051a8 g       .text	00000000 __mspabi_func_epilog_5
0000c9bc g       .text	00000000 __mspabi_srai_14
00004f9e g       .text	00000038 Proc_6
0000c9b4 g       .text	00000000 __mspabi_slll
00008ece g       .text	00000006 localeconv
00002a00 g       .MP430.attributes	00000000 __stack
00005222 g       .text	00000000 __mspabi_srll_9
00005360 g     F .text	00000018 __mulsihi2_f5
0000ca14 g       .text	00000000 __mspabi_sral_3
0000034e g       .data	00000000 _edata
0000c9f0 g       .text	00000000 __mspabi_sral_12
0000dbd2 g       .text	00000000 __msp430_init_end
000053d8 g     F .text	00000028 __umuldisi2_f5
00005262 g       .text	00000000 __mspabi_srll
0000d824 g       .text	00000040 __mulqi3
0000a33c g       .text	00000042 __swrite
0000c606 g       .text	000000ae __mspabi_fltlid
00008eae g       .text	00000006 __locale_msgcharset
0000d8b6  w      .text	00000000 exit
0000a450 g       .text	00000b0e _vfiprintf_r
00008e08 g       .text	0000005a _fwalk_reent
00000000  w      *ABS*	00000000 __high_bssstart
0000c954 g       .text	00000000 __mspabi_slli_8
00009974 g       .text	000001d4 __mdiff
000051fe g       .text	00000000 __mspabi_srll_15
00000882 g     O .bss	00000032 Arr_1_Glob
00008a62 g       .text	00000002 __sfp_lock_release
0000c984 g       .text	00000000 __mspabi_slll_10
00004482 g     O .rodata	00000012 __sf_fake_stdout
00004f92 g       .text	0000000c Proc_5
0000c946 g       .text	00000000 __mspabi_slli_15
00004744 g       .rodata	00000000 __init_array_start
0000d8b6  w      .text	00000000 _exit
0000c9ce g       .text	00000000 __mspabi_srai_5
0000c6b4 g       .text	0000009c __mspabi_fixdli
00008ed4 g       .text	00000110 __smakebuf_r
0000c92a g       .text	0000000e __mspabi_divlu
0000574c g       .text	00000014 strlen
0000d9f0 g       .text	0000003e _init_signal_r
0000d8ba  w      .text	00000000 open
0000c51e g       .text	00000074 __gedf2
0000035e g     O .bss	00000002 __malloc_sbrk_start
000008b4 g     O .bss	00000002 Bool_Glob
0000c9be g       .text	00000000 __mspabi_srai_13
000002fe g     O .data	00000002 __wctomb
0000a3c2 g       .text	0000008e __sprint_r
0000c0dc g       .text	000002e6 __mspabi_divd
000051bc g       .text	00000000 __mspabi_srli_13
00000200 g       .data	00000000 __datastart
0000c9a8 g       .text	00000000 __mspabi_slll_1
00000360 g     O .bss	00000002 __malloc_free_list
00005228 g       .text	00000000 __mspabi_srll_8
00000206 g     O .data	0000001a Reg_Define
00005252 g       .text	00000000 __mspabi_srll_1
0000b4fa g       .text	00000040 _wctomb_r
00000000  w      *UND*	00000000 _Jv_RegisterClasses
0000bb26 g       .text	00000066 __mspabi_addd
0000c956 g       .text	00000000 __mspabi_slli_7
00005760 g       .text	00001630 _vfprintf_r
00004744 g       .rodata	00000000 __preinit_array_start
0000476c g     F .text	00000014 __crt0_movedata
000093c4 g       .text	000000be __lo0bits
000051ae g       .text	00000000 __mspabi_func_epilog_2
000052dc g     F .text	00000020 __mulsi2_hw32
0000db6a g       .text	0000000c __sigtramp
00000000  w      *UND*	00000000 __register_frame_info
0000ca0c g       .text	00000000 __mspabi_sral_5
0000479c g     F .text	00000000 _msp430_run_preinit_array
0000b4b0 g       .text	00000024 wcrtomb
0000d8c8  w      .text	00000000 close
000051a4 g       .text	00000000 __mspabi_func_epilog_7
000051aa g       .text	00000000 __mspabi_func_epilog_4
0000524c g       .text	00000000 __mspabi_srll_2
0000ccd8 g       .text	000002ba __pack_d
00006e40 g       .text	00000018 vfprintf
0000dbd2 g       .text	00000000 __msp430_fini
000051d0 g       .text	00000000 __mspabi_srli_8
0000b244 g       .text	0000005e fputwc
0000db44 g       .text	0000000c raise
0000540c g       .text	0000000c free
00008a64 g       .text	00000002 __sinit_lock_acquire
00009144 g       .text	00000128 __multadd
000090fe g       .text	00000046 _Bfree



Disassembly of section .text:

00004754 <__crt0_start>:
    4754:	31 40 00 2a 	mov	#10752,	r1	;#0x2a00
    4758:	b2 40 80 5a 	mov	#23168,	&0x015c	;#0x5a80
    475c:	5c 01 

0000475e <__crt0_init_bss>:
    475e:	3c 40 4e 03 	mov	#846,	r12	;#0x034e
    4762:	0d 43       	clr	r13		;
    4764:	3e 40 6a 05 	mov	#1386,	r14	;#0x056a
    4768:	b0 12 42 90 	call	#36930		;#0x9042

0000476c <__crt0_movedata>:
    476c:	3c 40 00 02 	mov	#512,	r12	;#0x0200
    4770:	3d 40 e0 db 	mov	#56288,	r13	;#0xdbe0
    4774:	0d 9c       	cmp	r12,	r13	;
    4776:	04 24       	jz	$+10     	;abs 0x4780
    4778:	3e 40 4e 01 	mov	#334,	r14	;#0x014e
    477c:	b0 12 fe 8f 	call	#36862		;#0x8ffe

00004780 <__crt0_call_init_then_main>:
    4780:	b0 12 c0 db 	call	#56256		;#0xdbc0
    4784:	0c 43       	clr	r12		;
    4786:	b0 12 fa 49 	call	#18938		;#0x49fa

0000478a <__crt0_call_exit>:
    478a:	b0 12 b6 d8 	call	#55478		;#0xd8b6

0000478e <_msp430_run_init_array>:
    478e:	34 40 44 47 	mov	#18244,	r4	;#0x4744
    4792:	35 40 44 47 	mov	#18244,	r5	;#0x4744
    4796:	26 43       	mov	#2,	r6	;r3 As==10
    4798:	30 40 ba 47 	br	#0x47ba		;

0000479c <_msp430_run_preinit_array>:
    479c:	34 40 44 47 	mov	#18244,	r4	;#0x4744
    47a0:	35 40 44 47 	mov	#18244,	r5	;#0x4744
    47a4:	26 43       	mov	#2,	r6	;r3 As==10
    47a6:	30 40 ba 47 	br	#0x47ba		;

000047aa <_msp430_run_fini_array>:
    47aa:	34 40 44 47 	mov	#18244,	r4	;#0x4744
    47ae:	35 40 44 47 	mov	#18244,	r5	;#0x4744
    47b2:	36 40 fe ff 	mov	#65534,	r6	;#0xfffe
    47b6:	30 40 ba 47 	br	#0x47ba		;

000047ba <_msp430_run_array>:
    47ba:	05 94       	cmp	r4,	r5	;
    47bc:	05 24       	jz	$+12     	;abs 0x47c8
    47be:	27 44       	mov	@r4,	r7	;
    47c0:	04 56       	add	r6,	r4	;
    47c2:	a7 12       	call	@r7		;
    47c4:	10 40 f4 ff 	br	0xfff4		;PC rel. 0x47ba

000047c8 <_msp430_run_done>:
    47c8:	30 41       	ret			

000047ca <deregister_tm_clones>:
    47ca:	82 93 dc db 	cmp	#0,	&0xdbdc	;r3 As==00
    47ce:	07 24       	jz	$+16     	;abs 0x47de
    47d0:	3d 40 00 00 	mov	#0,	r13	;
    47d4:	0d 93       	cmp	#0,	r13	;r3 As==00
    47d6:	03 24       	jz	$+8      	;abs 0x47de
    47d8:	3c 40 dc db 	mov	#56284,	r12	;#0xdbdc
    47dc:	8d 12       	call	r13		;
    47de:	30 41       	ret			

000047e0 <register_tm_clones>:
    47e0:	82 93 dc db 	cmp	#0,	&0xdbdc	;r3 As==00
    47e4:	11 24       	jz	$+36     	;abs 0x4808
    47e6:	3c 40 e0 db 	mov	#56288,	r12	;#0xdbe0
    47ea:	0d 43       	clr	r13		;
    47ec:	1d 53       	inc	r13		;
    47ee:	2c 52       	add	#4,	r12	;r2 As==10
    47f0:	8c 93 fc ff 	cmp	#0,	-4(r12)	;r3 As==00, 0xfffc
    47f4:	fb 23       	jnz	$-8      	;abs 0x47ec
    47f6:	0d 93       	cmp	#0,	r13	;r3 As==00
    47f8:	07 24       	jz	$+16     	;abs 0x4808
    47fa:	3e 40 00 00 	mov	#0,	r14	;
    47fe:	0e 93       	cmp	#0,	r14	;r3 As==00
    4800:	03 24       	jz	$+8      	;abs 0x4808
    4802:	3c 40 dc db 	mov	#56284,	r12	;#0xdbdc
    4806:	8e 12       	call	r14		;
    4808:	30 41       	ret			

0000480a <__do_global_dtors_aux>:
    480a:	c2 93 4e 03 	cmp.b	#0,	&0x034e	;r3 As==00
    480e:	06 24       	jz	$+14     	;abs 0x481c
    4810:	30 40 3c 48 	br	#0x483c		;
    4814:	2d 53       	incd	r13		;
    4816:	82 4d 04 02 	mov	r13,	&0x0204	;
    481a:	8c 12       	call	r12		;
    481c:	1d 42 04 02 	mov	&0x0204,r13	;0x0204
    4820:	2c 4d       	mov	@r13,	r12	;
    4822:	0c 93       	cmp	#0,	r12	;r3 As==00
    4824:	f7 23       	jnz	$-16     	;abs 0x4814
    4826:	b0 12 ca 47 	call	#18378		;#0x47ca
    482a:	3d 40 00 00 	mov	#0,	r13	;
    482e:	0d 93       	cmp	#0,	r13	;r3 As==00
    4830:	03 24       	jz	$+8      	;abs 0x4838
    4832:	3c 40 40 47 	mov	#18240,	r12	;#0x4740
    4836:	8d 12       	call	r13		;
    4838:	d2 43 4e 03 	mov.b	#1,	&0x034e	;r3 As==01
    483c:	30 41       	ret			

0000483e <call___do_global_dtors_aux>:
    483e:	30 41       	ret			

00004840 <frame_dummy>:
    4840:	3e 40 00 00 	mov	#0,	r14	;
    4844:	0e 93       	cmp	#0,	r14	;r3 As==00
    4846:	05 24       	jz	$+12     	;abs 0x4852
    4848:	3c 40 40 47 	mov	#18240,	r12	;#0x4740
    484c:	3d 40 50 03 	mov	#848,	r13	;#0x0350
    4850:	8e 12       	call	r14		;
    4852:	3c 40 00 02 	mov	#512,	r12	;#0x0200
    4856:	8c 93 00 00 	cmp	#0,	0(r12)	;r3 As==00
    485a:	03 20       	jnz	$+8      	;abs 0x4862
    485c:	b0 12 e0 47 	call	#18400		;#0x47e0
    4860:	30 41       	ret			
    4862:	3d 40 00 00 	mov	#0,	r13	;
    4866:	0d 93       	cmp	#0,	r13	;r3 As==00
    4868:	f9 27       	jz	$-12     	;abs 0x485c
    486a:	8d 12       	call	r13		;
    486c:	30 40 5c 48 	br	#0x485c		;

00004870 <call_frame_dummy>:
    4870:	30 41       	ret			

00004872 <Proc_2>:
    /* *Int_Par_Ref == 1, becomes 4 */
{
  One_Fifty  Int_Loc;
  Enumeration   Enum_Loc;

  Int_Loc = *Int_Par_Ref + 10;
    4872:	2d 4c       	mov	@r12,	r13	;
  do /* executed once */
    if (Ch_1_Glob == 'A')
    4874:	f2 90 41 00 	cmp.b	#65,	&0x0876	;#0x0041
    4878:	76 08 
    487a:	06 20       	jnz	$+14     	;abs 0x4888
      /* then, executed */
    {
      Int_Loc -= 1;
    487c:	3d 50 09 00 	add	#9,	r13	;
      *Int_Par_Ref = Int_Loc - Int_Glob;
    4880:	1d 82 74 08 	sub	&0x0874,r13	;0x0874
    4884:	8c 4d 00 00 	mov	r13,	0(r12)	;
      Enum_Loc = Ident_1;
    } /* if */
  while (Enum_Loc != Ident_1); /* true */
} /* Proc_2 */
    4888:	30 41       	ret			

0000488a <Proc_3>:
void Proc_3( Rec_Pointer * Ptr_Ref_Par )
/******************/
    /* executed once */
    /* Ptr_Ref_Par becomes Ptr_Glob */
{
  if (Ptr_Glob != Null)
    488a:	1e 42 78 08 	mov	&0x0878,r14	;0x0878
    488e:	0e 93       	cmp	#0,	r14	;r3 As==00
    4890:	04 24       	jz	$+10     	;abs 0x489a
    /* then, executed */
    *Ptr_Ref_Par = Ptr_Glob->Ptr_Comp;
    4892:	ac 4e 00 00 	mov	@r14,	0(r12)	;
    4896:	1e 42 78 08 	mov	&0x0878,r14	;0x0878
  Proc_7 (10, Int_Glob, &Ptr_Glob->variant.var_1.Int_Comp);
    489a:	3c 40 0a 00 	mov	#10,	r12	;#0x000a
    489e:	1d 42 74 08 	mov	&0x0874,r13	;0x0874
    48a2:	3e 50 06 00 	add	#6,	r14	;
    48a6:	b0 12 d6 4f 	call	#20438		;#0x4fd6
} /* Proc_3 */
    48aa:	30 41       	ret			

000048ac <Proc_1>:


void Proc_1( REG Rec_Pointer Ptr_Val_Par )
/******************/
    /* executed once */
{
    48ac:	0a 12       	push	r10		;
    48ae:	09 12       	push	r9		;
    48b0:	09 4c       	mov	r12,	r9	;
  REG Rec_Pointer Next_Record = Ptr_Val_Par->Ptr_Comp;  
    48b2:	2a 4c       	mov	@r12,	r10	;
                                        /* == Ptr_Glob_Next */
  /* Local variable, initialized with Ptr_Val_Par->Ptr_Comp,    */
  /* corresponds to "rename" in Ada, "with" in Pascal           */
  
  structassign (*Ptr_Val_Par->Ptr_Comp, *Ptr_Glob);
    48b4:	1c 42 78 08 	mov	&0x0878,r12	;0x0878
    48b8:	aa 4c 00 00 	mov	@r12,	0(r10)	;
    48bc:	9a 4c 02 00 	mov	2(r12),	2(r10)	;
    48c0:	02 00 
    48c2:	9a 4c 04 00 	mov	4(r12),	4(r10)	;
    48c6:	04 00 
    48c8:	9a 4c 06 00 	mov	6(r12),	6(r10)	;
    48cc:	06 00 
    48ce:	9a 4c 08 00 	mov	8(r12),	8(r10)	;
    48d2:	08 00 
    48d4:	9a 4c 0a 00 	mov	10(r12),10(r10)	;0x0000a, 0x000a
    48d8:	0a 00 
    48da:	9a 4c 0c 00 	mov	12(r12),12(r10)	;0x0000c, 0x000c
    48de:	0c 00 
    48e0:	9a 4c 0e 00 	mov	14(r12),14(r10)	;0x0000e, 0x000e
    48e4:	0e 00 
    48e6:	9a 4c 10 00 	mov	16(r12),16(r10)	;0x00010, 0x0010
    48ea:	10 00 
    48ec:	9a 4c 12 00 	mov	18(r12),18(r10)	;0x00012, 0x0012
    48f0:	12 00 
    48f2:	9a 4c 14 00 	mov	20(r12),20(r10)	;0x00014, 0x0014
    48f6:	14 00 
    48f8:	9a 4c 16 00 	mov	22(r12),22(r10)	;0x00016, 0x0016
    48fc:	16 00 
    48fe:	9a 4c 18 00 	mov	24(r12),24(r10)	;0x00018, 0x0018
    4902:	18 00 
    4904:	9a 4c 1a 00 	mov	26(r12),26(r10)	;0x0001a, 0x001a
    4908:	1a 00 
    490a:	9a 4c 1c 00 	mov	28(r12),28(r10)	;0x0001c, 0x001c
    490e:	1c 00 
    4910:	9a 4c 1e 00 	mov	30(r12),30(r10)	;0x0001e, 0x001e
    4914:	1e 00 
    4916:	9a 4c 20 00 	mov	32(r12),32(r10)	;0x00020, 0x0020
    491a:	20 00 
    491c:	9a 4c 22 00 	mov	34(r12),34(r10)	;0x00022, 0x0022
    4920:	22 00 
    4922:	9a 4c 24 00 	mov	36(r12),36(r10)	;0x00024, 0x0024
    4926:	24 00 
    4928:	9a 4c 26 00 	mov	38(r12),38(r10)	;0x00026, 0x0026
    492c:	26 00 
  Ptr_Val_Par->variant.var_1.Int_Comp = 5;
    492e:	b9 40 05 00 	mov	#5,	6(r9)	;
    4932:	06 00 
  Next_Record->variant.var_1.Int_Comp 
        = Ptr_Val_Par->variant.var_1.Int_Comp;
    4934:	ba 40 05 00 	mov	#5,	6(r10)	;
    4938:	06 00 
  Next_Record->Ptr_Comp = Ptr_Val_Par->Ptr_Comp;
    493a:	aa 49 00 00 	mov	@r9,	0(r10)	;
  Proc_3 (&Next_Record->Ptr_Comp);
    493e:	0c 4a       	mov	r10,	r12	;
    4940:	b0 12 8a 48 	call	#18570		;#0x488a
    /* Ptr_Val_Par->Ptr_Comp->Ptr_Comp 
                        == Ptr_Glob->Ptr_Comp */
  if (Next_Record->Discr == Ident_1)
    4944:	8a 93 02 00 	cmp	#0,	2(r10)	;r3 As==00
    4948:	40 24       	jz	$+130    	;abs 0x49ca
    Next_Record->Ptr_Comp = Ptr_Glob->Ptr_Comp;
    Proc_7 (Next_Record->variant.var_1.Int_Comp, 10, 
           &Next_Record->variant.var_1.Int_Comp);
  }
  else /* not executed */
    structassign (*Ptr_Val_Par, *Ptr_Val_Par->Ptr_Comp);
    494a:	2c 49       	mov	@r9,	r12	;
    494c:	a9 4c 00 00 	mov	@r12,	0(r9)	;
    4950:	99 4c 02 00 	mov	2(r12),	2(r9)	;
    4954:	02 00 
    4956:	99 4c 04 00 	mov	4(r12),	4(r9)	;
    495a:	04 00 
    495c:	99 4c 06 00 	mov	6(r12),	6(r9)	;
    4960:	06 00 
    4962:	99 4c 08 00 	mov	8(r12),	8(r9)	;
    4966:	08 00 
    4968:	99 4c 0a 00 	mov	10(r12),10(r9)	;0x0000a, 0x000a
    496c:	0a 00 
    496e:	99 4c 0c 00 	mov	12(r12),12(r9)	;0x0000c, 0x000c
    4972:	0c 00 
    4974:	99 4c 0e 00 	mov	14(r12),14(r9)	;0x0000e, 0x000e
    4978:	0e 00 
    497a:	99 4c 10 00 	mov	16(r12),16(r9)	;0x00010, 0x0010
    497e:	10 00 
    4980:	99 4c 12 00 	mov	18(r12),18(r9)	;0x00012, 0x0012
    4984:	12 00 
    4986:	99 4c 14 00 	mov	20(r12),20(r9)	;0x00014, 0x0014
    498a:	14 00 
    498c:	99 4c 16 00 	mov	22(r12),22(r9)	;0x00016, 0x0016
    4990:	16 00 
    4992:	99 4c 18 00 	mov	24(r12),24(r9)	;0x00018, 0x0018
    4996:	18 00 
    4998:	99 4c 1a 00 	mov	26(r12),26(r9)	;0x0001a, 0x001a
    499c:	1a 00 
    499e:	99 4c 1c 00 	mov	28(r12),28(r9)	;0x0001c, 0x001c
    49a2:	1c 00 
    49a4:	99 4c 1e 00 	mov	30(r12),30(r9)	;0x0001e, 0x001e
    49a8:	1e 00 
    49aa:	99 4c 20 00 	mov	32(r12),32(r9)	;0x00020, 0x0020
    49ae:	20 00 
    49b0:	99 4c 22 00 	mov	34(r12),34(r9)	;0x00022, 0x0022
    49b4:	22 00 
    49b6:	99 4c 24 00 	mov	36(r12),36(r9)	;0x00024, 0x0024
    49ba:	24 00 
    49bc:	99 4c 26 00 	mov	38(r12),38(r9)	;0x00026, 0x0026
    49c0:	26 00 
} /* Proc_1 */
    49c2:	30 40 ae 51 	br	#0x51ae		;
    49c6:	30 40 fa 49 	br	#0x49fa		;
    /* Ptr_Val_Par->Ptr_Comp->Ptr_Comp 
                        == Ptr_Glob->Ptr_Comp */
  if (Next_Record->Discr == Ident_1)
    /* then, executed */
  {
    Next_Record->variant.var_1.Int_Comp = 6;
    49ca:	ba 40 06 00 	mov	#6,	6(r10)	;
    49ce:	06 00 
    Proc_6 (Ptr_Val_Par->variant.var_1.Enum_Comp, 
    49d0:	1c 49 04 00 	mov	4(r9),	r12	;
    49d4:	0d 4a       	mov	r10,	r13	;
    49d6:	2d 52       	add	#4,	r13	;r2 As==10
    49d8:	b0 12 9e 4f 	call	#20382		;#0x4f9e
           &Next_Record->variant.var_1.Enum_Comp);
    Next_Record->Ptr_Comp = Ptr_Glob->Ptr_Comp;
    49dc:	1c 42 78 08 	mov	&0x0878,r12	;0x0878
    49e0:	aa 4c 00 00 	mov	@r12,	0(r10)	;
    Proc_7 (Next_Record->variant.var_1.Int_Comp, 10, 
    49e4:	1c 4a 06 00 	mov	6(r10),	r12	;
    49e8:	3d 40 0a 00 	mov	#10,	r13	;#0x000a
    49ec:	0e 4a       	mov	r10,	r14	;
    49ee:	3e 50 06 00 	add	#6,	r14	;
    49f2:	b0 12 d6 4f 	call	#20438		;#0x4fd6
           &Next_Record->variant.var_1.Int_Comp);
  }
  else /* not executed */
    structassign (*Ptr_Val_Par, *Ptr_Val_Par->Ptr_Comp);
} /* Proc_1 */
    49f6:	30 40 ae 51 	br	#0x51ae		;

000049fa <main>:
int main( void )
/*****/

  /* main program, corresponds to procedures        */
  /* Main and Proc_0 in the Ada version             */
{
    49fa:	0a 12       	push	r10		;
    49fc:	09 12       	push	r9		;
    49fe:	08 12       	push	r8		;
    4a00:	07 12       	push	r7		;
    4a02:	06 12       	push	r6		;
    4a04:	05 12       	push	r5		;
    4a06:	04 12       	push	r4		;
    4a08:	31 80 48 00 	sub	#72,	r1	;#0x0048

  //        FILE            *Ap;

  /* Initializations */

  STOP_WATCHDOG;
    4a0c:	b2 40 80 5a 	mov	#23168,	&0x0120	;#0x5a80
    4a10:	20 01 
       printf("Can not open dhry.res\n\n");
       exit(1);
    }
 */

  Next_Ptr_Glob = (Rec_Pointer)malloc (sizeof (Rec_Type));
    4a12:	39 40 00 54 	mov	#21504,	r9	;#0x5400
    4a16:	3c 40 28 00 	mov	#40,	r12	;#0x0028
    4a1a:	89 12       	call	r9		;
    4a1c:	0a 4c       	mov	r12,	r10	;
    4a1e:	82 4c 72 08 	mov	r12,	&0x0872	;
  Ptr_Glob = (Rec_Pointer)malloc (sizeof (Rec_Type));
    4a22:	3c 40 28 00 	mov	#40,	r12	;#0x0028
    4a26:	89 12       	call	r9		;
    4a28:	82 4c 78 08 	mov	r12,	&0x0878	;

  Ptr_Glob->Ptr_Comp                    = Next_Ptr_Glob;
    4a2c:	8c 4a 00 00 	mov	r10,	0(r12)	;
  Ptr_Glob->Discr                       = Ident_1;
    4a30:	8c 43 02 00 	mov	#0,	2(r12)	;r3 As==00
  Ptr_Glob->variant.var_1.Enum_Comp     = Ident_3;
    4a34:	ac 43 04 00 	mov	#2,	4(r12)	;r3 As==10
  Ptr_Glob->variant.var_1.Int_Comp      = 40;
    4a38:	bc 40 28 00 	mov	#40,	6(r12)	;#0x0028
    4a3c:	06 00 
  strcpy (Ptr_Glob->variant.var_1.Str_Comp, 
    4a3e:	3c 52       	add	#8,	r12	;r2 As==11
    4a40:	bc 40 44 48 	mov	#18500,	0(r12)	;#0x4844
    4a44:	00 00 
    4a46:	bc 40 52 59 	mov	#22866,	2(r12)	;#0x5952
    4a4a:	02 00 
    4a4c:	bc 40 53 54 	mov	#21587,	4(r12)	;#0x5453
    4a50:	04 00 
    4a52:	bc 40 4f 4e 	mov	#20047,	6(r12)	;#0x4e4f
    4a56:	06 00 
    4a58:	bc 40 45 20 	mov	#8261,	8(r12)	;#0x2045
    4a5c:	08 00 
    4a5e:	bc 40 50 52 	mov	#21072,	10(r12)	;#0x5250, 0x000a
    4a62:	0a 00 
    4a64:	bc 40 4f 47 	mov	#18255,	12(r12)	;#0x474f, 0x000c
    4a68:	0c 00 
    4a6a:	bc 40 52 41 	mov	#16722,	14(r12)	;#0x4152, 0x000e
    4a6e:	0e 00 
    4a70:	bc 40 4d 2c 	mov	#11341,	16(r12)	;#0x2c4d, 0x0010
    4a74:	10 00 
    4a76:	bc 40 20 53 	mov	#21280,	18(r12)	;#0x5320, 0x0012
    4a7a:	12 00 
    4a7c:	bc 40 4f 4d 	mov	#19791,	20(r12)	;#0x4d4f, 0x0014
    4a80:	14 00 
    4a82:	bc 40 45 20 	mov	#8261,	22(r12)	;#0x2045, 0x0016
    4a86:	16 00 
    4a88:	bc 40 53 54 	mov	#21587,	24(r12)	;#0x5453, 0x0018
    4a8c:	18 00 
    4a8e:	bc 40 52 49 	mov	#18770,	26(r12)	;#0x4952, 0x001a
    4a92:	1a 00 
    4a94:	bc 40 4e 47 	mov	#18254,	28(r12)	;#0x474e, 0x001c
    4a98:	1c 00 
    4a9a:	cc 43 1e 00 	mov.b	#0,	30(r12)	;r3 As==00, 0x001e
          "DHRYSTONE PROGRAM, SOME STRING");
  strcpy (Str_1_Loc, "DHRYSTONE PROGRAM, 1'ST STRING");
    4a9e:	b1 40 44 48 	mov	#18500,	10(r1)	;#0x4844, 0x000a
    4aa2:	0a 00 
    4aa4:	b1 40 52 59 	mov	#22866,	12(r1)	;#0x5952, 0x000c
    4aa8:	0c 00 
    4aaa:	b1 40 53 54 	mov	#21587,	14(r1)	;#0x5453, 0x000e
    4aae:	0e 00 
    4ab0:	b1 40 4f 4e 	mov	#20047,	16(r1)	;#0x4e4f, 0x0010
    4ab4:	10 00 
    4ab6:	b1 40 45 20 	mov	#8261,	18(r1)	;#0x2045, 0x0012
    4aba:	12 00 
    4abc:	b1 40 50 52 	mov	#21072,	20(r1)	;#0x5250, 0x0014
    4ac0:	14 00 
    4ac2:	b1 40 4f 47 	mov	#18255,	22(r1)	;#0x474f, 0x0016
    4ac6:	16 00 
    4ac8:	b1 40 52 41 	mov	#16722,	24(r1)	;#0x4152, 0x0018
    4acc:	18 00 
    4ace:	b1 40 4d 2c 	mov	#11341,	26(r1)	;#0x2c4d, 0x001a
    4ad2:	1a 00 
    4ad4:	b1 40 20 31 	mov	#12576,	28(r1)	;#0x3120, 0x001c
    4ad8:	1c 00 
    4ada:	b1 40 27 53 	mov	#21287,	30(r1)	;#0x5327, 0x001e
    4ade:	1e 00 
    4ae0:	b1 40 54 20 	mov	#8276,	32(r1)	;#0x2054, 0x0020
    4ae4:	20 00 
    4ae6:	b1 40 53 54 	mov	#21587,	34(r1)	;#0x5453, 0x0022
    4aea:	22 00 
    4aec:	b1 40 52 49 	mov	#18770,	36(r1)	;#0x4952, 0x0024
    4af0:	24 00 
    4af2:	b1 40 4e 47 	mov	#18254,	38(r1)	;#0x474e, 0x0026
    4af6:	26 00 
    4af8:	c1 43 28 00 	mov.b	#0,	40(r1)	;r3 As==00, 0x0028

  Arr_2_Glob [8][7] = 10;
    4afc:	b2 40 0a 00 	mov	#10,	&0x0526	;#0x000a
    4b00:	26 05 
        /* Was missing in published program. Without this statement,    */
        /* Arr_2_Glob [8][7] would have an undefined value.             */
        /* Warning: With 16-Bit processors and Number_Of_Runs > 32000,  */
        /* overflow may occur for this array element.                   */

  printf ("\n");
    4b02:	3c 40 0a 00 	mov	#10,	r12	;#0x000a
    4b06:	b0 12 92 50 	call	#20626		;#0x5092
  printf ("Dhrystone Benchmark, Version 2.1 (Language: C)\n");
    4b0a:	3c 40 00 40 	mov	#16384,	r12	;#0x4000
    4b0e:	b0 12 02 57 	call	#22274		;#0x5702
  printf ("\n");
    4b12:	3c 40 0a 00 	mov	#10,	r12	;#0x000a
    4b16:	b0 12 92 50 	call	#20626		;#0x5092
  }
  printf ("\n");
*/
  Number_Of_Runs = 100;

  printf ("Execution starts, %d runs through Dhrystone\n",Number_Of_Runs);
    4b1a:	b1 40 2f 40 	mov	#16431,	0(r1)	;#0x402f
    4b1e:	00 00 
    4b20:	b1 40 64 00 	mov	#100,	2(r1)	;#0x0064
    4b24:	02 00 
    4b26:	b0 12 52 56 	call	#22098		;#0x5652

  /***************/
  /* Start timer */
  /***************/
 
  Begin_Time = 1;//dtime();
    4b2a:	82 43 80 03 	mov	#0,	&0x0380	;r3 As==00
    4b2e:	82 43 82 03 	mov	#0,	&0x0382	;r3 As==00
    4b32:	82 43 84 03 	mov	#0,	&0x0384	;r3 As==00
    4b36:	b2 40 f0 3f 	mov	#16368,	&0x0386	;#0x3ff0
    4b3a:	86 03 
  START_TIME;  // Set P3[0]
    4b3c:	d2 43 19 00 	mov.b	#1,	&0x0019	;r3 As==01

  for (Run_Index = 1; Run_Index <= Number_Of_Runs; ++Run_Index )
    4b40:	18 43       	mov	#1,	r8	;r3 As==01
    4b42:	37 40 18 54 	mov	#21528,	r7	;#0x5418
    4b46:	34 40 4c 50 	mov	#20556,	r4	;#0x504c

void Proc_5( void ) /* without parameters */
/*******/
    /* executed once */
{
  Ch_1_Glob = 'A';
    4b4a:	f2 40 41 00 	mov.b	#65,	&0x0876	;#0x0041
    4b4e:	76 08 
    /* executed once */
{
  Boolean Bool_Loc;

  Bool_Loc = Ch_1_Glob == 'A';
  Bool_Glob = Bool_Loc | Bool_Glob;
    4b50:	92 43 b4 08 	mov	#1,	&0x08b4	;r3 As==01
  Ch_2_Glob = 'B';
    4b54:	f2 40 42 00 	mov.b	#66,	&0x0877	;#0x0042
    4b58:	77 08 
    Proc_5();
    Proc_4();
      /* Ch_1_Glob == 'A', Ch_2_Glob == 'B', Bool_Glob == true */
    Int_1_Loc = 2;
    Int_2_Loc = 3;
    strcpy (Str_2_Loc, "DHRYSTONE PROGRAM, 2'ND STRING");
    4b5a:	0c 41       	mov	r1,	r12	;
    4b5c:	3c 50 29 00 	add	#41,	r12	;#0x0029
    4b60:	3d 40 ca 43 	mov	#17354,	r13	;#0x43ca
    4b64:	3e 40 1f 00 	mov	#31,	r14	;#0x001f
    4b68:	87 12       	call	r7		;
    Enum_Loc = Ident_2;
    4b6a:	91 43 08 00 	mov	#1,	8(r1)	;r3 As==01
    Bool_Glob = ! Func_2 (Str_1_Loc, Str_2_Loc);
    4b6e:	0c 41       	mov	r1,	r12	;
    4b70:	3c 50 0a 00 	add	#10,	r12	;#0x000a
    4b74:	0d 41       	mov	r1,	r13	;
    4b76:	3d 50 29 00 	add	#41,	r13	;#0x0029
    4b7a:	84 12       	call	r4		;
    4b7c:	1d 43       	mov	#1,	r13	;r3 As==01
    4b7e:	0c 93       	cmp	#0,	r12	;r3 As==00
    4b80:	01 24       	jz	$+4      	;abs 0x4b84
    4b82:	0d 43       	clr	r13		;
    4b84:	82 4d b4 08 	mov	r13,	&0x08b4	;
      /* Bool_Glob == 1 */
    while (Int_1_Loc < Int_2_Loc)  /* loop body executed once */
    {
      Int_3_Loc = 5 * Int_1_Loc - Int_2_Loc;
    4b88:	b1 40 07 00 	mov	#7,	6(r1)	;
    4b8c:	06 00 
        /* Int_3_Loc == 7 */
      Proc_7 (Int_1_Loc, Int_2_Loc, &Int_3_Loc);
    4b8e:	2c 43       	mov	#2,	r12	;r3 As==10
    4b90:	3d 40 03 00 	mov	#3,	r13	;
    4b94:	0e 41       	mov	r1,	r14	;
    4b96:	3e 50 06 00 	add	#6,	r14	;
    4b9a:	b0 12 d6 4f 	call	#20438		;#0x4fd6
        /* Int_3_Loc == 7 */
      Int_1_Loc += 1;
    } /* while */
    //SetPort( 0 );              /* <-- added; set port low */
      /* Int_1_Loc == 3, Int_2_Loc == 3, Int_3_Loc == 7 */
    Proc_8 (Arr_1_Glob, Arr_2_Glob, Int_1_Loc, Int_3_Loc);
    4b9e:	3c 40 82 08 	mov	#2178,	r12	;#0x0882
    4ba2:	3d 40 88 03 	mov	#904,	r13	;#0x0388
    4ba6:	3e 40 03 00 	mov	#3,	r14	;
    4baa:	1f 41 06 00 	mov	6(r1),	r15	;
    4bae:	b0 12 e0 4f 	call	#20448		;#0x4fe0
      /* Int_Glob == 5 */
    Proc_1 (Ptr_Glob);
    4bb2:	1c 42 78 08 	mov	&0x0878,r12	;0x0878
    4bb6:	b0 12 ac 48 	call	#18604		;#0x48ac
    for (Ch_Index = 'A'; Ch_Index <= Ch_2_Glob; ++Ch_Index)
    4bba:	7c 40 40 00 	mov.b	#64,	r12	;#0x0040
    4bbe:	5c 92 77 08 	cmp.b	&0x0877,r12	;0x0877
    4bc2:	d4 2d       	jc	$+938    	;abs 0x4f6c
    4bc4:	3a 40 41 00 	mov	#65,	r10	;#0x0041
    4bc8:	36 40 03 00 	mov	#3,	r6	;
    4bcc:	39 40 38 50 	mov	#20536,	r9	;#0x5038
                             /* loop body executed twice */
    {
      if (Enum_Loc == Func_1 (Ch_Index, 'C'))
          /* then, not executed */
        {
        Proc_6 (Ident_1, &Enum_Loc);
    4bd0:	35 40 9e 4f 	mov	#20382,	r5	;#0x4f9e
    4bd4:	30 40 e4 4b 	br	#0x4be4		;
    //SetPort( 0 );              /* <-- added; set port low */
      /* Int_1_Loc == 3, Int_2_Loc == 3, Int_3_Loc == 7 */
    Proc_8 (Arr_1_Glob, Arr_2_Glob, Int_1_Loc, Int_3_Loc);
      /* Int_Glob == 5 */
    Proc_1 (Ptr_Glob);
    for (Ch_Index = 'A'; Ch_Index <= Ch_2_Glob; ++Ch_Index)
    4bd8:	4c 4a       	mov.b	r10,	r12	;
    4bda:	5c 53       	inc.b	r12		;
    4bdc:	4a 4c       	mov.b	r12,	r10	;
    4bde:	c2 9c 77 08 	cmp.b	r12,	&0x0877	;
    4be2:	1c 28       	jnc	$+58     	;abs 0x4c1c
                             /* loop body executed twice */
    {
      if (Enum_Loc == Func_1 (Ch_Index, 'C'))
    4be4:	4c 4a       	mov.b	r10,	r12	;
    4be6:	7d 40 43 00 	mov.b	#67,	r13	;#0x0043
    4bea:	89 12       	call	r9		;
    4bec:	1c 91 08 00 	cmp	8(r1),	r12	;
    4bf0:	f3 23       	jnz	$-24     	;abs 0x4bd8
          /* then, not executed */
        {
        Proc_6 (Ident_1, &Enum_Loc);
    4bf2:	0c 43       	clr	r12		;
    4bf4:	0d 41       	mov	r1,	r13	;
    4bf6:	3d 52       	add	#8,	r13	;r2 As==11
    4bf8:	85 12       	call	r5		;
        strcpy (Str_2_Loc, "DHRYSTONE PROGRAM, 3'RD STRING");
    4bfa:	0c 41       	mov	r1,	r12	;
    4bfc:	3c 50 29 00 	add	#41,	r12	;#0x0029
    4c00:	3d 40 e9 43 	mov	#17385,	r13	;#0x43e9
    4c04:	3e 40 1f 00 	mov	#31,	r14	;#0x001f
    4c08:	87 12       	call	r7		;
        Int_2_Loc = Run_Index;
        Int_Glob = Run_Index;
    4c0a:	82 48 74 08 	mov	r8,	&0x0874	;
    4c0e:	06 48       	mov	r8,	r6	;
    //SetPort( 0 );              /* <-- added; set port low */
      /* Int_1_Loc == 3, Int_2_Loc == 3, Int_3_Loc == 7 */
    Proc_8 (Arr_1_Glob, Arr_2_Glob, Int_1_Loc, Int_3_Loc);
      /* Int_Glob == 5 */
    Proc_1 (Ptr_Glob);
    for (Ch_Index = 'A'; Ch_Index <= Ch_2_Glob; ++Ch_Index)
    4c10:	4c 4a       	mov.b	r10,	r12	;
    4c12:	5c 53       	inc.b	r12		;
    4c14:	4a 4c       	mov.b	r12,	r10	;
    4c16:	c2 9c 77 08 	cmp.b	r12,	&0x0877	;
    4c1a:	e4 2f       	jc	$-54     	;abs 0x4be4
    4c1c:	0c 46       	mov	r6,	r12	;
    4c1e:	0c 56       	add	r6,	r12	;
    4c20:	06 5c       	add	r12,	r6	;
        Int_Glob = Run_Index;
        }
    }
      /* Int_1_Loc == 3, Int_2_Loc == 3, Int_3_Loc == 7 */
    Int_2_Loc = Int_2_Loc * Int_1_Loc;
    Int_1_Loc = Int_2_Loc / Int_3_Loc;
    4c22:	1a 41 06 00 	mov	6(r1),	r10	;
    4c26:	0c 46       	mov	r6,	r12	;
    4c28:	0d 4a       	mov	r10,	r13	;
    4c2a:	b0 12 16 51 	call	#20758		;#0x5116
  Int_Loc = *Int_Par_Ref + 10;
  do /* executed once */
    if (Ch_1_Glob == 'A')
      /* then, executed */
    {
      Int_Loc -= 1;
    4c2e:	0d 4c       	mov	r12,	r13	;
  One_Fifty  Int_Loc;
  Enumeration   Enum_Loc;

  Int_Loc = *Int_Par_Ref + 10;
  do /* executed once */
    if (Ch_1_Glob == 'A')
    4c30:	f2 90 41 00 	cmp.b	#65,	&0x0876	;#0x0041
    4c34:	76 08 
    4c36:	94 25       	jz	$+810    	;abs 0x4f60
  /***************/
 
  Begin_Time = 1;//dtime();
  START_TIME;  // Set P3[0]

  for (Run_Index = 1; Run_Index <= Number_Of_Runs; ++Run_Index )
    4c38:	18 53       	inc	r8		;
    4c3a:	38 90 65 00 	cmp	#101,	r8	;#0x0065
    4c3e:	85 23       	jnz	$-244    	;abs 0x4b4a
    4c40:	09 46       	mov	r6,	r9	;
    4c42:	06 4c       	mov	r12,	r6	;
        }
    }
      /* Int_1_Loc == 3, Int_2_Loc == 3, Int_3_Loc == 7 */
    Int_2_Loc = Int_2_Loc * Int_1_Loc;
    Int_1_Loc = Int_2_Loc / Int_3_Loc;
    Int_2_Loc = 7 * (Int_2_Loc - Int_3_Loc) - Int_1_Loc;
    4c44:	09 8a       	sub	r10,	r9	;
    4c46:	0c 49       	mov	r9,	r12	;
    4c48:	0c 59       	add	r9,	r12	;
    4c4a:	0c 5c       	rla	r12		;
    4c4c:	0c 5c       	rla	r12		;
    4c4e:	0a 4c       	mov	r12,	r10	;
    4c50:	0a 89       	sub	r9,	r10	;

  /**************/
  /* Stop timer */
  /**************/

  END_TIME;  // Clear P3[0]
    4c52:	c2 43 19 00 	mov.b	#0,	&0x0019	;r3 As==00
  End_Time = 2;//dtime();
    4c56:	82 43 6a 08 	mov	#0,	&0x086a	;r3 As==00
    4c5a:	82 43 6c 08 	mov	#0,	&0x086c	;r3 As==00
    4c5e:	82 43 6e 08 	mov	#0,	&0x086e	;r3 As==00
    4c62:	b2 40 00 40 	mov	#16384,	&0x0870	;#0x4000
    4c66:	70 08 

  printf ("Execution ends\n");
    4c68:	3c 40 5c 40 	mov	#16476,	r12	;#0x405c
    4c6c:	81 4d 04 00 	mov	r13,	4(r1)	;
    4c70:	b0 12 02 57 	call	#22274		;#0x5702
  printf ("\n");
    4c74:	3c 40 0a 00 	mov	#10,	r12	;#0x000a
    4c78:	b0 12 92 50 	call	#20626		;#0x5092
  printf ("Final values of the variables used in the benchmark:\n");
    4c7c:	3c 40 6b 40 	mov	#16491,	r12	;#0x406b
    4c80:	b0 12 02 57 	call	#22274		;#0x5702
  printf ("\n");
    4c84:	3c 40 0a 00 	mov	#10,	r12	;#0x000a
    4c88:	b0 12 92 50 	call	#20626		;#0x5092
  printf ("Int_Glob:            %d\n", Int_Glob);
    4c8c:	b1 40 a0 40 	mov	#16544,	0(r1)	;#0x40a0
    4c90:	00 00 
    4c92:	91 42 74 08 	mov	&0x0874,2(r1)	;0x0874
    4c96:	02 00 
    4c98:	b0 12 52 56 	call	#22098		;#0x5652
  printf ("        should be:   %d\n", 5);
    4c9c:	b1 40 b9 40 	mov	#16569,	0(r1)	;#0x40b9
    4ca0:	00 00 
    4ca2:	b1 40 05 00 	mov	#5,	2(r1)	;
    4ca6:	02 00 
    4ca8:	b0 12 52 56 	call	#22098		;#0x5652
  printf ("Bool_Glob:           %d\n", Bool_Glob);
    4cac:	b1 40 d2 40 	mov	#16594,	0(r1)	;#0x40d2
    4cb0:	00 00 
    4cb2:	91 42 b4 08 	mov	&0x08b4,2(r1)	;0x08b4
    4cb6:	02 00 
    4cb8:	b0 12 52 56 	call	#22098		;#0x5652
  printf ("        should be:   %d\n", 1);
    4cbc:	b1 40 b9 40 	mov	#16569,	0(r1)	;#0x40b9
    4cc0:	00 00 
    4cc2:	91 43 02 00 	mov	#1,	2(r1)	;r3 As==01
    4cc6:	b0 12 52 56 	call	#22098		;#0x5652
  printf ("Ch_1_Glob:           %c\n", Ch_1_Glob);
    4cca:	b1 40 eb 40 	mov	#16619,	0(r1)	;#0x40eb
    4cce:	00 00 
    4cd0:	5c 42 76 08 	mov.b	&0x0876,r12	;0x0876
    4cd4:	81 4c 02 00 	mov	r12,	2(r1)	;
    4cd8:	b0 12 52 56 	call	#22098		;#0x5652
  printf ("        should be:   %c\n", 'A');
    4cdc:	b1 40 04 41 	mov	#16644,	0(r1)	;#0x4104
    4ce0:	00 00 
    4ce2:	b1 40 41 00 	mov	#65,	2(r1)	;#0x0041
    4ce6:	02 00 
    4ce8:	b0 12 52 56 	call	#22098		;#0x5652
  printf ("Ch_2_Glob:           %c\n", Ch_2_Glob);
    4cec:	b1 40 1d 41 	mov	#16669,	0(r1)	;#0x411d
    4cf0:	00 00 
    4cf2:	5c 42 77 08 	mov.b	&0x0877,r12	;0x0877
    4cf6:	81 4c 02 00 	mov	r12,	2(r1)	;
    4cfa:	b0 12 52 56 	call	#22098		;#0x5652
  printf ("        should be:   %c\n", 'B');
    4cfe:	b1 40 04 41 	mov	#16644,	0(r1)	;#0x4104
    4d02:	00 00 
    4d04:	b1 40 42 00 	mov	#66,	2(r1)	;#0x0042
    4d08:	02 00 
    4d0a:	b0 12 52 56 	call	#22098		;#0x5652
  printf ("Arr_1_Glob[8]:       %d\n", Arr_1_Glob[8]);
    4d0e:	b1 40 36 41 	mov	#16694,	0(r1)	;#0x4136
    4d12:	00 00 
    4d14:	91 42 92 08 	mov	&0x0892,2(r1)	;0x0892
    4d18:	02 00 
    4d1a:	b0 12 52 56 	call	#22098		;#0x5652
  printf ("        should be:   %d\n", 7);
    4d1e:	b1 40 b9 40 	mov	#16569,	0(r1)	;#0x40b9
    4d22:	00 00 
    4d24:	b1 40 07 00 	mov	#7,	2(r1)	;
    4d28:	02 00 
    4d2a:	b0 12 52 56 	call	#22098		;#0x5652
  printf ("Arr_2_Glob[8][7]:    %d\n", Arr_2_Glob[8][7]);
    4d2e:	b1 40 4f 41 	mov	#16719,	0(r1)	;#0x414f
    4d32:	00 00 
    4d34:	91 42 26 05 	mov	&0x0526,2(r1)	;0x0526
    4d38:	02 00 
    4d3a:	b0 12 52 56 	call	#22098		;#0x5652
  printf ("        should be:   Number_Of_Runs + 10\n");
    4d3e:	3c 40 68 41 	mov	#16744,	r12	;#0x4168
    4d42:	b0 12 02 57 	call	#22274		;#0x5702
  printf ("Ptr_Glob->\n");
    4d46:	3c 40 91 41 	mov	#16785,	r12	;#0x4191
    4d4a:	b0 12 02 57 	call	#22274		;#0x5702
  printf ("  Ptr_Comp:          %d\n", (int) Ptr_Glob->Ptr_Comp);
    4d4e:	b1 40 9c 41 	mov	#16796,	0(r1)	;#0x419c
    4d52:	00 00 
    4d54:	1c 42 78 08 	mov	&0x0878,r12	;0x0878
    4d58:	a1 4c 02 00 	mov	@r12,	2(r1)	;
    4d5c:	b0 12 52 56 	call	#22098		;#0x5652
  printf ("        should be:   (implementation-dependent)\n");
    4d60:	3c 40 b5 41 	mov	#16821,	r12	;#0x41b5
    4d64:	b0 12 02 57 	call	#22274		;#0x5702
  printf ("  Discr:             %d\n", Ptr_Glob->Discr);
    4d68:	b1 40 e5 41 	mov	#16869,	0(r1)	;#0x41e5
    4d6c:	00 00 
    4d6e:	1c 42 78 08 	mov	&0x0878,r12	;0x0878
    4d72:	91 4c 02 00 	mov	2(r12),	2(r1)	;
    4d76:	02 00 
    4d78:	b0 12 52 56 	call	#22098		;#0x5652
  printf ("        should be:   %d\n", 0);
    4d7c:	b1 40 b9 40 	mov	#16569,	0(r1)	;#0x40b9
    4d80:	00 00 
    4d82:	81 43 02 00 	mov	#0,	2(r1)	;r3 As==00
    4d86:	b0 12 52 56 	call	#22098		;#0x5652
  printf ("  Enum_Comp:         %d\n", Ptr_Glob->variant.var_1.Enum_Comp);
    4d8a:	b1 40 fe 41 	mov	#16894,	0(r1)	;#0x41fe
    4d8e:	00 00 
    4d90:	1c 42 78 08 	mov	&0x0878,r12	;0x0878
    4d94:	91 4c 04 00 	mov	4(r12),	2(r1)	;
    4d98:	02 00 
    4d9a:	b0 12 52 56 	call	#22098		;#0x5652
  printf ("        should be:   %d\n", 2);
    4d9e:	b1 40 b9 40 	mov	#16569,	0(r1)	;#0x40b9
    4da2:	00 00 
    4da4:	a1 43 02 00 	mov	#2,	2(r1)	;r3 As==10
    4da8:	b0 12 52 56 	call	#22098		;#0x5652
  printf ("  Int_Comp:          %d\n", Ptr_Glob->variant.var_1.Int_Comp);
    4dac:	b1 40 17 42 	mov	#16919,	0(r1)	;#0x4217
    4db0:	00 00 
    4db2:	1c 42 78 08 	mov	&0x0878,r12	;0x0878
    4db6:	91 4c 06 00 	mov	6(r12),	2(r1)	;
    4dba:	02 00 
    4dbc:	b0 12 52 56 	call	#22098		;#0x5652
  printf ("        should be:   %d\n", 17);
    4dc0:	b1 40 b9 40 	mov	#16569,	0(r1)	;#0x40b9
    4dc4:	00 00 
    4dc6:	b1 40 11 00 	mov	#17,	2(r1)	;#0x0011
    4dca:	02 00 
    4dcc:	b0 12 52 56 	call	#22098		;#0x5652
  printf ("  Str_Comp:          %s\n", Ptr_Glob->variant.var_1.Str_Comp);
    4dd0:	b1 40 30 42 	mov	#16944,	0(r1)	;#0x4230
    4dd4:	00 00 
    4dd6:	1c 42 78 08 	mov	&0x0878,r12	;0x0878
    4dda:	3c 52       	add	#8,	r12	;r2 As==11
    4ddc:	81 4c 02 00 	mov	r12,	2(r1)	;
    4de0:	b0 12 52 56 	call	#22098		;#0x5652
  printf ("        should be:   DHRYSTONE PROGRAM, SOME STRING\n");
    4de4:	3c 40 49 42 	mov	#16969,	r12	;#0x4249
    4de8:	b0 12 02 57 	call	#22274		;#0x5702
  printf ("Next_Ptr_Glob->\n");
    4dec:	3c 40 7d 42 	mov	#17021,	r12	;#0x427d
    4df0:	b0 12 02 57 	call	#22274		;#0x5702
  printf ("  Ptr_Comp:          %d\n", (int) Next_Ptr_Glob->Ptr_Comp);
    4df4:	b1 40 9c 41 	mov	#16796,	0(r1)	;#0x419c
    4df8:	00 00 
    4dfa:	1c 42 72 08 	mov	&0x0872,r12	;0x0872
    4dfe:	a1 4c 02 00 	mov	@r12,	2(r1)	;
    4e02:	b0 12 52 56 	call	#22098		;#0x5652
  printf ("        should be:   (implementation-dependent), same as above\n");
    4e06:	3c 40 8d 42 	mov	#17037,	r12	;#0x428d
    4e0a:	b0 12 02 57 	call	#22274		;#0x5702
  printf ("  Discr:             %d\n", Next_Ptr_Glob->Discr);
    4e0e:	b1 40 e5 41 	mov	#16869,	0(r1)	;#0x41e5
    4e12:	00 00 
    4e14:	1c 42 72 08 	mov	&0x0872,r12	;0x0872
    4e18:	91 4c 02 00 	mov	2(r12),	2(r1)	;
    4e1c:	02 00 
    4e1e:	b0 12 52 56 	call	#22098		;#0x5652
  printf ("        should be:   %d\n", 0);
    4e22:	b1 40 b9 40 	mov	#16569,	0(r1)	;#0x40b9
    4e26:	00 00 
    4e28:	81 43 02 00 	mov	#0,	2(r1)	;r3 As==00
    4e2c:	b0 12 52 56 	call	#22098		;#0x5652
  printf ("  Enum_Comp:         %d\n", Next_Ptr_Glob->variant.var_1.Enum_Comp);
    4e30:	b1 40 fe 41 	mov	#16894,	0(r1)	;#0x41fe
    4e34:	00 00 
    4e36:	1c 42 72 08 	mov	&0x0872,r12	;0x0872
    4e3a:	91 4c 04 00 	mov	4(r12),	2(r1)	;
    4e3e:	02 00 
    4e40:	b0 12 52 56 	call	#22098		;#0x5652
  printf ("        should be:   %d\n", 1);
    4e44:	b1 40 b9 40 	mov	#16569,	0(r1)	;#0x40b9
    4e48:	00 00 
    4e4a:	91 43 02 00 	mov	#1,	2(r1)	;r3 As==01
    4e4e:	b0 12 52 56 	call	#22098		;#0x5652
  printf ("  Int_Comp:          %d\n", Next_Ptr_Glob->variant.var_1.Int_Comp);
    4e52:	b1 40 17 42 	mov	#16919,	0(r1)	;#0x4217
    4e56:	00 00 
    4e58:	1c 42 72 08 	mov	&0x0872,r12	;0x0872
    4e5c:	91 4c 06 00 	mov	6(r12),	2(r1)	;
    4e60:	02 00 
    4e62:	b0 12 52 56 	call	#22098		;#0x5652
  printf ("        should be:   %d\n", 18);
    4e66:	b1 40 b9 40 	mov	#16569,	0(r1)	;#0x40b9
    4e6a:	00 00 
    4e6c:	b1 40 12 00 	mov	#18,	2(r1)	;#0x0012
    4e70:	02 00 
    4e72:	b0 12 52 56 	call	#22098		;#0x5652
  printf ("  Str_Comp:          %s\n", Next_Ptr_Glob->variant.var_1.Str_Comp);
    4e76:	b1 40 30 42 	mov	#16944,	0(r1)	;#0x4230
    4e7a:	00 00 
    4e7c:	1c 42 72 08 	mov	&0x0872,r12	;0x0872
    4e80:	3c 52       	add	#8,	r12	;r2 As==11
    4e82:	81 4c 02 00 	mov	r12,	2(r1)	;
    4e86:	b0 12 52 56 	call	#22098		;#0x5652
  printf ("        should be:   DHRYSTONE PROGRAM, SOME STRING\n");
    4e8a:	3c 40 49 42 	mov	#16969,	r12	;#0x4249
    4e8e:	b0 12 02 57 	call	#22274		;#0x5702
  printf ("Int_1_Loc:           %d\n", Int_1_Loc);
    4e92:	b1 40 cc 42 	mov	#17100,	0(r1)	;#0x42cc
    4e96:	00 00 
    4e98:	1d 41 04 00 	mov	4(r1),	r13	;
    4e9c:	81 4d 02 00 	mov	r13,	2(r1)	;
    4ea0:	b0 12 52 56 	call	#22098		;#0x5652
  printf ("        should be:   %d\n", 5);
    4ea4:	b1 40 b9 40 	mov	#16569,	0(r1)	;#0x40b9
    4ea8:	00 00 
    4eaa:	b1 40 05 00 	mov	#5,	2(r1)	;
    4eae:	02 00 
    4eb0:	b0 12 52 56 	call	#22098		;#0x5652
  printf ("Int_2_Loc:           %d\n", Int_2_Loc);
    4eb4:	b1 40 e5 42 	mov	#17125,	0(r1)	;#0x42e5
    4eb8:	00 00 
    4eba:	0a 86       	sub	r6,	r10	;
    4ebc:	81 4a 02 00 	mov	r10,	2(r1)	;
    4ec0:	b0 12 52 56 	call	#22098		;#0x5652
  printf ("        should be:   %d\n", 13);
    4ec4:	b1 40 b9 40 	mov	#16569,	0(r1)	;#0x40b9
    4ec8:	00 00 
    4eca:	b1 40 0d 00 	mov	#13,	2(r1)	;#0x000d
    4ece:	02 00 
    4ed0:	b0 12 52 56 	call	#22098		;#0x5652
  printf ("Int_3_Loc:           %d\n", Int_3_Loc);
    4ed4:	b1 40 fe 42 	mov	#17150,	0(r1)	;#0x42fe
    4ed8:	00 00 
    4eda:	91 41 06 00 	mov	6(r1),	2(r1)	;
    4ede:	02 00 
    4ee0:	b0 12 52 56 	call	#22098		;#0x5652
  printf ("        should be:   %d\n", 7);
    4ee4:	b1 40 b9 40 	mov	#16569,	0(r1)	;#0x40b9
    4ee8:	00 00 
    4eea:	b1 40 07 00 	mov	#7,	2(r1)	;
    4eee:	02 00 
    4ef0:	b0 12 52 56 	call	#22098		;#0x5652
  printf ("Enum_Loc:            %d\n", Enum_Loc);
    4ef4:	b1 40 17 43 	mov	#17175,	0(r1)	;#0x4317
    4ef8:	00 00 
    4efa:	91 41 08 00 	mov	8(r1),	2(r1)	;
    4efe:	02 00 
    4f00:	b0 12 52 56 	call	#22098		;#0x5652
  printf ("        should be:   %d\n", 1);
    4f04:	b1 40 b9 40 	mov	#16569,	0(r1)	;#0x40b9
    4f08:	00 00 
    4f0a:	91 43 02 00 	mov	#1,	2(r1)	;r3 As==01
    4f0e:	b0 12 52 56 	call	#22098		;#0x5652
  printf ("Str_1_Loc:           %s\n", Str_1_Loc);
    4f12:	b1 40 30 43 	mov	#17200,	0(r1)	;#0x4330
    4f16:	00 00 
    4f18:	3c 40 0a 00 	mov	#10,	r12	;#0x000a
    4f1c:	0c 51       	add	r1,	r12	;
    4f1e:	81 4c 02 00 	mov	r12,	2(r1)	;
    4f22:	b0 12 52 56 	call	#22098		;#0x5652
  printf ("        should be:   DHRYSTONE PROGRAM, 1'ST STRING\n");
    4f26:	3c 40 49 43 	mov	#17225,	r12	;#0x4349
    4f2a:	b0 12 02 57 	call	#22274		;#0x5702
  printf ("Str_2_Loc:           %s\n", Str_2_Loc);
    4f2e:	b1 40 7d 43 	mov	#17277,	0(r1)	;#0x437d
    4f32:	00 00 
    4f34:	3c 40 29 00 	mov	#41,	r12	;#0x0029
    4f38:	0c 51       	add	r1,	r12	;
    4f3a:	81 4c 02 00 	mov	r12,	2(r1)	;
    4f3e:	b0 12 52 56 	call	#22098		;#0x5652
  printf ("        should be:   DHRYSTONE PROGRAM, 2'ND STRING\n");
    4f42:	3c 40 96 43 	mov	#17302,	r12	;#0x4396
    4f46:	b0 12 02 57 	call	#22274		;#0x5702
  printf ("\n");
    4f4a:	3c 40 0a 00 	mov	#10,	r12	;#0x000a
    4f4e:	b0 12 92 50 	call	#20626		;#0x5092
  fprintf(Ap,"VAX MIPS rating: %10.3lf\n",Vax_Mips);
  fclose(Ap);
  
  }
  */
  DHRYSTONE_DONE;  
    4f52:	d2 43 1d 00 	mov.b	#1,	&0x001d	;r3 As==01
  return ( 0 );
}
    4f56:	0c 43       	clr	r12		;
    4f58:	31 50 48 00 	add	#72,	r1	;#0x0048
    4f5c:	30 40 a4 51 	br	#0x51a4		;
  Int_Loc = *Int_Par_Ref + 10;
  do /* executed once */
    if (Ch_1_Glob == 'A')
      /* then, executed */
    {
      Int_Loc -= 1;
    4f60:	3d 50 09 00 	add	#9,	r13	;
      *Int_Par_Ref = Int_Loc - Int_Glob;
    4f64:	1d 82 74 08 	sub	&0x0874,r13	;0x0874
    4f68:	30 40 38 4c 	br	#0x4c38		;
    //SetPort( 0 );              /* <-- added; set port low */
      /* Int_1_Loc == 3, Int_2_Loc == 3, Int_3_Loc == 7 */
    Proc_8 (Arr_1_Glob, Arr_2_Glob, Int_1_Loc, Int_3_Loc);
      /* Int_Glob == 5 */
    Proc_1 (Ptr_Glob);
    for (Ch_Index = 'A'; Ch_Index <= Ch_2_Glob; ++Ch_Index)
    4f6c:	36 40 09 00 	mov	#9,	r6	;
    4f70:	30 40 22 4c 	br	#0x4c22		;

00004f74 <Proc_4>:
/*******/
    /* executed once */
{
  Boolean Bool_Loc;

  Bool_Loc = Ch_1_Glob == 'A';
    4f74:	5c 42 76 08 	mov.b	&0x0876,r12	;0x0876
    4f78:	7c e0 41 00 	xor.b	#65,	r12	;#0x0041
    4f7c:	3c f0 ff 00 	and	#255,	r12	;#0x00ff
    4f80:	3c 53       	add	#-1,	r12	;r3 As==11
    4f82:	b0 12 b4 51 	call	#20916		;#0x51b4
  Bool_Glob = Bool_Loc | Bool_Glob;
    4f86:	82 dc b4 08 	bis	r12,	&0x08b4	;
  Ch_2_Glob = 'B';
    4f8a:	f2 40 42 00 	mov.b	#66,	&0x0877	;#0x0042
    4f8e:	77 08 
} /* Proc_4 */
    4f90:	30 41       	ret			

00004f92 <Proc_5>:

void Proc_5( void ) /* without parameters */
/*******/
    /* executed once */
{
  Ch_1_Glob = 'A';
    4f92:	f2 40 41 00 	mov.b	#65,	&0x0876	;#0x0041
    4f96:	76 08 
  Bool_Glob = false;
    4f98:	82 43 b4 08 	mov	#0,	&0x08b4	;r3 As==00
} /* Proc_5 */
    4f9c:	30 41       	ret			

00004f9e <Proc_6>:
    /* Enum_Par_Val == Ident_3 */
{
  Enumeration Enum_Loc;

  Enum_Loc = Enum_Par_Val;
  if (Enum_Loc == Ident_3)
    4f9e:	2c 93       	cmp	#2,	r12	;r3 As==10
    4fa0:	0f 24       	jz	$+32     	;abs 0x4fc0
    /* Enum_Val_Par == Ident_3, Enum_Ref_Par becomes Ident_2 */
{
  *Enum_Ref_Par = Enum_Val_Par;
  if (! Func_3 (Enum_Val_Par))
    /* then, not executed */
    *Enum_Ref_Par = Ident_4;
    4fa2:	bd 40 03 00 	mov	#3,	0(r13)	;
    4fa6:	00 00 
  switch (Enum_Val_Par)
    4fa8:	1c 93       	cmp	#1,	r12	;r3 As==01
    4faa:	0d 24       	jz	$+28     	;abs 0x4fc6
    4fac:	0c 93       	cmp	#0,	r12	;r3 As==00
    4fae:	05 24       	jz	$+12     	;abs 0x4fba
    4fb0:	2c 92       	cmp	#4,	r12	;r2 As==10
    4fb2:	02 20       	jnz	$+6      	;abs 0x4fb8
    case Ident_3: /* executed */
      *Enum_Ref_Par = Ident_2;
      break;
    case Ident_4: break;
    case Ident_5: 
      *Enum_Ref_Par = Ident_3;
    4fb4:	ad 43 00 00 	mov	#2,	0(r13)	;r3 As==10
      break;
  } /* switch */
} /* Proc_6 */
    4fb8:	30 41       	ret			
    /* then, not executed */
    *Enum_Ref_Par = Ident_4;
  switch (Enum_Val_Par)
  {
    case Ident_1: 
      *Enum_Ref_Par = Ident_1;
    4fba:	8d 4c 00 00 	mov	r12,	0(r13)	;
    case Ident_4: break;
    case Ident_5: 
      *Enum_Ref_Par = Ident_3;
      break;
  } /* switch */
} /* Proc_6 */
    4fbe:	30 41       	ret			
        /* then */
      *Enum_Ref_Par = Ident_1;
      else *Enum_Ref_Par = Ident_4;
      break;
    case Ident_3: /* executed */
      *Enum_Ref_Par = Ident_2;
    4fc0:	9d 43 00 00 	mov	#1,	0(r13)	;r3 As==01
    case Ident_4: break;
    case Ident_5: 
      *Enum_Ref_Par = Ident_3;
      break;
  } /* switch */
} /* Proc_6 */
    4fc4:	30 41       	ret			
  {
    case Ident_1: 
      *Enum_Ref_Par = Ident_1;
      break;
    case Ident_2: 
      if (Int_Glob > 100)
    4fc6:	3c 40 64 00 	mov	#100,	r12	;#0x0064
    4fca:	1c 92 74 08 	cmp	&0x0874,r12	;0x0874
    4fce:	f4 37       	jge	$-22     	;abs 0x4fb8
        /* then */
      *Enum_Ref_Par = Ident_1;
    4fd0:	8d 43 00 00 	mov	#0,	0(r13)	;r3 As==00
    case Ident_4: break;
    case Ident_5: 
      *Enum_Ref_Par = Ident_3;
      break;
  } /* switch */
} /* Proc_6 */
    4fd4:	30 41       	ret			

00004fd6 <Proc_7>:
    /* third call:      Int_1_Par_Val == 6, Int_2_Par_Val == 10, */
    /*                  Int_Par_Ref becomes 18                   */
{
  One_Fifty Int_Loc;

  Int_Loc = Int_1_Par_Val + 2;
    4fd6:	2c 53       	incd	r12		;
  *Int_Par_Ref = Int_2_Par_Val + Int_Loc;
    4fd8:	0d 5c       	add	r12,	r13	;
    4fda:	8e 4d 00 00 	mov	r13,	0(r14)	;
} /* Proc_7 */
    4fde:	30 41       	ret			

00004fe0 <Proc_8>:
                                          int Int_1_Par_Val, int Int_2_Par_Val )
/*********************************************************************/
    /* executed once      */
    /* Int_Par_Val_1 == 3 */
    /* Int_Par_Val_2 == 7 */
{
    4fe0:	0a 12       	push	r10		;
    4fe2:	09 12       	push	r9		;
    4fe4:	08 12       	push	r8		;
    4fe6:	07 12       	push	r7		;
    4fe8:	08 4d       	mov	r13,	r8	;
    4fea:	0a 4e       	mov	r14,	r10	;
  REG One_Fifty Int_Index;
  REG One_Fifty Int_Loc;

  Int_Loc = Int_1_Par_Val + 5;
    4fec:	07 4e       	mov	r14,	r7	;
    4fee:	37 50 05 00 	add	#5,	r7	;
  Arr_1_Par_Ref [Int_Loc] = Int_2_Par_Val;
    4ff2:	09 47       	mov	r7,	r9	;
    4ff4:	09 57       	add	r7,	r9	;
    4ff6:	09 5c       	add	r12,	r9	;
    4ff8:	89 4f 00 00 	mov	r15,	0(r9)	;
  Arr_1_Par_Ref [Int_Loc+1] = Arr_1_Par_Ref [Int_Loc];
    4ffc:	89 4f 02 00 	mov	r15,	2(r9)	;
  Arr_1_Par_Ref [Int_Loc+15] = Int_Loc;
    5000:	89 47 1e 00 	mov	r7,	30(r9)	; 0x001e
    5004:	0c 47       	mov	r7,	r12	;
    5006:	3d 40 32 00 	mov	#50,	r13	;#0x0032
    500a:	b0 12 68 52 	call	#21096		;#0x5268
    500e:	0a 5a       	rla	r10		;
    5010:	0f 4a       	mov	r10,	r15	;
    5012:	0f 5c       	add	r12,	r15	;
    5014:	0f 58       	add	r8,	r15	;
  for (Int_Index = Int_Loc; Int_Index <= Int_Loc+1; ++Int_Index)
    Arr_2_Par_Ref [Int_Loc] [Int_Index] = Int_Loc;
    5016:	8f 47 0a 00 	mov	r7,	10(r15)	; 0x000a
    501a:	8f 47 0c 00 	mov	r7,	12(r15)	; 0x000c
  Arr_2_Par_Ref [Int_Loc] [Int_Loc-1] += 1;
    501e:	9f 53 08 00 	inc	8(r15)		;
  Arr_2_Par_Ref [Int_Loc+10] [Int_Loc] = Arr_1_Par_Ref [Int_Loc];
    5022:	3c 50 f4 01 	add	#500,	r12	;#0x01f4
    5026:	0c 58       	add	r8,	r12	;
    5028:	0a 5c       	add	r12,	r10	;
    502a:	aa 49 0a 00 	mov	@r9,	10(r10)	; 0x000a
  Int_Glob = 5;
    502e:	b2 40 05 00 	mov	#5,	&0x0874	;
    5032:	74 08 
} /* Proc_8 */
    5034:	30 40 aa 51 	br	#0x51aa		;

00005038 <Func_1>:
/*************************************************/
    /* executed three times                                         */
    /* first call:      Ch_1_Par_Val == 'H', Ch_2_Par_Val == 'R'    */
    /* second call:     Ch_1_Par_Val == 'A', Ch_2_Par_Val == 'C'    */
    /* third call:      Ch_1_Par_Val == 'B', Ch_2_Par_Val == 'C'    */
{
    5038:	3c f0 ff 00 	and	#255,	r12	;#0x00ff
  Capital_Letter        Ch_1_Loc;
  Capital_Letter        Ch_2_Loc;

  Ch_1_Loc = Ch_1_Par_Val;
  Ch_2_Loc = Ch_1_Loc;
  if (Ch_2_Loc != Ch_2_Par_Val)
    503c:	4d 9c       	cmp.b	r12,	r13	;
    503e:	02 24       	jz	$+6      	;abs 0x5044
    /* then, executed */
    return (Ident_1);
    5040:	0c 43       	clr	r12		;
  else  /* not executed */
  {
    Ch_1_Glob = Ch_1_Loc;
    return (Ident_2);
   }
} /* Func_1 */
    5042:	30 41       	ret			
  if (Ch_2_Loc != Ch_2_Par_Val)
    /* then, executed */
    return (Ident_1);
  else  /* not executed */
  {
    Ch_1_Glob = Ch_1_Loc;
    5044:	c2 4c 76 08 	mov.b	r12,	&0x0876	;
    return (Ident_2);
    5048:	1c 43       	mov	#1,	r12	;r3 As==01
   }
} /* Func_1 */
    504a:	30 41       	ret			

0000504c <Func_2>:
Boolean Func_2( Str_30 Str_1_Par_Ref, Str_30 Str_2_Par_Ref )
/*************************************************/
    /* executed once */
    /* Str_1_Par_Ref == "DHRYSTONE PROGRAM, 1'ST STRING" */
    /* Str_2_Par_Ref == "DHRYSTONE PROGRAM, 2'ND STRING" */
{
    504c:	0a 12       	push	r10		;
    504e:	5a 4c 02 00 	mov.b	2(r12),	r10	;
    5052:	5f 4d 03 00 	mov.b	3(r13),	r15	;
    5056:	5b 42 76 08 	mov.b	&0x0876,r11	;0x0876
  Capital_Letter        Ch_1_Loc;
  Capital_Letter        Ch_2_Loc;

  Ch_1_Loc = Ch_1_Par_Val;
  Ch_2_Loc = Ch_1_Loc;
  if (Ch_2_Loc != Ch_2_Par_Val)
    505a:	4e 4a       	mov.b	r10,	r14	;
    505c:	4e 9f       	cmp.b	r15,	r14	;
    505e:	0d 24       	jz	$+28     	;abs 0x507a
    5060:	c2 4b 76 08 	mov.b	r11,	&0x0876	;
  if (Ch_Loc == 'R')
    /* then, not executed */
    return (true);
  else /* executed */
  {
    if (strcmp (Str_1_Par_Ref, Str_2_Par_Ref) > 0)
    5064:	b0 12 30 57 	call	#22320		;#0x5730
    5068:	0d 43       	clr	r13		;
    506a:	0d 9c       	cmp	r12,	r13	;
    506c:	09 34       	jge	$+20     	;abs 0x5080
      /* then, not executed */
    {
      Int_Loc += 7;
      Int_Glob = Int_Loc;
    506e:	b2 40 0a 00 	mov	#10,	&0x0874	;#0x000a
    5072:	74 08 
      return (true);
    5074:	1c 43       	mov	#1,	r12	;r3 As==01
    }
    else /* executed */
      return (false);
  } /* if Ch_Loc */
} /* Func_2 */
    5076:	3a 41       	pop	r10		;
    5078:	30 41       	ret			
  Capital_Letter        Ch_1_Loc;
  Capital_Letter        Ch_2_Loc;

  Ch_1_Loc = Ch_1_Par_Val;
  Ch_2_Loc = Ch_1_Loc;
  if (Ch_2_Loc != Ch_2_Par_Val)
    507a:	0b 4a       	mov	r10,	r11	;
    507c:	30 40 5c 50 	br	#0x505c		;
      Int_Loc += 7;
      Int_Glob = Int_Loc;
      return (true);
    }
    else /* executed */
      return (false);
    5080:	0c 4d       	mov	r13,	r12	;
  } /* if Ch_Loc */
} /* Func_2 */
    5082:	3a 41       	pop	r10		;
    5084:	30 41       	ret			

00005086 <Func_3>:
    /* Enum_Par_Val == Ident_3 */
{
  Enumeration Enum_Loc;

  Enum_Loc = Enum_Par_Val;
  if (Enum_Loc == Ident_3)
    5086:	1d 43       	mov	#1,	r13	;r3 As==01
    5088:	2c 93       	cmp	#2,	r12	;r3 As==10
    508a:	01 24       	jz	$+4      	;abs 0x508e
    508c:	0d 43       	clr	r13		;
    /* then, executed */
    return (true);
  else /* not executed */
    return (false);
} /* Func_3 */
    508e:	0c 4d       	mov	r13,	r12	;
    5090:	30 41       	ret			

00005092 <putchar>:
//            (Send a byte to the Port-1)           //
//--------------------------------------------------//
int putchar (int txdata) {

  // Write the output character to the Port-1
  P1OUT  = txdata;
    5092:	c2 4c 21 00 	mov.b	r12,	&0x0021	;

  // Toggle Port-2[0] to signal new byte
  P2OUT ^= 0x01;
    5096:	d2 e3 29 00 	xor.b	#1,	&0x0029	;r3 As==01

  return 0;
}
    509a:	0c 43       	clr	r12		;
    509c:	30 41       	ret			

0000509e <__data_move>:
static void* const datastart=&__datastart;
static void* const romdatastart=&__romdatastart;
static uint16_t const romdatacopysize=(uint16_t)&__romdatacopysize;

__attribute__((constructor)) void __data_move() {
        if (datastart!=romdatastart) {
    509e:	3c 40 00 02 	mov	#512,	r12	;#0x0200
    50a2:	3c 90 e0 db 	cmp	#56288,	r12	;#0xdbe0
    50a6:	06 24       	jz	$+14     	;abs 0x50b4
                memmove(datastart,romdatastart,romdatacopysize);
    50a8:	3d 40 e0 db 	mov	#56288,	r13	;#0xdbe0
    50ac:	1e 42 08 44 	mov	&0x4408,r14	;0x4408
    50b0:	b0 12 18 54 	call	#21528		;#0x5418
        }
}
    50b4:	30 41       	ret			

000050b6 <udivmodhi4>:
    50b6:	0a 12       	push	r10		;
    50b8:	09 12       	push	r9		;
    50ba:	08 12       	push	r8		;
    50bc:	07 12       	push	r7		;
    50be:	06 12       	push	r6		;
    50c0:	09 4c       	mov	r12,	r9	;
    50c2:	0a 4d       	mov	r13,	r10	;
    50c4:	06 4e       	mov	r14,	r6	;
    50c6:	3c 40 11 00 	mov	#17,	r12	;#0x0011
    50ca:	18 43       	mov	#1,	r8	;r3 As==01
    50cc:	0a 99       	cmp	r9,	r10	;
    50ce:	0a 2c       	jc	$+22     	;abs 0x50e4
    50d0:	3c 53       	add	#-1,	r12	;r3 As==11
    50d2:	0c 93       	cmp	#0,	r12	;r3 As==00
    50d4:	06 24       	jz	$+14     	;abs 0x50e2
    50d6:	0a 93       	cmp	#0,	r10	;r3 As==00
    50d8:	05 38       	jl	$+12     	;abs 0x50e4
    50da:	0a 5a       	rla	r10		;
    50dc:	08 58       	rla	r8		;
    50de:	30 40 cc 50 	br	#0x50cc		;
    50e2:	08 4c       	mov	r12,	r8	;
    50e4:	07 43       	clr	r7		;
    50e6:	08 93       	cmp	#0,	r8	;r3 As==00
    50e8:	0e 24       	jz	$+30     	;abs 0x5106
    50ea:	09 9a       	cmp	r10,	r9	;
    50ec:	02 28       	jnc	$+6      	;abs 0x50f2
    50ee:	09 8a       	sub	r10,	r9	;
    50f0:	07 d8       	bis	r8,	r7	;
    50f2:	0c 48       	mov	r8,	r12	;
    50f4:	b0 12 ec 51 	call	#20972		;#0x51ec
    50f8:	08 4c       	mov	r12,	r8	;
    50fa:	0c 4a       	mov	r10,	r12	;
    50fc:	b0 12 ec 51 	call	#20972		;#0x51ec
    5100:	0a 4c       	mov	r12,	r10	;
    5102:	30 40 e6 50 	br	#0x50e6		;
    5106:	06 93       	cmp	#0,	r6	;r3 As==00
    5108:	03 20       	jnz	$+8      	;abs 0x5110
    510a:	0c 47       	mov	r7,	r12	;
    510c:	30 40 12 51 	br	#0x5112		;
    5110:	0c 49       	mov	r9,	r12	;
    5112:	30 40 a8 51 	br	#0x51a8		;

00005116 <__mspabi_divi>:
    5116:	0a 12       	push	r10		;
    5118:	0e 4c       	mov	r12,	r14	;
    511a:	0f 4d       	mov	r13,	r15	;
    511c:	3b 40 b6 50 	mov	#20662,	r11	;#0x50b6
    5120:	0c 93       	cmp	#0,	r12	;r3 As==00
    5122:	08 34       	jge	$+18     	;abs 0x5134
    5124:	0c 43       	clr	r12		;
    5126:	0c 8e       	sub	r14,	r12	;
    5128:	0e 4c       	mov	r12,	r14	;
    512a:	0d 93       	cmp	#0,	r13	;r3 As==00
    512c:	12 34       	jge	$+38     	;abs 0x5152
    512e:	1a 43       	mov	#1,	r10	;r3 As==01
    5130:	30 40 3a 51 	br	#0x513a		;
    5134:	0d 93       	cmp	#0,	r13	;r3 As==00
    5136:	11 34       	jge	$+36     	;abs 0x515a
    5138:	0a 43       	clr	r10		;
    513a:	0d 43       	clr	r13		;
    513c:	0d 8f       	sub	r15,	r13	;
    513e:	0c 4e       	mov	r14,	r12	;
    5140:	0e 43       	clr	r14		;
    5142:	8b 12       	call	r11		;
    5144:	1a 93       	cmp	#1,	r10	;r3 As==01
    5146:	0b 24       	jz	$+24     	;abs 0x515e
    5148:	0d 43       	clr	r13		;
    514a:	0d 8c       	sub	r12,	r13	;
    514c:	0c 4d       	mov	r13,	r12	;
    514e:	30 40 5e 51 	br	#0x515e		;
    5152:	0e 43       	clr	r14		;
    5154:	8b 12       	call	r11		;
    5156:	30 40 48 51 	br	#0x5148		;
    515a:	0e 43       	clr	r14		;
    515c:	8b 12       	call	r11		;
    515e:	3a 41       	pop	r10		;
    5160:	30 41       	ret			

00005162 <__mspabi_remi>:
    5162:	0a 12       	push	r10		;
    5164:	0c 93       	cmp	#0,	r12	;r3 As==00
    5166:	06 34       	jge	$+14     	;abs 0x5174
    5168:	0e 43       	clr	r14		;
    516a:	0e 8c       	sub	r12,	r14	;
    516c:	0c 4e       	mov	r14,	r12	;
    516e:	1a 43       	mov	#1,	r10	;r3 As==01
    5170:	30 40 76 51 	br	#0x5176		;
    5174:	0a 43       	clr	r10		;
    5176:	0d 93       	cmp	#0,	r13	;r3 As==00
    5178:	03 34       	jge	$+8      	;abs 0x5180
    517a:	0e 43       	clr	r14		;
    517c:	0e 8d       	sub	r13,	r14	;
    517e:	0d 4e       	mov	r14,	r13	;
    5180:	1e 43       	mov	#1,	r14	;r3 As==01
    5182:	b0 12 b6 50 	call	#20662		;#0x50b6
    5186:	0a 93       	cmp	#0,	r10	;r3 As==00
    5188:	03 24       	jz	$+8      	;abs 0x5190
    518a:	0d 43       	clr	r13		;
    518c:	0d 8c       	sub	r12,	r13	;
    518e:	0c 4d       	mov	r13,	r12	;
    5190:	3a 41       	pop	r10		;
    5192:	30 41       	ret			

00005194 <__mspabi_divu>:
    5194:	0e 43       	clr	r14		;
    5196:	b0 12 b6 50 	call	#20662		;#0x50b6
    519a:	30 41       	ret			

0000519c <__mspabi_remu>:
    519c:	1e 43       	mov	#1,	r14	;r3 As==01
    519e:	b0 12 b6 50 	call	#20662		;#0x50b6
    51a2:	30 41       	ret			

000051a4 <__mspabi_func_epilog_7>:
    51a4:	34 41       	pop	r4		;

000051a6 <__mspabi_func_epilog_6>:
    51a6:	35 41       	pop	r5		;

000051a8 <__mspabi_func_epilog_5>:
    51a8:	36 41       	pop	r6		;

000051aa <__mspabi_func_epilog_4>:
    51aa:	37 41       	pop	r7		;

000051ac <__mspabi_func_epilog_3>:
    51ac:	38 41       	pop	r8		;

000051ae <__mspabi_func_epilog_2>:
    51ae:	39 41       	pop	r9		;

000051b0 <__mspabi_func_epilog_1>:
    51b0:	3a 41       	pop	r10		;
    51b2:	30 41       	ret			

000051b4 <__mspabi_srli_15>:
    51b4:	12 c3       	clrc			
    51b6:	0c 10       	rrc	r12		;

000051b8 <__mspabi_srli_14>:
    51b8:	12 c3       	clrc			
    51ba:	0c 10       	rrc	r12		;

000051bc <__mspabi_srli_13>:
    51bc:	12 c3       	clrc			
    51be:	0c 10       	rrc	r12		;

000051c0 <__mspabi_srli_12>:
    51c0:	12 c3       	clrc			
    51c2:	0c 10       	rrc	r12		;

000051c4 <__mspabi_srli_11>:
    51c4:	12 c3       	clrc			
    51c6:	0c 10       	rrc	r12		;

000051c8 <__mspabi_srli_10>:
    51c8:	12 c3       	clrc			
    51ca:	0c 10       	rrc	r12		;

000051cc <__mspabi_srli_9>:
    51cc:	12 c3       	clrc			
    51ce:	0c 10       	rrc	r12		;

000051d0 <__mspabi_srli_8>:
    51d0:	12 c3       	clrc			
    51d2:	0c 10       	rrc	r12		;

000051d4 <__mspabi_srli_7>:
    51d4:	12 c3       	clrc			
    51d6:	0c 10       	rrc	r12		;

000051d8 <__mspabi_srli_6>:
    51d8:	12 c3       	clrc			
    51da:	0c 10       	rrc	r12		;

000051dc <__mspabi_srli_5>:
    51dc:	12 c3       	clrc			
    51de:	0c 10       	rrc	r12		;

000051e0 <__mspabi_srli_4>:
    51e0:	12 c3       	clrc			
    51e2:	0c 10       	rrc	r12		;

000051e4 <__mspabi_srli_3>:
    51e4:	12 c3       	clrc			
    51e6:	0c 10       	rrc	r12		;

000051e8 <__mspabi_srli_2>:
    51e8:	12 c3       	clrc			
    51ea:	0c 10       	rrc	r12		;

000051ec <__mspabi_srli_1>:
    51ec:	12 c3       	clrc			
    51ee:	0c 10       	rrc	r12		;
    51f0:	30 41       	ret			
    51f2:	3d 53       	add	#-1,	r13	;r3 As==11
    51f4:	12 c3       	clrc			
    51f6:	0c 10       	rrc	r12		;

000051f8 <__mspabi_srli>:
    51f8:	0d 93       	cmp	#0,	r13	;r3 As==00
    51fa:	fb 23       	jnz	$-8      	;abs 0x51f2
    51fc:	30 41       	ret			

000051fe <__mspabi_srll_15>:
    51fe:	12 c3       	clrc			
    5200:	0d 10       	rrc	r13		;
    5202:	0c 10       	rrc	r12		;

00005204 <__mspabi_srll_14>:
    5204:	12 c3       	clrc			
    5206:	0d 10       	rrc	r13		;
    5208:	0c 10       	rrc	r12		;

0000520a <__mspabi_srll_13>:
    520a:	12 c3       	clrc			
    520c:	0d 10       	rrc	r13		;
    520e:	0c 10       	rrc	r12		;

00005210 <__mspabi_srll_12>:
    5210:	12 c3       	clrc			
    5212:	0d 10       	rrc	r13		;
    5214:	0c 10       	rrc	r12		;

00005216 <__mspabi_srll_11>:
    5216:	12 c3       	clrc			
    5218:	0d 10       	rrc	r13		;
    521a:	0c 10       	rrc	r12		;

0000521c <__mspabi_srll_10>:
    521c:	12 c3       	clrc			
    521e:	0d 10       	rrc	r13		;
    5220:	0c 10       	rrc	r12		;

00005222 <__mspabi_srll_9>:
    5222:	12 c3       	clrc			
    5224:	0d 10       	rrc	r13		;
    5226:	0c 10       	rrc	r12		;

00005228 <__mspabi_srll_8>:
    5228:	12 c3       	clrc			
    522a:	0d 10       	rrc	r13		;
    522c:	0c 10       	rrc	r12		;

0000522e <__mspabi_srll_7>:
    522e:	12 c3       	clrc			
    5230:	0d 10       	rrc	r13		;
    5232:	0c 10       	rrc	r12		;

00005234 <__mspabi_srll_6>:
    5234:	12 c3       	clrc			
    5236:	0d 10       	rrc	r13		;
    5238:	0c 10       	rrc	r12		;

0000523a <__mspabi_srll_5>:
    523a:	12 c3       	clrc			
    523c:	0d 10       	rrc	r13		;
    523e:	0c 10       	rrc	r12		;

00005240 <__mspabi_srll_4>:
    5240:	12 c3       	clrc			
    5242:	0d 10       	rrc	r13		;
    5244:	0c 10       	rrc	r12		;

00005246 <__mspabi_srll_3>:
    5246:	12 c3       	clrc			
    5248:	0d 10       	rrc	r13		;
    524a:	0c 10       	rrc	r12		;

0000524c <__mspabi_srll_2>:
    524c:	12 c3       	clrc			
    524e:	0d 10       	rrc	r13		;
    5250:	0c 10       	rrc	r12		;

00005252 <__mspabi_srll_1>:
    5252:	12 c3       	clrc			
    5254:	0d 10       	rrc	r13		;
    5256:	0c 10       	rrc	r12		;
    5258:	30 41       	ret			
    525a:	3e 53       	add	#-1,	r14	;r3 As==11
    525c:	12 c3       	clrc			
    525e:	0d 10       	rrc	r13		;
    5260:	0c 10       	rrc	r12		;

00005262 <__mspabi_srll>:
    5262:	0e 93       	cmp	#0,	r14	;r3 As==00
    5264:	fa 23       	jnz	$-10     	;abs 0x525a
    5266:	30 41       	ret			

00005268 <__mulhi2>:
    5268:	02 12       	push	r2		;
    526a:	32 c2       	dint			
    526c:	03 43       	nop			
    526e:	82 4c 30 01 	mov	r12,	&0x0130	;
    5272:	82 4d 38 01 	mov	r13,	&0x0138	;
    5276:	1c 42 3a 01 	mov	&0x013a,r12	;0x013a
    527a:	00 13       	reti			

0000527c <__mulsihi2>:
    527c:	02 12       	push	r2		;
    527e:	32 c2       	dint			
    5280:	03 43       	nop			
    5282:	82 4c 32 01 	mov	r12,	&0x0132	;
    5286:	82 4d 38 01 	mov	r13,	&0x0138	;
    528a:	1c 42 3a 01 	mov	&0x013a,r12	;0x013a
    528e:	1d 42 3c 01 	mov	&0x013c,r13	;0x013c
    5292:	00 13       	reti			

00005294 <__umulsihi2>:
    5294:	02 12       	push	r2		;
    5296:	32 c2       	dint			
    5298:	03 43       	nop			
    529a:	82 4c 30 01 	mov	r12,	&0x0130	;
    529e:	82 4d 38 01 	mov	r13,	&0x0138	;
    52a2:	1c 42 3a 01 	mov	&0x013a,r12	;0x013a
    52a6:	1d 42 3c 01 	mov	&0x013c,r13	;0x013c
    52aa:	00 13       	reti			

000052ac <__mulsi2>:
    52ac:	02 12       	push	r2		;
    52ae:	32 c2       	dint			
    52b0:	03 43       	nop			
    52b2:	82 4c 30 01 	mov	r12,	&0x0130	;
    52b6:	82 4e 38 01 	mov	r14,	&0x0138	;
    52ba:	82 4c 34 01 	mov	r12,	&0x0134	;
    52be:	1c 42 3a 01 	mov	&0x013a,r12	;0x013a
    52c2:	92 42 3c 01 	mov	&0x013c,&0x013a	;0x013c
    52c6:	3a 01 
    52c8:	82 4f 38 01 	mov	r15,	&0x0138	;
    52cc:	82 4d 34 01 	mov	r13,	&0x0134	;
    52d0:	82 4e 38 01 	mov	r14,	&0x0138	;
    52d4:	1d 42 3a 01 	mov	&0x013a,r13	;0x013a
    52d8:	00 13       	reti			
	...

000052dc <__mulsi2_hw32>:
    52dc:	02 12       	push	r2		;
    52de:	32 c2       	dint			
    52e0:	03 43       	nop			
    52e2:	82 4c 40 01 	mov	r12,	&0x0140	;
    52e6:	82 4d 42 01 	mov	r13,	&0x0142	;
    52ea:	82 4e 50 01 	mov	r14,	&0x0150	;
    52ee:	82 4f 52 01 	mov	r15,	&0x0152	;
    52f2:	1c 42 54 01 	mov	&0x0154,r12	;0x0154
    52f6:	1d 42 56 01 	mov	&0x0156,r13	;0x0156
    52fa:	00 13       	reti			

000052fc <__muldisi2_hw32>:
    52fc:	02 12       	push	r2		;
    52fe:	32 c2       	dint			
    5300:	03 43       	nop			
    5302:	82 4c 44 01 	mov	r12,	&0x0144	;
    5306:	82 4d 46 01 	mov	r13,	&0x0146	;
    530a:	82 4e 50 01 	mov	r14,	&0x0150	;
    530e:	82 4f 52 01 	mov	r15,	&0x0152	;
    5312:	1c 42 54 01 	mov	&0x0154,r12	;0x0154
    5316:	1d 42 56 01 	mov	&0x0156,r13	;0x0156
    531a:	1e 42 58 01 	mov	&0x0158,r14	;0x0158
    531e:	1f 42 5a 01 	mov	&0x015a,r15	;0x015a
    5322:	00 13       	reti			

00005324 <__umuldisi2_hw32>:
    5324:	02 12       	push	r2		;
    5326:	32 c2       	dint			
    5328:	03 43       	nop			
    532a:	82 4c 40 01 	mov	r12,	&0x0140	;
    532e:	82 4d 42 01 	mov	r13,	&0x0142	;
    5332:	82 4e 50 01 	mov	r14,	&0x0150	;
    5336:	82 4f 52 01 	mov	r15,	&0x0152	;
    533a:	1c 42 54 01 	mov	&0x0154,r12	;0x0154
    533e:	1d 42 56 01 	mov	&0x0156,r13	;0x0156
    5342:	1e 42 58 01 	mov	&0x0158,r14	;0x0158
    5346:	1f 42 5a 01 	mov	&0x015a,r15	;0x015a
    534a:	00 13       	reti			

0000534c <__mulhi2_f5>:
    534c:	02 12       	push	r2		;
    534e:	32 c2       	dint			
    5350:	03 43       	nop			
    5352:	82 4c c0 04 	mov	r12,	&0x04c0	;
    5356:	82 4d c8 04 	mov	r13,	&0x04c8	;
    535a:	1c 42 ca 04 	mov	&0x04ca,r12	;0x04ca
    535e:	00 13       	reti			

00005360 <__mulsihi2_f5>:
    5360:	02 12       	push	r2		;
    5362:	32 c2       	dint			
    5364:	03 43       	nop			
    5366:	82 4c c2 04 	mov	r12,	&0x04c2	;
    536a:	82 4d c8 04 	mov	r13,	&0x04c8	;
    536e:	1c 42 ca 04 	mov	&0x04ca,r12	;0x04ca
    5372:	1d 42 cc 04 	mov	&0x04cc,r13	;0x04cc
    5376:	00 13       	reti			

00005378 <__umulsihi2_f5>:
    5378:	02 12       	push	r2		;
    537a:	32 c2       	dint			
    537c:	03 43       	nop			
    537e:	82 4c c0 04 	mov	r12,	&0x04c0	;
    5382:	82 4d c8 04 	mov	r13,	&0x04c8	;
    5386:	1c 42 ca 04 	mov	&0x04ca,r12	;0x04ca
    538a:	1d 42 cc 04 	mov	&0x04cc,r13	;0x04cc
    538e:	00 13       	reti			

00005390 <__mulsi2_f5>:
    5390:	02 12       	push	r2		;
    5392:	32 c2       	dint			
    5394:	03 43       	nop			
    5396:	82 4c d0 04 	mov	r12,	&0x04d0	;
    539a:	82 4d d2 04 	mov	r13,	&0x04d2	;
    539e:	82 4e e0 04 	mov	r14,	&0x04e0	;
    53a2:	82 4f e2 04 	mov	r15,	&0x04e2	;
    53a6:	1c 42 e4 04 	mov	&0x04e4,r12	;0x04e4
    53aa:	1d 42 e6 04 	mov	&0x04e6,r13	;0x04e6
    53ae:	00 13       	reti			

000053b0 <__muldisi2_f5>:
    53b0:	02 12       	push	r2		;
    53b2:	32 c2       	dint			
    53b4:	03 43       	nop			
    53b6:	82 4c d4 04 	mov	r12,	&0x04d4	;
    53ba:	82 4d d6 04 	mov	r13,	&0x04d6	;
    53be:	82 4e e0 04 	mov	r14,	&0x04e0	;
    53c2:	82 4f e2 04 	mov	r15,	&0x04e2	;
    53c6:	1c 42 e4 04 	mov	&0x04e4,r12	;0x04e4
    53ca:	1d 42 e6 04 	mov	&0x04e6,r13	;0x04e6
    53ce:	1e 42 e8 04 	mov	&0x04e8,r14	;0x04e8
    53d2:	1f 42 ea 04 	mov	&0x04ea,r15	;0x04ea
    53d6:	00 13       	reti			

000053d8 <__umuldisi2_f5>:
    53d8:	02 12       	push	r2		;
    53da:	32 c2       	dint			
    53dc:	03 43       	nop			
    53de:	82 4c d0 04 	mov	r12,	&0x04d0	;
    53e2:	82 4d d2 04 	mov	r13,	&0x04d2	;
    53e6:	82 4e e0 04 	mov	r14,	&0x04e0	;
    53ea:	82 4f e2 04 	mov	r15,	&0x04e2	;
    53ee:	1c 42 e4 04 	mov	&0x04e4,r12	;0x04e4
    53f2:	1d 42 e6 04 	mov	&0x04e6,r13	;0x04e6
    53f6:	1e 42 e8 04 	mov	&0x04e8,r14	;0x04e8
    53fa:	1f 42 ea 04 	mov	&0x04ea,r15	;0x04ea
    53fe:	00 13       	reti			

00005400 <malloc>:
    5400:	0d 4c       	mov	r12,	r13	;
    5402:	1c 42 20 02 	mov	&0x0220,r12	;0x0220
    5406:	b0 12 30 55 	call	#21808		;#0x5530
    540a:	30 41       	ret			

0000540c <free>:
    540c:	0d 4c       	mov	r12,	r13	;
    540e:	1c 42 20 02 	mov	&0x0220,r12	;0x0220
    5412:	b0 12 36 54 	call	#21558		;#0x5436
    5416:	30 41       	ret			

00005418 <memcpy>:
    5418:	0a 12       	push	r10		;
    541a:	0f 43       	clr	r15		;
    541c:	0f 9e       	cmp	r14,	r15	;
    541e:	09 24       	jz	$+20     	;abs 0x5432
    5420:	0a 4d       	mov	r13,	r10	;
    5422:	0a 5f       	add	r15,	r10	;
    5424:	0b 4c       	mov	r12,	r11	;
    5426:	0b 5f       	add	r15,	r11	;
    5428:	eb 4a 00 00 	mov.b	@r10,	0(r11)	;
    542c:	1f 53       	inc	r15		;
    542e:	30 40 1c 54 	br	#0x541c		;
    5432:	3a 41       	pop	r10		;
    5434:	30 41       	ret			

00005436 <_free_r>:
    5436:	0a 12       	push	r10		;
    5438:	09 12       	push	r9		;
    543a:	08 12       	push	r8		;
    543c:	07 12       	push	r7		;
    543e:	0d 93       	cmp	#0,	r13	;r3 As==00
    5440:	75 24       	jz	$+236    	;abs 0x552c
    5442:	0e 4d       	mov	r13,	r14	;
    5444:	3e 50 fc ff 	add	#65532,	r14	;#0xfffc
    5448:	1f 4d fc ff 	mov	-4(r13),r15	;
    544c:	8d 93 fe ff 	cmp	#0,	-2(r13)	;r3 As==00, 0xfffe
    5450:	01 34       	jge	$+4      	;abs 0x5454
    5452:	0e 5f       	add	r15,	r14	;
    5454:	1d 42 60 03 	mov	&0x0360,r13	;0x0360
    5458:	0d 93       	cmp	#0,	r13	;r3 As==00
    545a:	17 24       	jz	$+48     	;abs 0x548a
    545c:	0e 9d       	cmp	r13,	r14	;
    545e:	1e 2c       	jc	$+62     	;abs 0x549c
    5460:	2a 4e       	mov	@r14,	r10	;
    5462:	1b 4e 02 00 	mov	2(r14),	r11	;
    5466:	0c 4e       	mov	r14,	r12	;
    5468:	0c 5a       	add	r10,	r12	;
    546a:	0c 9d       	cmp	r13,	r12	;
    546c:	0e 20       	jnz	$+30     	;abs 0x548a
    546e:	08 4a       	mov	r10,	r8	;
    5470:	09 4b       	mov	r11,	r9	;
    5472:	28 5c       	add	@r12,	r8	;
    5474:	19 6c 02 00 	addc	2(r12),	r9	;
    5478:	8e 48 00 00 	mov	r8,	0(r14)	;
    547c:	8e 49 02 00 	mov	r9,	2(r14)	;
    5480:	9e 4c 04 00 	mov	4(r12),	4(r14)	;
    5484:	04 00 
    5486:	30 40 8e 54 	br	#0x548e		;
    548a:	8e 4d 04 00 	mov	r13,	4(r14)	;
    548e:	82 4e 60 03 	mov	r14,	&0x0360	;
    5492:	30 40 2c 55 	br	#0x552c		;
    5496:	0e 9f       	cmp	r15,	r14	;
    5498:	05 28       	jnc	$+12     	;abs 0x54a4
    549a:	0d 4f       	mov	r15,	r13	;
    549c:	1f 4d 04 00 	mov	4(r13),	r15	;
    54a0:	0f 93       	cmp	#0,	r15	;r3 As==00
    54a2:	f9 23       	jnz	$-12     	;abs 0x5496
    54a4:	29 4d       	mov	@r13,	r9	;
    54a6:	17 4d 02 00 	mov	2(r13),	r7	;
    54aa:	08 4d       	mov	r13,	r8	;
    54ac:	08 59       	add	r9,	r8	;
    54ae:	08 9e       	cmp	r14,	r8	;
    54b0:	1b 20       	jnz	$+56     	;abs 0x54e8
    54b2:	2a 4e       	mov	@r14,	r10	;
    54b4:	0a 59       	add	r9,	r10	;
    54b6:	1b 4e 02 00 	mov	2(r14),	r11	;
    54ba:	0b 67       	addc	r7,	r11	;
    54bc:	8d 4a 00 00 	mov	r10,	0(r13)	;
    54c0:	8d 4b 02 00 	mov	r11,	2(r13)	;
    54c4:	0c 4d       	mov	r13,	r12	;
    54c6:	0c 5a       	add	r10,	r12	;
    54c8:	0c 9f       	cmp	r15,	r12	;
    54ca:	30 20       	jnz	$+98     	;abs 0x552c
    54cc:	08 4a       	mov	r10,	r8	;
    54ce:	09 4b       	mov	r11,	r9	;
    54d0:	28 5f       	add	@r15,	r8	;
    54d2:	19 6f 02 00 	addc	2(r15),	r9	;
    54d6:	8d 48 00 00 	mov	r8,	0(r13)	;
    54da:	8d 49 02 00 	mov	r9,	2(r13)	;
    54de:	9d 4f 04 00 	mov	4(r15),	4(r13)	;
    54e2:	04 00 
    54e4:	30 40 2c 55 	br	#0x552c		;
    54e8:	0e 98       	cmp	r8,	r14	;
    54ea:	05 2c       	jc	$+12     	;abs 0x54f6
    54ec:	bc 40 0c 00 	mov	#12,	0(r12)	;#0x000c
    54f0:	00 00 
    54f2:	30 40 2c 55 	br	#0x552c		;
    54f6:	2a 4e       	mov	@r14,	r10	;
    54f8:	1b 4e 02 00 	mov	2(r14),	r11	;
    54fc:	0c 4e       	mov	r14,	r12	;
    54fe:	0c 5a       	add	r10,	r12	;
    5500:	0c 9f       	cmp	r15,	r12	;
    5502:	10 20       	jnz	$+34     	;abs 0x5524
    5504:	08 4a       	mov	r10,	r8	;
    5506:	09 4b       	mov	r11,	r9	;
    5508:	28 5f       	add	@r15,	r8	;
    550a:	19 6f 02 00 	addc	2(r15),	r9	;
    550e:	8e 48 00 00 	mov	r8,	0(r14)	;
    5512:	8e 49 02 00 	mov	r9,	2(r14)	;
    5516:	9e 4f 04 00 	mov	4(r15),	4(r14)	;
    551a:	04 00 
    551c:	8d 4e 04 00 	mov	r14,	4(r13)	;
    5520:	30 40 2c 55 	br	#0x552c		;
    5524:	8e 4f 04 00 	mov	r15,	4(r14)	;
    5528:	8d 4e 04 00 	mov	r14,	4(r13)	;
    552c:	30 40 aa 51 	br	#0x51aa		;

00005530 <_malloc_r>:
    5530:	0a 12       	push	r10		;
    5532:	09 12       	push	r9		;
    5534:	08 12       	push	r8		;
    5536:	08 4c       	mov	r12,	r8	;
    5538:	0a 4d       	mov	r13,	r10	;
    553a:	1a 53       	inc	r10		;
    553c:	1a c3       	bic	#1,	r10	;r3 As==01
    553e:	3a 50 0a 00 	add	#10,	r10	;#0x000a
    5542:	3a 90 0c 00 	cmp	#12,	r10	;#0x000c
    5546:	02 2c       	jc	$+6      	;abs 0x554c
    5548:	3a 40 0c 00 	mov	#12,	r10	;#0x000c
    554c:	0a 9d       	cmp	r13,	r10	;
    554e:	06 2c       	jc	$+14     	;abs 0x555c
    5550:	b8 40 0c 00 	mov	#12,	0(r8)	;#0x000c
    5554:	00 00 
    5556:	0c 43       	clr	r12		;
    5558:	30 40 24 56 	br	#0x5624		;
    555c:	1e 42 60 03 	mov	&0x0360,r14	;0x0360
    5560:	0d 4e       	mov	r14,	r13	;
    5562:	0d 93       	cmp	#0,	r13	;r3 As==00
    5564:	2b 24       	jz	$+88     	;abs 0x55bc
    5566:	2c 4d       	mov	@r13,	r12	;
    5568:	0c 8a       	sub	r10,	r12	;
    556a:	0c 93       	cmp	#0,	r12	;r3 As==00
    556c:	22 38       	jl	$+70     	;abs 0x55b2
    556e:	3f 40 0b 00 	mov	#11,	r15	;#0x000b
    5572:	0f 9c       	cmp	r12,	r15	;
    5574:	11 2c       	jc	$+36     	;abs 0x5598
    5576:	0e 4c       	mov	r12,	r14	;
    5578:	3e b0 00 80 	bit	#32768,	r14	;#0x8000
    557c:	0f 7f       	subc	r15,	r15	;
    557e:	3f e3       	inv	r15		;
    5580:	8d 4e 00 00 	mov	r14,	0(r13)	;
    5584:	8d 4f 02 00 	mov	r15,	2(r13)	;
    5588:	0e 4d       	mov	r13,	r14	;
    558a:	0e 5c       	add	r12,	r14	;
    558c:	8e 4a 00 00 	mov	r10,	0(r14)	;
    5590:	8e 43 02 00 	mov	#0,	2(r14)	;r3 As==00
    5594:	30 40 ec 55 	br	#0x55ec		;
    5598:	0e 9d       	cmp	r13,	r14	;
    559a:	05 20       	jnz	$+12     	;abs 0x55a6
    559c:	92 4e 04 00 	mov	4(r14),	&0x0360	;
    55a0:	60 03 
    55a2:	30 40 ec 55 	br	#0x55ec		;
    55a6:	9e 4d 04 00 	mov	4(r13),	4(r14)	;
    55aa:	04 00 
    55ac:	0e 4d       	mov	r13,	r14	;
    55ae:	30 40 ec 55 	br	#0x55ec		;
    55b2:	0e 4d       	mov	r13,	r14	;
    55b4:	1d 4d 04 00 	mov	4(r13),	r13	;
    55b8:	30 40 62 55 	br	#0x5562		;
    55bc:	39 40 0e 57 	mov	#22286,	r9	;#0x570e
    55c0:	82 93 5e 03 	cmp	#0,	&0x035e	;r3 As==00
    55c4:	04 20       	jnz	$+10     	;abs 0x55ce
    55c6:	0c 48       	mov	r8,	r12	;
    55c8:	89 12       	call	r9		;
    55ca:	82 4c 5e 03 	mov	r12,	&0x035e	;
    55ce:	0c 48       	mov	r8,	r12	;
    55d0:	0d 4a       	mov	r10,	r13	;
    55d2:	89 12       	call	r9		;
    55d4:	0e 4c       	mov	r12,	r14	;
    55d6:	3c 93       	cmp	#-1,	r12	;r3 As==11
    55d8:	bb 27       	jz	$-136    	;abs 0x5550
    55da:	09 4c       	mov	r12,	r9	;
    55dc:	19 53       	inc	r9		;
    55de:	19 c3       	bic	#1,	r9	;r3 As==01
    55e0:	09 9c       	cmp	r12,	r9	;
    55e2:	16 20       	jnz	$+46     	;abs 0x5610
    55e4:	8e 4a 00 00 	mov	r10,	0(r14)	;
    55e8:	8e 43 02 00 	mov	#0,	2(r14)	;r3 As==00
    55ec:	0f 4e       	mov	r14,	r15	;
    55ee:	2f 52       	add	#4,	r15	;r2 As==10
    55f0:	0c 4f       	mov	r15,	r12	;
    55f2:	3c 50 07 00 	add	#7,	r12	;
    55f6:	3c f0 f8 ff 	and	#65528,	r12	;#0xfff8
    55fa:	0d 4c       	mov	r12,	r13	;
    55fc:	0d 8f       	sub	r15,	r13	;
    55fe:	0d 93       	cmp	#0,	r13	;r3 As==00
    5600:	11 24       	jz	$+36     	;abs 0x5624
    5602:	0e 5d       	add	r13,	r14	;
    5604:	0f 43       	clr	r15		;
    5606:	0f 8d       	sub	r13,	r15	;
    5608:	8e 4f 00 00 	mov	r15,	0(r14)	;
    560c:	30 40 24 56 	br	#0x5624		;
    5610:	0c 48       	mov	r8,	r12	;
    5612:	0d 49       	mov	r9,	r13	;
    5614:	0d 8e       	sub	r14,	r13	;
    5616:	b0 12 0e 57 	call	#22286		;#0x570e
    561a:	3c 93       	cmp	#-1,	r12	;r3 As==11
    561c:	99 27       	jz	$-204    	;abs 0x5550
    561e:	0e 49       	mov	r9,	r14	;
    5620:	30 40 e4 55 	br	#0x55e4		;
    5624:	30 40 ac 51 	br	#0x51ac		;

00005628 <_printf_r>:
    5628:	0a 12       	push	r10		;
    562a:	0a 4c       	mov	r12,	r10	;
    562c:	0c 93       	cmp	#0,	r12	;r3 As==00
    562e:	05 24       	jz	$+12     	;abs 0x563a
    5630:	8c 93 0c 00 	cmp	#0,	12(r12)	;r3 As==00, 0x000c
    5634:	02 20       	jnz	$+6      	;abs 0x563a
    5636:	b0 12 64 88 	call	#34916		;#0x8864
    563a:	0c 4a       	mov	r10,	r12	;
    563c:	1d 4a 04 00 	mov	4(r10),	r13	;
    5640:	1e 41 04 00 	mov	4(r1),	r14	;
    5644:	0f 41       	mov	r1,	r15	;
    5646:	3f 50 06 00 	add	#6,	r15	;
    564a:	b0 12 60 57 	call	#22368		;#0x5760
    564e:	3a 41       	pop	r10		;
    5650:	30 41       	ret			

00005652 <printf>:
    5652:	0a 12       	push	r10		;
    5654:	1a 42 20 02 	mov	&0x0220,r10	;0x0220
    5658:	0a 93       	cmp	#0,	r10	;r3 As==00
    565a:	06 24       	jz	$+14     	;abs 0x5668
    565c:	8a 93 0c 00 	cmp	#0,	12(r10)	;r3 As==00, 0x000c
    5660:	03 20       	jnz	$+8      	;abs 0x5668
    5662:	0c 4a       	mov	r10,	r12	;
    5664:	b0 12 64 88 	call	#34916		;#0x8864
    5668:	0c 4a       	mov	r10,	r12	;
    566a:	1d 4a 04 00 	mov	4(r10),	r13	;
    566e:	1e 41 04 00 	mov	4(r1),	r14	;
    5672:	0f 41       	mov	r1,	r15	;
    5674:	3f 50 06 00 	add	#6,	r15	;
    5678:	b0 12 60 57 	call	#22368		;#0x5760
    567c:	3a 41       	pop	r10		;
    567e:	30 41       	ret			

00005680 <_puts_r>:
    5680:	0a 12       	push	r10		;
    5682:	09 12       	push	r9		;
    5684:	31 80 0e 00 	sub	#14,	r1	;#0x000e
    5688:	0a 4c       	mov	r12,	r10	;
    568a:	09 4d       	mov	r13,	r9	;
    568c:	0c 4d       	mov	r13,	r12	;
    568e:	b0 12 4c 57 	call	#22348		;#0x574c
    5692:	81 49 06 00 	mov	r9,	6(r1)	;
    5696:	81 4c 08 00 	mov	r12,	8(r1)	;
    569a:	b1 40 0a 44 	mov	#17418,	10(r1)	;#0x440a, 0x000a
    569e:	0a 00 
    56a0:	91 43 0c 00 	mov	#1,	12(r1)	;r3 As==01, 0x000c
    56a4:	1c 53       	inc	r12		;
    56a6:	81 4c 04 00 	mov	r12,	4(r1)	;
    56aa:	3c 40 06 00 	mov	#6,	r12	;
    56ae:	0c 51       	add	r1,	r12	;
    56b0:	81 4c 00 00 	mov	r12,	0(r1)	;
    56b4:	a1 43 02 00 	mov	#2,	2(r1)	;r3 As==10
    56b8:	0a 93       	cmp	#0,	r10	;r3 As==00
    56ba:	06 24       	jz	$+14     	;abs 0x56c8
    56bc:	8a 93 0c 00 	cmp	#0,	12(r10)	;r3 As==00, 0x000c
    56c0:	03 20       	jnz	$+8      	;abs 0x56c8
    56c2:	0c 4a       	mov	r10,	r12	;
    56c4:	b0 12 64 88 	call	#34916		;#0x8864
    56c8:	1d 4a 04 00 	mov	4(r10),	r13	;
    56cc:	1c 4d 06 00 	mov	6(r13),	r12	;
    56d0:	3c b0 00 20 	bit	#8192,	r12	;#0x2000
    56d4:	07 20       	jnz	$+16     	;abs 0x56e4
    56d6:	3c d0 00 20 	bis	#8192,	r12	;#0x2000
    56da:	8d 4c 06 00 	mov	r12,	6(r13)	;
    56de:	bd f0 ff df 	and	#57343,	58(r13)	;#0xdfff, 0x003a
    56e2:	3a 00 
    56e4:	0c 4a       	mov	r10,	r12	;
    56e6:	0e 41       	mov	r1,	r14	;
    56e8:	b0 12 84 8a 	call	#35460		;#0x8a84
    56ec:	0c 93       	cmp	#0,	r12	;r3 As==00
    56ee:	04 20       	jnz	$+10     	;abs 0x56f8
    56f0:	3c 40 0a 00 	mov	#10,	r12	;#0x000a
    56f4:	30 40 fa 56 	br	#0x56fa		;
    56f8:	3c 43       	mov	#-1,	r12	;r3 As==11
    56fa:	31 50 0e 00 	add	#14,	r1	;#0x000e
    56fe:	30 40 ae 51 	br	#0x51ae		;

00005702 <puts>:
    5702:	0d 4c       	mov	r12,	r13	;
    5704:	1c 42 20 02 	mov	&0x0220,r12	;0x0220
    5708:	b0 12 80 56 	call	#22144		;#0x5680
    570c:	30 41       	ret			

0000570e <_sbrk_r>:
    570e:	0a 12       	push	r10		;
    5710:	0a 4c       	mov	r12,	r10	;
    5712:	82 43 b6 08 	mov	#0,	&0x08b6	;r3 As==00
    5716:	0c 4d       	mov	r13,	r12	;
    5718:	b0 12 a8 d9 	call	#55720		;#0xd9a8
    571c:	3c 93       	cmp	#-1,	r12	;r3 As==11
    571e:	06 20       	jnz	$+14     	;abs 0x572c
    5720:	1d 42 b6 08 	mov	&0x08b6,r13	;0x08b6
    5724:	0d 93       	cmp	#0,	r13	;r3 As==00
    5726:	02 24       	jz	$+6      	;abs 0x572c
    5728:	8a 4d 00 00 	mov	r13,	0(r10)	;
    572c:	3a 41       	pop	r10		;
    572e:	30 41       	ret			

00005730 <strcmp>:
    5730:	6e 4c       	mov.b	@r12,	r14	;
    5732:	0e 93       	cmp	#0,	r14	;r3 As==00
    5734:	07 24       	jz	$+16     	;abs 0x5744
    5736:	cd 9e 00 00 	cmp.b	r14,	0(r13)	;
    573a:	04 20       	jnz	$+10     	;abs 0x5744
    573c:	1c 53       	inc	r12		;
    573e:	1d 53       	inc	r13		;
    5740:	30 40 30 57 	br	#0x5730		;
    5744:	6c 4d       	mov.b	@r13,	r12	;
    5746:	0e 8c       	sub	r12,	r14	;
    5748:	0c 4e       	mov	r14,	r12	;
    574a:	30 41       	ret			

0000574c <strlen>:
    574c:	0d 4c       	mov	r12,	r13	;
    574e:	cd 93 00 00 	cmp.b	#0,	0(r13)	;r3 As==00
    5752:	03 24       	jz	$+8      	;abs 0x575a
    5754:	1d 53       	inc	r13		;
    5756:	30 40 4e 57 	br	#0x574e		;
    575a:	0d 8c       	sub	r12,	r13	;
    575c:	0c 4d       	mov	r13,	r12	;
    575e:	30 41       	ret			

00005760 <_vfprintf_r>:
    5760:	0a 12       	push	r10		;
    5762:	09 12       	push	r9		;
    5764:	08 12       	push	r8		;
    5766:	07 12       	push	r7		;
    5768:	06 12       	push	r6		;
    576a:	05 12       	push	r5		;
    576c:	04 12       	push	r4		;
    576e:	31 80 9c 00 	sub	#156,	r1	;#0x009c
    5772:	06 4c       	mov	r12,	r6	;
    5774:	05 4d       	mov	r13,	r5	;
    5776:	81 4e 1c 00 	mov	r14,	28(r1)	; 0x001c
    577a:	07 4f       	mov	r15,	r7	;
    577c:	b0 12 b8 8e 	call	#36536		;#0x8eb8
    5780:	a1 4c 30 00 	mov	@r12,	48(r1)	; 0x0030
    5784:	1c 41 30 00 	mov	48(r1),	r12	;0x00030
    5788:	b0 12 4c 57 	call	#22348		;#0x574c
    578c:	81 4c 2a 00 	mov	r12,	42(r1)	; 0x002a
    5790:	06 93       	cmp	#0,	r6	;r3 As==00
    5792:	06 24       	jz	$+14     	;abs 0x57a0
    5794:	86 93 0c 00 	cmp	#0,	12(r6)	;r3 As==00, 0x000c
    5798:	03 20       	jnz	$+8      	;abs 0x57a0
    579a:	0c 46       	mov	r6,	r12	;
    579c:	b0 12 64 88 	call	#34916		;#0x8864
    57a0:	35 90 94 44 	cmp	#17556,	r5	;#0x4494
    57a4:	04 20       	jnz	$+10     	;abs 0x57ae
    57a6:	15 46 02 00 	mov	2(r6),	r5	;
    57aa:	30 40 c6 57 	br	#0x57c6		;
    57ae:	35 90 82 44 	cmp	#17538,	r5	;#0x4482
    57b2:	04 20       	jnz	$+10     	;abs 0x57bc
    57b4:	15 46 04 00 	mov	4(r6),	r5	;
    57b8:	30 40 c6 57 	br	#0x57c6		;
    57bc:	35 90 70 44 	cmp	#17520,	r5	;#0x4470
    57c0:	02 20       	jnz	$+6      	;abs 0x57c6
    57c2:	15 46 06 00 	mov	6(r6),	r5	;
    57c6:	1c 45 06 00 	mov	6(r5),	r12	;
    57ca:	3c b0 00 20 	bit	#8192,	r12	;#0x2000
    57ce:	07 20       	jnz	$+16     	;abs 0x57de
    57d0:	3c d0 00 20 	bis	#8192,	r12	;#0x2000
    57d4:	85 4c 06 00 	mov	r12,	6(r5)	;
    57d8:	b5 f0 ff df 	and	#57343,	58(r5)	;#0xdfff, 0x003a
    57dc:	3a 00 
    57de:	f5 b2 06 00 	bit.b	#8,	6(r5)	;r2 As==11
    57e2:	0c 24       	jz	$+26     	;abs 0x57fc
    57e4:	85 93 0a 00 	cmp	#0,	10(r5)	;r3 As==00, 0x000a
    57e8:	09 24       	jz	$+20     	;abs 0x57fc
    57ea:	1c 45 06 00 	mov	6(r5),	r12	;
    57ee:	3c f0 1a 00 	and	#26,	r12	;#0x001a
    57f2:	3c 90 0a 00 	cmp	#10,	r12	;#0x000a
    57f6:	17 20       	jnz	$+48     	;abs 0x5826
    57f8:	30 40 0e 58 	br	#0x580e		;
    57fc:	0c 46       	mov	r6,	r12	;
    57fe:	0d 45       	mov	r5,	r13	;
    5800:	b0 12 de 6e 	call	#28382		;#0x6ede
    5804:	0c 93       	cmp	#0,	r12	;r3 As==00
    5806:	f1 27       	jz	$-28     	;abs 0x57ea
    5808:	3c 43       	mov	#-1,	r12	;r3 As==11
    580a:	30 40 38 6e 	br	#0x6e38		;
    580e:	85 93 08 00 	cmp	#0,	8(r5)	;r3 As==00
    5812:	09 38       	jl	$+20     	;abs 0x5826
    5814:	0c 46       	mov	r6,	r12	;
    5816:	0d 45       	mov	r5,	r13	;
    5818:	1e 41 1c 00 	mov	28(r1),	r14	;0x0001c
    581c:	0f 47       	mov	r7,	r15	;
    581e:	b0 12 58 6e 	call	#28248		;#0x6e58
    5822:	30 40 38 6e 	br	#0x6e38		;
    5826:	3c 40 54 00 	mov	#84,	r12	;#0x0054
    582a:	0c 51       	add	r1,	r12	;
    582c:	81 4c 3e 00 	mov	r12,	62(r1)	; 0x003e
    5830:	81 43 42 00 	mov	#0,	66(r1)	;r3 As==00, 0x0042
    5834:	81 43 40 00 	mov	#0,	64(r1)	;r3 As==00, 0x0040
    5838:	81 43 16 00 	mov	#0,	22(r1)	;r3 As==00, 0x0016
    583c:	91 41 16 00 	mov	22(r1),	32(r1)	;0x00016, 0x0020
    5840:	20 00 
    5842:	91 41 16 00 	mov	22(r1),	34(r1)	;0x00016, 0x0022
    5846:	22 00 
    5848:	91 41 16 00 	mov	22(r1),	36(r1)	;0x00016, 0x0024
    584c:	24 00 
    584e:	91 41 16 00 	mov	22(r1),	38(r1)	;0x00016, 0x0026
    5852:	26 00 
    5854:	0a 4c       	mov	r12,	r10	;
    5856:	91 41 16 00 	mov	22(r1),	52(r1)	;0x00016, 0x0034
    585a:	34 00 
    585c:	91 41 16 00 	mov	22(r1),	50(r1)	;0x00016, 0x0032
    5860:	32 00 
    5862:	91 41 16 00 	mov	22(r1),	40(r1)	;0x00016, 0x0028
    5866:	28 00 
    5868:	19 41 1c 00 	mov	28(r1),	r9	;0x0001c
    586c:	6c 49       	mov.b	@r9,	r12	;
    586e:	0c 93       	cmp	#0,	r12	;r3 As==00
    5870:	07 20       	jnz	$+16     	;abs 0x5880
    5872:	08 49       	mov	r9,	r8	;
    5874:	18 81 1c 00 	sub	28(r1),	r8	;0x0001c
    5878:	08 93       	cmp	#0,	r8	;r3 As==00
    587a:	08 20       	jnz	$+18     	;abs 0x588c
    587c:	30 40 d2 58 	br	#0x58d2		;
    5880:	3c 90 25 00 	cmp	#37,	r12	;#0x0025
    5884:	f6 27       	jz	$-18     	;abs 0x5872
    5886:	19 53       	inc	r9		;
    5888:	30 40 6c 58 	br	#0x586c		;
    588c:	9a 41 1c 00 	mov	28(r1),	0(r10)	;0x0001c
    5890:	00 00 
    5892:	8a 48 02 00 	mov	r8,	2(r10)	;
    5896:	81 58 42 00 	add	r8,	66(r1)	; 0x0042
    589a:	1c 41 40 00 	mov	64(r1),	r12	;0x00040
    589e:	1c 53       	inc	r12		;
    58a0:	81 4c 40 00 	mov	r12,	64(r1)	; 0x0040
    58a4:	3d 40 07 00 	mov	#7,	r13	;
    58a8:	0d 9c       	cmp	r12,	r13	;
    58aa:	03 38       	jl	$+8      	;abs 0x58b2
    58ac:	2a 52       	add	#4,	r10	;r2 As==10
    58ae:	30 40 ce 58 	br	#0x58ce		;
    58b2:	0c 46       	mov	r6,	r12	;
    58b4:	0d 45       	mov	r5,	r13	;
    58b6:	0e 41       	mov	r1,	r14	;
    58b8:	3e 50 3e 00 	add	#62,	r14	;#0x003e
    58bc:	b0 12 c2 a3 	call	#41922		;#0xa3c2
    58c0:	0c 93       	cmp	#0,	r12	;r3 As==00
    58c2:	02 24       	jz	$+6      	;abs 0x58c8
    58c4:	30 40 18 6e 	br	#0x6e18		;
    58c8:	0a 41       	mov	r1,	r10	;
    58ca:	3a 50 54 00 	add	#84,	r10	;#0x0054
    58ce:	81 58 28 00 	add	r8,	40(r1)	; 0x0028
    58d2:	c9 93 00 00 	cmp.b	#0,	0(r9)	;r3 As==00
    58d6:	02 20       	jnz	$+6      	;abs 0x58dc
    58d8:	30 40 04 6e 	br	#0x6e04		;
    58dc:	19 53       	inc	r9		;
    58de:	c1 43 37 00 	mov.b	#0,	55(r1)	;r3 As==00, 0x0037
    58e2:	0c 43       	clr	r12		;
    58e4:	38 43       	mov	#-1,	r8	;r3 As==11
    58e6:	81 4c 1a 00 	mov	r12,	26(r1)	; 0x001a
    58ea:	04 4c       	mov	r12,	r4	;
    58ec:	0e 49       	mov	r9,	r14	;
    58ee:	1e 53       	inc	r14		;
    58f0:	81 4e 1c 00 	mov	r14,	28(r1)	; 0x001c
    58f4:	69 49       	mov.b	@r9,	r9	;
    58f6:	39 90 55 00 	cmp	#85,	r9	;#0x0055
    58fa:	02 20       	jnz	$+6      	;abs 0x5900
    58fc:	30 40 bc 60 	br	#0x60bc		;
    5900:	3f 40 55 00 	mov	#85,	r15	;#0x0055
    5904:	0f 99       	cmp	r9,	r15	;
    5906:	50 38       	jl	$+162    	;abs 0x59a8
    5908:	39 90 30 00 	cmp	#48,	r9	;#0x0030
    590c:	ef 24       	jz	$+480    	;abs 0x5aec
    590e:	3d 40 30 00 	mov	#48,	r13	;#0x0030
    5912:	0d 99       	cmp	r9,	r13	;
    5914:	22 38       	jl	$+70     	;abs 0x595a
    5916:	39 90 2a 00 	cmp	#42,	r9	;#0x002a
    591a:	a5 24       	jz	$+332    	;abs 0x5a66
    591c:	3e 40 2a 00 	mov	#42,	r14	;#0x002a
    5920:	0e 99       	cmp	r9,	r14	;
    5922:	0d 38       	jl	$+28     	;abs 0x593e
    5924:	39 90 20 00 	cmp	#32,	r9	;#0x0020
    5928:	9a 24       	jz	$+310    	;abs 0x5a5e
    592a:	39 90 23 00 	cmp	#35,	r9	;#0x0023
    592e:	02 24       	jz	$+6      	;abs 0x5934
    5930:	30 40 48 63 	br	#0x6348		;
    5934:	14 d3       	bis	#1,	r4	;r3 As==01
    5936:	19 41 1c 00 	mov	28(r1),	r9	;0x0001c
    593a:	30 40 ec 58 	br	#0x58ec		;
    593e:	39 90 2d 00 	cmp	#45,	r9	;#0x002d
    5942:	a0 24       	jz	$+322    	;abs 0x5a84
    5944:	39 90 2e 00 	cmp	#46,	r9	;#0x002e
    5948:	a0 24       	jz	$+322    	;abs 0x5a8a
    594a:	39 90 2b 00 	cmp	#43,	r9	;#0x002b
    594e:	02 24       	jz	$+6      	;abs 0x5954
    5950:	30 40 48 63 	br	#0x6348		;
    5954:	0c 49       	mov	r9,	r12	;
    5956:	30 40 36 59 	br	#0x5936		;
    595a:	39 90 45 00 	cmp	#69,	r9	;#0x0045
    595e:	44 25       	jz	$+650    	;abs 0x5be8
    5960:	3f 40 45 00 	mov	#69,	r15	;#0x0045
    5964:	0f 99       	cmp	r9,	r15	;
    5966:	11 38       	jl	$+36     	;abs 0x598a
    5968:	3d 40 39 00 	mov	#57,	r13	;#0x0039
    596c:	0d 99       	cmp	r9,	r13	;
    596e:	c2 34       	jge	$+390    	;abs 0x5af4
    5970:	39 90 44 00 	cmp	#68,	r9	;#0x0044
    5974:	02 24       	jz	$+6      	;abs 0x597a
    5976:	30 40 48 63 	br	#0x6348		;
    597a:	c1 4c 37 00 	mov.b	r12,	55(r1)	; 0x0037
    597e:	34 d0 10 00 	bis	#16,	r4	;#0x0010
    5982:	81 44 14 00 	mov	r4,	20(r1)	; 0x0014
    5986:	30 40 62 5b 	br	#0x5b62		;
    598a:	39 90 4c 00 	cmp	#76,	r9	;#0x004c
    598e:	d0 24       	jz	$+418    	;abs 0x5b30
    5990:	39 90 4f 00 	cmp	#79,	r9	;#0x004f
    5994:	02 20       	jnz	$+6      	;abs 0x599a
    5996:	30 40 da 5f 	br	#0x5fda		;
    599a:	39 90 47 00 	cmp	#71,	r9	;#0x0047
    599e:	02 24       	jz	$+6      	;abs 0x59a4
    59a0:	30 40 48 63 	br	#0x6348		;
    59a4:	30 40 e8 5b 	br	#0x5be8		;
    59a8:	39 90 6c 00 	cmp	#108,	r9	;#0x006c
    59ac:	c8 24       	jz	$+402    	;abs 0x5b3e
    59ae:	3e 40 6c 00 	mov	#108,	r14	;#0x006c
    59b2:	0e 99       	cmp	r9,	r14	;
    59b4:	24 38       	jl	$+74     	;abs 0x59fe
    59b6:	3f 40 67 00 	mov	#103,	r15	;#0x0067
    59ba:	0f 99       	cmp	r9,	r15	;
    59bc:	18 38       	jl	$+50     	;abs 0x59ee
    59be:	39 90 65 00 	cmp	#101,	r9	;#0x0065
    59c2:	12 35       	jge	$+550    	;abs 0x5be8
    59c4:	39 90 63 00 	cmp	#99,	r9	;#0x0063
    59c8:	be 24       	jz	$+382    	;abs 0x5b46
    59ca:	3d 40 63 00 	mov	#99,	r13	;#0x0063
    59ce:	0d 99       	cmp	r9,	r13	;
    59d0:	40 38       	jl	$+130    	;abs 0x5a52
    59d2:	39 90 58 00 	cmp	#88,	r9	;#0x0058
    59d6:	02 24       	jz	$+6      	;abs 0x59dc
    59d8:	30 40 48 63 	br	#0x6348		;
    59dc:	c1 4c 37 00 	mov.b	r12,	55(r1)	; 0x0037
    59e0:	81 44 14 00 	mov	r4,	20(r1)	; 0x0014
    59e4:	b1 40 1c 44 	mov	#17436,	52(r1)	;#0x441c, 0x0034
    59e8:	34 00 
    59ea:	30 40 34 61 	br	#0x6134		;
    59ee:	39 90 68 00 	cmp	#104,	r9	;#0x0068
    59f2:	a1 24       	jz	$+324    	;abs 0x5b36
    59f4:	39 90 69 00 	cmp	#105,	r9	;#0x0069
    59f8:	2c 24       	jz	$+90     	;abs 0x5a52
    59fa:	30 40 48 63 	br	#0x6348		;
    59fe:	39 90 71 00 	cmp	#113,	r9	;#0x0071
    5a02:	9d 24       	jz	$+316    	;abs 0x5b3e
    5a04:	3e 40 71 00 	mov	#113,	r14	;#0x0071
    5a08:	0e 99       	cmp	r9,	r14	;
    5a0a:	12 38       	jl	$+38     	;abs 0x5a30
    5a0c:	39 90 6f 00 	cmp	#111,	r9	;#0x006f
    5a10:	02 20       	jnz	$+6      	;abs 0x5a16
    5a12:	30 40 de 5f 	br	#0x5fde		;
    5a16:	3f 40 6f 00 	mov	#111,	r15	;#0x006f
    5a1a:	0f 99       	cmp	r9,	r15	;
    5a1c:	02 34       	jge	$+6      	;abs 0x5a22
    5a1e:	30 40 42 60 	br	#0x6042		;
    5a22:	39 90 6e 00 	cmp	#110,	r9	;#0x006e
    5a26:	02 20       	jnz	$+6      	;abs 0x5a2c
    5a28:	30 40 a2 5f 	br	#0x5fa2		;
    5a2c:	30 40 48 63 	br	#0x6348		;
    5a30:	39 90 75 00 	cmp	#117,	r9	;#0x0075
    5a34:	02 20       	jnz	$+6      	;abs 0x5a3a
    5a36:	30 40 c0 60 	br	#0x60c0		;
    5a3a:	39 90 78 00 	cmp	#120,	r9	;#0x0078
    5a3e:	02 20       	jnz	$+6      	;abs 0x5a44
    5a40:	30 40 26 61 	br	#0x6126		;
    5a44:	39 90 73 00 	cmp	#115,	r9	;#0x0073
    5a48:	02 24       	jz	$+6      	;abs 0x5a4e
    5a4a:	30 40 48 63 	br	#0x6348		;
    5a4e:	30 40 74 60 	br	#0x6074		;
    5a52:	c1 4c 37 00 	mov.b	r12,	55(r1)	; 0x0037
    5a56:	81 44 14 00 	mov	r4,	20(r1)	; 0x0014
    5a5a:	30 40 62 5b 	br	#0x5b62		;
    5a5e:	0c 93       	cmp	#0,	r12	;r3 As==00
    5a60:	6a 23       	jnz	$-298    	;abs 0x5936
    5a62:	30 40 54 59 	br	#0x5954		;
    5a66:	0f 47       	mov	r7,	r15	;
    5a68:	1f 53       	inc	r15		;
    5a6a:	1f c3       	bic	#1,	r15	;r3 As==01
    5a6c:	07 4f       	mov	r15,	r7	;
    5a6e:	27 53       	incd	r7		;
    5a70:	a1 4f 1a 00 	mov	@r15,	26(r1)	; 0x001a
    5a74:	81 93 1a 00 	cmp	#0,	26(r1)	;r3 As==00, 0x001a
    5a78:	5e 37       	jge	$-322    	;abs 0x5936
    5a7a:	0d 43       	clr	r13		;
    5a7c:	1d 81 1a 00 	sub	26(r1),	r13	;0x0001a
    5a80:	81 4d 1a 00 	mov	r13,	26(r1)	; 0x001a
    5a84:	24 d2       	bis	#4,	r4	;r2 As==10
    5a86:	30 40 36 59 	br	#0x5936		;
    5a8a:	1d 41 1c 00 	mov	28(r1),	r13	;0x0001c
    5a8e:	1d 53       	inc	r13		;
    5a90:	1e 41 1c 00 	mov	28(r1),	r14	;0x0001c
    5a94:	69 4e       	mov.b	@r14,	r9	;
    5a96:	39 90 2a 00 	cmp	#42,	r9	;#0x002a
    5a9a:	03 24       	jz	$+8      	;abs 0x5aa2
    5a9c:	08 43       	clr	r8		;
    5a9e:	30 40 bc 5a 	br	#0x5abc		;
    5aa2:	81 4d 1c 00 	mov	r13,	28(r1)	; 0x001c
    5aa6:	0f 47       	mov	r7,	r15	;
    5aa8:	1f 53       	inc	r15		;
    5aaa:	1f c3       	bic	#1,	r15	;r3 As==01
    5aac:	07 4f       	mov	r15,	r7	;
    5aae:	27 53       	incd	r7		;
    5ab0:	28 4f       	mov	@r15,	r8	;
    5ab2:	08 93       	cmp	#0,	r8	;r3 As==00
    5ab4:	40 37       	jge	$-382    	;abs 0x5936
    5ab6:	38 43       	mov	#-1,	r8	;r3 As==11
    5ab8:	30 40 36 59 	br	#0x5936		;
    5abc:	81 4d 1c 00 	mov	r13,	28(r1)	; 0x001c
    5ac0:	0e 49       	mov	r9,	r14	;
    5ac2:	3e 50 d0 ff 	add	#65488,	r14	;#0xffd0
    5ac6:	3f 40 09 00 	mov	#9,	r15	;
    5aca:	0f 9e       	cmp	r14,	r15	;
    5acc:	0a 28       	jnc	$+22     	;abs 0x5ae2
    5ace:	0f 48       	mov	r8,	r15	;
    5ad0:	0f 58       	add	r8,	r15	;
    5ad2:	0f 5f       	rla	r15		;
    5ad4:	08 5f       	add	r15,	r8	;
    5ad6:	08 58       	rla	r8		;
    5ad8:	08 5e       	add	r14,	r8	;
    5ada:	69 4d       	mov.b	@r13,	r9	;
    5adc:	1d 53       	inc	r13		;
    5ade:	30 40 bc 5a 	br	#0x5abc		;
    5ae2:	08 93       	cmp	#0,	r8	;r3 As==00
    5ae4:	08 37       	jge	$-494    	;abs 0x58f6
    5ae6:	38 43       	mov	#-1,	r8	;r3 As==11
    5ae8:	30 40 f6 58 	br	#0x58f6		;
    5aec:	34 d0 80 00 	bis	#128,	r4	;#0x0080
    5af0:	30 40 36 59 	br	#0x5936		;
    5af4:	1e 41 1c 00 	mov	28(r1),	r14	;0x0001c
    5af8:	81 43 1a 00 	mov	#0,	26(r1)	;r3 As==00, 0x001a
    5afc:	1d 41 1a 00 	mov	26(r1),	r13	;0x0001a
    5b00:	0d 5d       	rla	r13		;
    5b02:	0d 5d       	rla	r13		;
    5b04:	1d 51 1a 00 	add	26(r1),	r13	;0x0001a
    5b08:	0d 5d       	rla	r13		;
    5b0a:	39 50 d0 ff 	add	#65488,	r9	;#0xffd0
    5b0e:	0d 59       	add	r9,	r13	;
    5b10:	81 4d 1a 00 	mov	r13,	26(r1)	; 0x001a
    5b14:	91 53 1c 00 	inc	28(r1)		;
    5b18:	69 4e       	mov.b	@r14,	r9	;
    5b1a:	1e 41 1c 00 	mov	28(r1),	r14	;0x0001c
    5b1e:	0d 49       	mov	r9,	r13	;
    5b20:	3d 50 d0 ff 	add	#65488,	r13	;#0xffd0
    5b24:	3f 40 09 00 	mov	#9,	r15	;
    5b28:	0f 9d       	cmp	r13,	r15	;
    5b2a:	e8 2f       	jc	$-46     	;abs 0x5afc
    5b2c:	30 40 f6 58 	br	#0x58f6		;
    5b30:	34 d2       	bis	#8,	r4	;r2 As==11
    5b32:	30 40 36 59 	br	#0x5936		;
    5b36:	34 d0 40 00 	bis	#64,	r4	;#0x0040
    5b3a:	30 40 36 59 	br	#0x5936		;
    5b3e:	34 d0 10 00 	bis	#16,	r4	;#0x0010
    5b42:	30 40 36 59 	br	#0x5936		;
    5b46:	17 53       	inc	r7		;
    5b48:	17 c3       	bic	#1,	r7	;r3 As==01
    5b4a:	0c 47       	mov	r7,	r12	;
    5b4c:	2c 53       	incd	r12		;
    5b4e:	81 4c 18 00 	mov	r12,	24(r1)	; 0x0018
    5b52:	e1 47 74 00 	mov.b	@r7,	116(r1)	; 0x0074
    5b56:	c1 43 37 00 	mov.b	#0,	55(r1)	;r3 As==00, 0x0037
    5b5a:	81 44 14 00 	mov	r4,	20(r1)	; 0x0014
    5b5e:	30 40 64 63 	br	#0x6364		;
    5b62:	17 53       	inc	r7		;
    5b64:	17 c3       	bic	#1,	r7	;r3 As==01
    5b66:	b1 b0 10 00 	bit	#16,	20(r1)	;#0x0010, 0x0014
    5b6a:	14 00 
    5b6c:	0b 24       	jz	$+24     	;abs 0x5b84
    5b6e:	0d 47       	mov	r7,	r13	;
    5b70:	2d 52       	add	#4,	r13	;r2 As==10
    5b72:	81 4d 18 00 	mov	r13,	24(r1)	; 0x0018
    5b76:	a1 47 0e 00 	mov	@r7,	14(r1)	; 0x000e
    5b7a:	91 47 02 00 	mov	2(r7),	16(r1)	; 0x0010
    5b7e:	10 00 
    5b80:	30 40 b6 5b 	br	#0x5bb6		;
    5b84:	b1 b0 40 00 	bit	#64,	20(r1)	;#0x0040, 0x0014
    5b88:	14 00 
    5b8a:	07 24       	jz	$+16     	;abs 0x5b9a
    5b8c:	0e 47       	mov	r7,	r14	;
    5b8e:	2e 53       	incd	r14		;
    5b90:	81 4e 18 00 	mov	r14,	24(r1)	; 0x0018
    5b94:	2c 47       	mov	@r7,	r12	;
    5b96:	30 40 a4 5b 	br	#0x5ba4		;
    5b9a:	0f 47       	mov	r7,	r15	;
    5b9c:	2f 53       	incd	r15		;
    5b9e:	81 4f 18 00 	mov	r15,	24(r1)	; 0x0018
    5ba2:	2c 47       	mov	@r7,	r12	;
    5ba4:	0d 4c       	mov	r12,	r13	;
    5ba6:	3d b0 00 80 	bit	#32768,	r13	;#0x8000
    5baa:	0e 7e       	subc	r14,	r14	;
    5bac:	3e e3       	inv	r14		;
    5bae:	81 4d 0e 00 	mov	r13,	14(r1)	; 0x000e
    5bb2:	81 4e 10 00 	mov	r14,	16(r1)	; 0x0010
    5bb6:	1c 41 10 00 	mov	16(r1),	r12	;0x00010
    5bba:	0c 93       	cmp	#0,	r12	;r3 As==00
    5bbc:	02 38       	jl	$+6      	;abs 0x5bc2
    5bbe:	30 40 ba 61 	br	#0x61ba		;
    5bc2:	0c 43       	clr	r12		;
    5bc4:	0d 43       	clr	r13		;
    5bc6:	0e 4c       	mov	r12,	r14	;
    5bc8:	0f 4d       	mov	r13,	r15	;
    5bca:	1e 81 0e 00 	sub	14(r1),	r14	;0x0000e
    5bce:	1f 71 10 00 	subc	16(r1),	r15	;0x00010
    5bd2:	81 4e 0e 00 	mov	r14,	14(r1)	; 0x000e
    5bd6:	81 4f 10 00 	mov	r15,	16(r1)	; 0x0010
    5bda:	f1 40 2d 00 	mov.b	#45,	55(r1)	;#0x002d, 0x0037
    5bde:	37 00 
    5be0:	07 48       	mov	r8,	r7	;
    5be2:	1c 43       	mov	#1,	r12	;r3 As==01
    5be4:	30 40 be 61 	br	#0x61be		;
    5be8:	81 49 2c 00 	mov	r9,	44(r1)	; 0x002c
    5bec:	c1 4c 37 00 	mov.b	r12,	55(r1)	; 0x0037
    5bf0:	17 53       	inc	r7		;
    5bf2:	17 c3       	bic	#1,	r7	;r3 As==01
    5bf4:	0f 47       	mov	r7,	r15	;
    5bf6:	3f 52       	add	#8,	r15	;r2 As==11
    5bf8:	81 4f 18 00 	mov	r15,	24(r1)	; 0x0018
    5bfc:	a1 47 20 00 	mov	@r7,	32(r1)	; 0x0020
    5c00:	91 47 02 00 	mov	2(r7),	34(r1)	; 0x0022
    5c04:	22 00 
    5c06:	91 47 04 00 	mov	4(r7),	36(r1)	; 0x0024
    5c0a:	24 00 
    5c0c:	91 47 06 00 	mov	6(r7),	38(r1)	; 0x0026
    5c10:	26 00 
    5c12:	37 40 7a a2 	mov	#41594,	r7	;#0xa27a
    5c16:	1c 41 20 00 	mov	32(r1),	r12	;0x00020
    5c1a:	1d 41 22 00 	mov	34(r1),	r13	;0x00022
    5c1e:	1e 41 24 00 	mov	36(r1),	r14	;0x00024
    5c22:	1f 41 26 00 	mov	38(r1),	r15	;0x00026
    5c26:	87 12       	call	r7		;
    5c28:	1c 93       	cmp	#1,	r12	;r3 As==01
    5c2a:	25 20       	jnz	$+76     	;abs 0x5c76
    5c2c:	81 43 00 00 	mov	#0,	0(r1)	;r3 As==00
    5c30:	81 43 02 00 	mov	#0,	2(r1)	;r3 As==00
    5c34:	81 43 04 00 	mov	#0,	4(r1)	;r3 As==00
    5c38:	81 43 06 00 	mov	#0,	6(r1)	;r3 As==00
    5c3c:	1c 41 20 00 	mov	32(r1),	r12	;0x00020
    5c40:	1d 41 22 00 	mov	34(r1),	r13	;0x00022
    5c44:	1e 41 24 00 	mov	36(r1),	r14	;0x00024
    5c48:	1f 41 26 00 	mov	38(r1),	r15	;0x00026
    5c4c:	b0 12 92 c5 	call	#50578		;#0xc592
    5c50:	0c 93       	cmp	#0,	r12	;r3 As==00
    5c52:	03 34       	jge	$+8      	;abs 0x5c5a
    5c54:	f1 40 2d 00 	mov.b	#45,	55(r1)	;#0x002d, 0x0037
    5c58:	37 00 
    5c5a:	3c 40 47 00 	mov	#71,	r12	;#0x0047
    5c5e:	0c 99       	cmp	r9,	r12	;
    5c60:	05 38       	jl	$+12     	;abs 0x5c6c
    5c62:	b1 40 0c 44 	mov	#17420,	18(r1)	;#0x440c, 0x0012
    5c66:	12 00 
    5c68:	30 40 a4 5c 	br	#0x5ca4		;
    5c6c:	b1 40 10 44 	mov	#17424,	18(r1)	;#0x4410, 0x0012
    5c70:	12 00 
    5c72:	30 40 a4 5c 	br	#0x5ca4		;
    5c76:	1c 41 20 00 	mov	32(r1),	r12	;0x00020
    5c7a:	1d 41 22 00 	mov	34(r1),	r13	;0x00022
    5c7e:	1e 41 24 00 	mov	36(r1),	r14	;0x00024
    5c82:	1f 41 26 00 	mov	38(r1),	r15	;0x00026
    5c86:	87 12       	call	r7		;
    5c88:	0c 93       	cmp	#0,	r12	;r3 As==00
    5c8a:	16 20       	jnz	$+46     	;abs 0x5cb8
    5c8c:	3d 40 47 00 	mov	#71,	r13	;#0x0047
    5c90:	0d 99       	cmp	r9,	r13	;
    5c92:	05 38       	jl	$+12     	;abs 0x5c9e
    5c94:	b1 40 14 44 	mov	#17428,	18(r1)	;#0x4414, 0x0012
    5c98:	12 00 
    5c9a:	30 40 a4 5c 	br	#0x5ca4		;
    5c9e:	b1 40 18 44 	mov	#17432,	18(r1)	;#0x4418, 0x0012
    5ca2:	12 00 
    5ca4:	34 f0 7f ff 	and	#65407,	r4	;#0xff7f
    5ca8:	81 44 14 00 	mov	r4,	20(r1)	; 0x0014
    5cac:	38 40 03 00 	mov	#3,	r8	;
    5cb0:	07 43       	clr	r7		;
    5cb2:	04 47       	mov	r7,	r4	;
    5cb4:	30 40 84 63 	br	#0x6384		;
    5cb8:	38 93       	cmp	#-1,	r8	;r3 As==11
    5cba:	0b 24       	jz	$+24     	;abs 0x5cd2
    5cbc:	0c 49       	mov	r9,	r12	;
    5cbe:	3c f0 df ff 	and	#65503,	r12	;#0xffdf
    5cc2:	3c 90 47 00 	cmp	#71,	r12	;#0x0047
    5cc6:	07 20       	jnz	$+16     	;abs 0x5cd6
    5cc8:	08 93       	cmp	#0,	r8	;r3 As==00
    5cca:	05 20       	jnz	$+12     	;abs 0x5cd6
    5ccc:	18 43       	mov	#1,	r8	;r3 As==01
    5cce:	30 40 d6 5c 	br	#0x5cd6		;
    5cd2:	38 40 06 00 	mov	#6,	r8	;
    5cd6:	0e 44       	mov	r4,	r14	;
    5cd8:	3e d0 00 01 	bis	#256,	r14	;#0x0100
    5cdc:	81 4e 14 00 	mov	r14,	20(r1)	; 0x0014
    5ce0:	81 93 26 00 	cmp	#0,	38(r1)	;r3 As==00, 0x0026
    5ce4:	0b 34       	jge	$+24     	;abs 0x5cfc
    5ce6:	1f 41 26 00 	mov	38(r1),	r15	;0x00026
    5cea:	3f 50 00 80 	add	#32768,	r15	;#0x8000
    5cee:	81 4f 1e 00 	mov	r15,	30(r1)	; 0x001e
    5cf2:	b1 40 2d 00 	mov	#45,	46(r1)	;#0x002d, 0x002e
    5cf6:	2e 00 
    5cf8:	30 40 06 5d 	br	#0x5d06		;
    5cfc:	91 41 26 00 	mov	38(r1),	30(r1)	;0x00026, 0x001e
    5d00:	1e 00 
    5d02:	81 43 2e 00 	mov	#0,	46(r1)	;r3 As==00, 0x002e
    5d06:	07 49       	mov	r9,	r7	;
    5d08:	37 f0 df ff 	and	#65503,	r7	;#0xffdf
    5d0c:	0b 48       	mov	r8,	r11	;
    5d0e:	37 90 46 00 	cmp	#70,	r7	;#0x0046
    5d12:	07 24       	jz	$+16     	;abs 0x5d22
    5d14:	37 90 45 00 	cmp	#69,	r7	;#0x0045
    5d18:	08 20       	jnz	$+18     	;abs 0x5d2a
    5d1a:	1b 53       	inc	r11		;
    5d1c:	2d 43       	mov	#2,	r13	;r3 As==10
    5d1e:	30 40 2c 5d 	br	#0x5d2c		;
    5d22:	3d 40 03 00 	mov	#3,	r13	;
    5d26:	30 40 2c 5d 	br	#0x5d2c		;
    5d2a:	2d 43       	mov	#2,	r13	;r3 As==10
    5d2c:	91 41 20 00 	mov	32(r1),	0(r1)	;0x00020
    5d30:	00 00 
    5d32:	91 41 22 00 	mov	34(r1),	2(r1)	;0x00022
    5d36:	02 00 
    5d38:	91 41 24 00 	mov	36(r1),	4(r1)	;0x00024
    5d3c:	04 00 
    5d3e:	91 41 1e 00 	mov	30(r1),	6(r1)	;0x0001e
    5d42:	06 00 
    5d44:	3c 40 3a 00 	mov	#58,	r12	;#0x003a
    5d48:	0c 51       	add	r1,	r12	;
    5d4a:	81 4c 08 00 	mov	r12,	8(r1)	;
    5d4e:	3e 40 4c 00 	mov	#76,	r14	;#0x004c
    5d52:	0e 51       	add	r1,	r14	;
    5d54:	81 4e 0a 00 	mov	r14,	10(r1)	; 0x000a
    5d58:	0c 46       	mov	r6,	r12	;
    5d5a:	0e 4b       	mov	r11,	r14	;
    5d5c:	0f 41       	mov	r1,	r15	;
    5d5e:	3f 50 38 00 	add	#56,	r15	;#0x0038
    5d62:	81 4b 0c 00 	mov	r11,	12(r1)	; 0x000c
    5d66:	b0 12 be 72 	call	#29374		;#0x72be
    5d6a:	81 4c 12 00 	mov	r12,	18(r1)	; 0x0012
    5d6e:	1b 41 0c 00 	mov	12(r1),	r11	;0x0000c
    5d72:	37 90 47 00 	cmp	#71,	r7	;#0x0047
    5d76:	0d 20       	jnz	$+28     	;abs 0x5d92
    5d78:	14 b3       	bit	#1,	r4	;r3 As==01
    5d7a:	0b 20       	jnz	$+24     	;abs 0x5d92
    5d7c:	1f 41 4c 00 	mov	76(r1),	r15	;0x0004c
    5d80:	1f 81 12 00 	sub	18(r1),	r15	;0x00012
    5d84:	81 4f 16 00 	mov	r15,	22(r1)	; 0x0016
    5d88:	37 90 47 00 	cmp	#71,	r7	;#0x0047
    5d8c:	5f 20       	jnz	$+192    	;abs 0x5e4c
    5d8e:	30 40 36 5e 	br	#0x5e36		;
    5d92:	1c 41 12 00 	mov	18(r1),	r12	;0x00012
    5d96:	0c 5b       	add	r11,	r12	;
    5d98:	81 4c 16 00 	mov	r12,	22(r1)	; 0x0016
    5d9c:	37 90 46 00 	cmp	#70,	r7	;#0x0046
    5da0:	25 20       	jnz	$+76     	;abs 0x5dec
    5da2:	1c 41 12 00 	mov	18(r1),	r12	;0x00012
    5da6:	fc 90 30 00 	cmp.b	#48,	0(r12)	;#0x0030
    5daa:	00 00 
    5dac:	1c 20       	jnz	$+58     	;abs 0x5de6
    5dae:	81 43 00 00 	mov	#0,	0(r1)	;r3 As==00
    5db2:	81 43 02 00 	mov	#0,	2(r1)	;r3 As==00
    5db6:	81 43 04 00 	mov	#0,	4(r1)	;r3 As==00
    5dba:	81 43 06 00 	mov	#0,	6(r1)	;r3 As==00
    5dbe:	1c 41 20 00 	mov	32(r1),	r12	;0x00020
    5dc2:	1d 41 22 00 	mov	34(r1),	r13	;0x00022
    5dc6:	1e 41 24 00 	mov	36(r1),	r14	;0x00024
    5dca:	1f 41 1e 00 	mov	30(r1),	r15	;0x0001e
    5dce:	81 4b 0c 00 	mov	r11,	12(r1)	; 0x000c
    5dd2:	b0 12 36 c4 	call	#50230		;#0xc436
    5dd6:	1b 41 0c 00 	mov	12(r1),	r11	;0x0000c
    5dda:	0c 93       	cmp	#0,	r12	;r3 As==00
    5ddc:	04 24       	jz	$+10     	;abs 0x5de6
    5dde:	1d 43       	mov	#1,	r13	;r3 As==01
    5de0:	0d 8b       	sub	r11,	r13	;
    5de2:	81 4d 38 00 	mov	r13,	56(r1)	; 0x0038
    5de6:	91 51 38 00 	rla	56(r1)		;#0x00038
    5dea:	16 00 
    5dec:	81 43 00 00 	mov	#0,	0(r1)	;r3 As==00
    5df0:	81 43 02 00 	mov	#0,	2(r1)	;r3 As==00
    5df4:	81 43 04 00 	mov	#0,	4(r1)	;r3 As==00
    5df8:	81 43 06 00 	mov	#0,	6(r1)	;r3 As==00
    5dfc:	1c 41 20 00 	mov	32(r1),	r12	;0x00020
    5e00:	1d 41 22 00 	mov	34(r1),	r13	;0x00022
    5e04:	1e 41 24 00 	mov	36(r1),	r14	;0x00024
    5e08:	1f 41 1e 00 	mov	30(r1),	r15	;0x0001e
    5e0c:	b0 12 c2 c3 	call	#50114		;#0xc3c2
    5e10:	0c 93       	cmp	#0,	r12	;r3 As==00
    5e12:	03 20       	jnz	$+8      	;abs 0x5e1a
    5e14:	91 41 16 00 	mov	22(r1),	76(r1)	;0x00016, 0x004c
    5e18:	4c 00 
    5e1a:	1c 41 4c 00 	mov	76(r1),	r12	;0x0004c
    5e1e:	1c 91 16 00 	cmp	22(r1),	r12	;0x00016
    5e22:	ac 2f       	jc	$-166    	;abs 0x5d7c
    5e24:	0e 4c       	mov	r12,	r14	;
    5e26:	1e 53       	inc	r14		;
    5e28:	81 4e 4c 00 	mov	r14,	76(r1)	; 0x004c
    5e2c:	fc 40 30 00 	mov.b	#48,	0(r12)	;#0x0030
    5e30:	00 00 
    5e32:	30 40 1a 5e 	br	#0x5e1a		;
    5e36:	1c 41 38 00 	mov	56(r1),	r12	;0x00038
    5e3a:	3c 90 fd ff 	cmp	#65533,	r12	;#0xfffd
    5e3e:	02 38       	jl	$+6      	;abs 0x5e44
    5e40:	08 9c       	cmp	r12,	r8	;
    5e42:	82 34       	jge	$+262    	;abs 0x5f48
    5e44:	39 50 fe ff 	add	#65534,	r9	;#0xfffe
    5e48:	30 40 54 5e 	br	#0x5e54		;
    5e4c:	3f 40 65 00 	mov	#101,	r15	;#0x0065
    5e50:	0f 99       	cmp	r9,	r15	;
    5e52:	62 38       	jl	$+198    	;abs 0x5f18
    5e54:	18 41 38 00 	mov	56(r1),	r8	;0x00038
    5e58:	38 53       	add	#-1,	r8	;r3 As==11
    5e5a:	81 48 38 00 	mov	r8,	56(r1)	; 0x0038
    5e5e:	c1 49 45 00 	mov.b	r9,	69(r1)	; 0x0045
    5e62:	08 93       	cmp	#0,	r8	;r3 As==00
    5e64:	08 34       	jge	$+18     	;abs 0x5e76
    5e66:	0c 43       	clr	r12		;
    5e68:	0c 88       	sub	r8,	r12	;
    5e6a:	08 4c       	mov	r12,	r8	;
    5e6c:	f1 40 2d 00 	mov.b	#45,	70(r1)	;#0x002d, 0x0046
    5e70:	46 00 
    5e72:	30 40 7c 5e 	br	#0x5e7c		;
    5e76:	f1 40 2b 00 	mov.b	#43,	70(r1)	;#0x002b, 0x0046
    5e7a:	46 00 
    5e7c:	3d 40 09 00 	mov	#9,	r13	;
    5e80:	0d 98       	cmp	r8,	r13	;
    5e82:	2c 34       	jge	$+90     	;abs 0x5edc
    5e84:	07 41       	mov	r1,	r7	;
    5e86:	37 50 53 00 	add	#83,	r7	;#0x0053
    5e8a:	37 53       	add	#-1,	r7	;r3 As==11
    5e8c:	0c 48       	mov	r8,	r12	;
    5e8e:	3d 40 0a 00 	mov	#10,	r13	;#0x000a
    5e92:	b0 12 62 51 	call	#20834		;#0x5162
    5e96:	7c 50 30 00 	add.b	#48,	r12	;#0x0030
    5e9a:	c7 4c 00 00 	mov.b	r12,	0(r7)	;
    5e9e:	0c 48       	mov	r8,	r12	;
    5ea0:	3d 40 0a 00 	mov	#10,	r13	;#0x000a
    5ea4:	b0 12 16 51 	call	#20758		;#0x5116
    5ea8:	08 4c       	mov	r12,	r8	;
    5eaa:	3e 40 09 00 	mov	#9,	r14	;
    5eae:	0e 9c       	cmp	r12,	r14	;
    5eb0:	ec 3b       	jl	$-38     	;abs 0x5e8a
    5eb2:	78 50 30 00 	add.b	#48,	r8	;#0x0030
    5eb6:	c7 48 ff ff 	mov.b	r8,	-1(r7)	; 0xffff
    5eba:	0c 41       	mov	r1,	r12	;
    5ebc:	3c 50 47 00 	add	#71,	r12	;#0x0047
    5ec0:	0f 47       	mov	r7,	r15	;
    5ec2:	3f 53       	add	#-1,	r15	;r3 As==11
    5ec4:	0e 41       	mov	r1,	r14	;
    5ec6:	3e 50 53 00 	add	#83,	r14	;#0x0053
    5eca:	0d 4c       	mov	r12,	r13	;
    5ecc:	0f 9e       	cmp	r14,	r15	;
    5ece:	10 2c       	jc	$+34     	;abs 0x5ef0
    5ed0:	ec 4f 00 00 	mov.b	@r15,	0(r12)	;
    5ed4:	1c 53       	inc	r12		;
    5ed6:	1f 53       	inc	r15		;
    5ed8:	30 40 ca 5e 	br	#0x5eca		;
    5edc:	f1 40 30 00 	mov.b	#48,	71(r1)	;#0x0030, 0x0047
    5ee0:	47 00 
    5ee2:	78 50 30 00 	add.b	#48,	r8	;#0x0030
    5ee6:	c1 48 48 00 	mov.b	r8,	72(r1)	; 0x0048
    5eea:	0d 41       	mov	r1,	r13	;
    5eec:	3d 50 49 00 	add	#73,	r13	;#0x0049
    5ef0:	0c 41       	mov	r1,	r12	;
    5ef2:	3c 50 45 00 	add	#69,	r12	;#0x0045
    5ef6:	0d 8c       	sub	r12,	r13	;
    5ef8:	81 4d 32 00 	mov	r13,	50(r1)	; 0x0032
    5efc:	08 4d       	mov	r13,	r8	;
    5efe:	18 51 16 00 	add	22(r1),	r8	;0x00016
    5f02:	1f 43       	mov	#1,	r15	;r3 As==01
    5f04:	1f 91 16 00 	cmp	22(r1),	r15	;0x00016
    5f08:	03 38       	jl	$+8      	;abs 0x5f10
    5f0a:	04 ff       	and	r15,	r4	;
    5f0c:	04 93       	cmp	#0,	r4	;r3 As==00
    5f0e:	40 24       	jz	$+130    	;abs 0x5f90
    5f10:	18 53       	inc	r8		;
    5f12:	04 43       	clr	r4		;
    5f14:	30 40 90 5f 	br	#0x5f90		;
    5f18:	39 90 66 00 	cmp	#102,	r9	;#0x0066
    5f1c:	1a 20       	jnz	$+54     	;abs 0x5f52
    5f1e:	1c 41 38 00 	mov	56(r1),	r12	;0x00038
    5f22:	0d 43       	clr	r13		;
    5f24:	0d 9c       	cmp	r12,	r13	;
    5f26:	08 34       	jge	$+18     	;abs 0x5f38
    5f28:	08 9d       	cmp	r13,	r8	;
    5f2a:	02 20       	jnz	$+6      	;abs 0x5f30
    5f2c:	14 b3       	bit	#1,	r4	;r3 As==01
    5f2e:	2b 24       	jz	$+88     	;abs 0x5f86
    5f30:	18 53       	inc	r8		;
    5f32:	0c 58       	add	r8,	r12	;
    5f34:	30 40 86 5f 	br	#0x5f86		;
    5f38:	08 93       	cmp	#0,	r8	;r3 As==00
    5f3a:	02 20       	jnz	$+6      	;abs 0x5f40
    5f3c:	14 b3       	bit	#1,	r4	;r3 As==01
    5f3e:	22 24       	jz	$+70     	;abs 0x5f84
    5f40:	0c 48       	mov	r8,	r12	;
    5f42:	2c 53       	incd	r12		;
    5f44:	30 40 86 5f 	br	#0x5f86		;
    5f48:	b1 40 67 00 	mov	#103,	44(r1)	;#0x0067, 0x002c
    5f4c:	2c 00 
    5f4e:	30 40 56 5f 	br	#0x5f56		;
    5f52:	81 49 2c 00 	mov	r9,	44(r1)	; 0x002c
    5f56:	1c 41 38 00 	mov	56(r1),	r12	;0x00038
    5f5a:	1c 91 16 00 	cmp	22(r1),	r12	;0x00016
    5f5e:	05 38       	jl	$+12     	;abs 0x5f6a
    5f60:	14 b3       	bit	#1,	r4	;r3 As==01
    5f62:	11 24       	jz	$+36     	;abs 0x5f86
    5f64:	1c 53       	inc	r12		;
    5f66:	30 40 86 5f 	br	#0x5f86		;
    5f6a:	0e 43       	clr	r14		;
    5f6c:	0e 9c       	cmp	r12,	r14	;
    5f6e:	04 38       	jl	$+10     	;abs 0x5f78
    5f70:	2d 43       	mov	#2,	r13	;r3 As==10
    5f72:	0d 8c       	sub	r12,	r13	;
    5f74:	30 40 7a 5f 	br	#0x5f7a		;
    5f78:	1d 43       	mov	#1,	r13	;r3 As==01
    5f7a:	1c 41 16 00 	mov	22(r1),	r12	;0x00016
    5f7e:	0c 5d       	add	r13,	r12	;
    5f80:	30 40 86 5f 	br	#0x5f86		;
    5f84:	1c 43       	mov	#1,	r12	;r3 As==01
    5f86:	14 41 38 00 	mov	56(r1),	r4	;0x00038
    5f8a:	19 41 2c 00 	mov	44(r1),	r9	;0x0002c
    5f8e:	08 4c       	mov	r12,	r8	;
    5f90:	81 93 2e 00 	cmp	#0,	46(r1)	;r3 As==00, 0x002e
    5f94:	f1 25       	jz	$+996    	;abs 0x6378
    5f96:	f1 40 2d 00 	mov.b	#45,	55(r1)	;#0x002d, 0x0037
    5f9a:	37 00 
    5f9c:	07 43       	clr	r7		;
    5f9e:	30 40 84 63 	br	#0x6384		;
    5fa2:	c1 4c 37 00 	mov.b	r12,	55(r1)	; 0x0037
    5fa6:	0c 47       	mov	r7,	r12	;
    5fa8:	2c 53       	incd	r12		;
    5faa:	2d 47       	mov	@r7,	r13	;
    5fac:	34 b0 10 00 	bit	#16,	r4	;#0x0010
    5fb0:	0e 24       	jz	$+30     	;abs 0x5fce
    5fb2:	1f 41 28 00 	mov	40(r1),	r15	;0x00028
    5fb6:	0e 4f       	mov	r15,	r14	;
    5fb8:	3e b0 00 80 	bit	#32768,	r14	;#0x8000
    5fbc:	0f 7f       	subc	r15,	r15	;
    5fbe:	3f e3       	inv	r15		;
    5fc0:	8d 4e 00 00 	mov	r14,	0(r13)	;
    5fc4:	8d 4f 02 00 	mov	r15,	2(r13)	;
    5fc8:	07 4c       	mov	r12,	r7	;
    5fca:	30 40 68 58 	br	#0x5868		;
    5fce:	9d 41 28 00 	mov	40(r1),	0(r13)	;0x00028
    5fd2:	00 00 
    5fd4:	07 4c       	mov	r12,	r7	;
    5fd6:	30 40 68 58 	br	#0x5868		;
    5fda:	34 d0 10 00 	bis	#16,	r4	;#0x0010
    5fde:	81 44 14 00 	mov	r4,	20(r1)	; 0x0014
    5fe2:	1d 41 14 00 	mov	20(r1),	r13	;0x00014
    5fe6:	3d f0 10 00 	and	#16,	r13	;#0x0010
    5fea:	17 53       	inc	r7		;
    5fec:	0d 93       	cmp	#0,	r13	;r3 As==00
    5fee:	0d 24       	jz	$+28     	;abs 0x600a
    5ff0:	17 c3       	bic	#1,	r7	;r3 As==01
    5ff2:	0c 47       	mov	r7,	r12	;
    5ff4:	2c 52       	add	#4,	r12	;r2 As==10
    5ff6:	81 4c 18 00 	mov	r12,	24(r1)	; 0x0018
    5ffa:	a1 47 0e 00 	mov	@r7,	14(r1)	; 0x000e
    5ffe:	91 47 02 00 	mov	2(r7),	16(r1)	; 0x0010
    6002:	10 00 
    6004:	0c 43       	clr	r12		;
    6006:	30 40 b0 61 	br	#0x61b0		;
    600a:	1c 41 14 00 	mov	20(r1),	r12	;0x00014
    600e:	3c f0 40 00 	and	#64,	r12	;#0x0040
    6012:	17 c3       	bic	#1,	r7	;r3 As==01
    6014:	0c 93       	cmp	#0,	r12	;r3 As==00
    6016:	0b 24       	jz	$+24     	;abs 0x602e
    6018:	0e 47       	mov	r7,	r14	;
    601a:	2e 53       	incd	r14		;
    601c:	81 4e 18 00 	mov	r14,	24(r1)	; 0x0018
    6020:	a1 47 0e 00 	mov	@r7,	14(r1)	; 0x000e
    6024:	81 4d 10 00 	mov	r13,	16(r1)	; 0x0010
    6028:	0c 4d       	mov	r13,	r12	;
    602a:	30 40 b0 61 	br	#0x61b0		;
    602e:	0f 47       	mov	r7,	r15	;
    6030:	2f 53       	incd	r15		;
    6032:	81 4f 18 00 	mov	r15,	24(r1)	; 0x0018
    6036:	a1 47 0e 00 	mov	@r7,	14(r1)	; 0x000e
    603a:	81 4c 10 00 	mov	r12,	16(r1)	; 0x0010
    603e:	30 40 b0 61 	br	#0x61b0		;
    6042:	0c 47       	mov	r7,	r12	;
    6044:	2c 53       	incd	r12		;
    6046:	81 4c 18 00 	mov	r12,	24(r1)	; 0x0018
    604a:	a1 47 0e 00 	mov	@r7,	14(r1)	; 0x000e
    604e:	81 43 10 00 	mov	#0,	16(r1)	;r3 As==00, 0x0010
    6052:	24 d3       	bis	#2,	r4	;r3 As==10
    6054:	81 44 14 00 	mov	r4,	20(r1)	; 0x0014
    6058:	f1 40 30 00 	mov.b	#48,	60(r1)	;#0x0030, 0x003c
    605c:	3c 00 
    605e:	f1 40 78 00 	mov.b	#120,	61(r1)	;#0x0078, 0x003d
    6062:	3d 00 
    6064:	b1 40 2d 44 	mov	#17453,	52(r1)	;#0x442d, 0x0034
    6068:	34 00 
    606a:	2c 43       	mov	#2,	r12	;r3 As==10
    606c:	39 40 78 00 	mov	#120,	r9	;#0x0078
    6070:	30 40 b0 61 	br	#0x61b0		;
    6074:	81 44 14 00 	mov	r4,	20(r1)	; 0x0014
    6078:	04 48       	mov	r8,	r4	;
    607a:	0d 47       	mov	r7,	r13	;
    607c:	2d 53       	incd	r13		;
    607e:	81 4d 18 00 	mov	r13,	24(r1)	; 0x0018
    6082:	a1 47 12 00 	mov	@r7,	18(r1)	; 0x0012
    6086:	c1 43 37 00 	mov.b	#0,	55(r1)	;r3 As==00, 0x0037
    608a:	1c 41 12 00 	mov	18(r1),	r12	;0x00012
    608e:	08 93       	cmp	#0,	r8	;r3 As==00
    6090:	0e 38       	jl	$+30     	;abs 0x60ae
    6092:	0d 43       	clr	r13		;
    6094:	0e 48       	mov	r8,	r14	;
    6096:	b0 12 e4 8f 	call	#36836		;#0x8fe4
    609a:	0c 93       	cmp	#0,	r12	;r3 As==00
    609c:	71 25       	jz	$+740    	;abs 0x6380
    609e:	08 4c       	mov	r12,	r8	;
    60a0:	18 81 12 00 	sub	18(r1),	r8	;0x00012
    60a4:	04 98       	cmp	r8,	r4	;
    60a6:	06 34       	jge	$+14     	;abs 0x60b4
    60a8:	08 44       	mov	r4,	r8	;
    60aa:	30 40 b4 60 	br	#0x60b4		;
    60ae:	b0 12 4c 57 	call	#22348		;#0x574c
    60b2:	08 4c       	mov	r12,	r8	;
    60b4:	07 43       	clr	r7		;
    60b6:	04 47       	mov	r7,	r4	;
    60b8:	30 40 84 63 	br	#0x6384		;
    60bc:	34 d0 10 00 	bis	#16,	r4	;#0x0010
    60c0:	81 44 14 00 	mov	r4,	20(r1)	; 0x0014
    60c4:	1c 41 14 00 	mov	20(r1),	r12	;0x00014
    60c8:	3c f0 10 00 	and	#16,	r12	;#0x0010
    60cc:	17 53       	inc	r7		;
    60ce:	0c 93       	cmp	#0,	r12	;r3 As==00
    60d0:	0d 24       	jz	$+28     	;abs 0x60ec
    60d2:	17 c3       	bic	#1,	r7	;r3 As==01
    60d4:	0e 47       	mov	r7,	r14	;
    60d6:	2e 52       	add	#4,	r14	;r2 As==10
    60d8:	81 4e 18 00 	mov	r14,	24(r1)	; 0x0018
    60dc:	a1 47 0e 00 	mov	@r7,	14(r1)	; 0x000e
    60e0:	91 47 02 00 	mov	2(r7),	16(r1)	; 0x0010
    60e4:	10 00 
    60e6:	1c 43       	mov	#1,	r12	;r3 As==01
    60e8:	30 40 b0 61 	br	#0x61b0		;
    60ec:	1d 41 14 00 	mov	20(r1),	r13	;0x00014
    60f0:	3d f0 40 00 	and	#64,	r13	;#0x0040
    60f4:	17 c3       	bic	#1,	r7	;r3 As==01
    60f6:	0d 93       	cmp	#0,	r13	;r3 As==00
    60f8:	0b 24       	jz	$+24     	;abs 0x6110
    60fa:	0f 47       	mov	r7,	r15	;
    60fc:	2f 53       	incd	r15		;
    60fe:	81 4f 18 00 	mov	r15,	24(r1)	; 0x0018
    6102:	a1 47 0e 00 	mov	@r7,	14(r1)	; 0x000e
    6106:	81 4c 10 00 	mov	r12,	16(r1)	; 0x0010
    610a:	1c 43       	mov	#1,	r12	;r3 As==01
    610c:	30 40 b0 61 	br	#0x61b0		;
    6110:	0c 47       	mov	r7,	r12	;
    6112:	2c 53       	incd	r12		;
    6114:	81 4c 18 00 	mov	r12,	24(r1)	; 0x0018
    6118:	a1 47 0e 00 	mov	@r7,	14(r1)	; 0x000e
    611c:	81 4d 10 00 	mov	r13,	16(r1)	; 0x0010
    6120:	1c 43       	mov	#1,	r12	;r3 As==01
    6122:	30 40 b0 61 	br	#0x61b0		;
    6126:	c1 4c 37 00 	mov.b	r12,	55(r1)	; 0x0037
    612a:	81 44 14 00 	mov	r4,	20(r1)	; 0x0014
    612e:	b1 40 2d 44 	mov	#17453,	52(r1)	;#0x442d, 0x0034
    6132:	34 00 
    6134:	0c 44       	mov	r4,	r12	;
    6136:	3c f0 10 00 	and	#16,	r12	;#0x0010
    613a:	17 53       	inc	r7		;
    613c:	0c 93       	cmp	#0,	r12	;r3 As==00
    613e:	0c 24       	jz	$+26     	;abs 0x6158
    6140:	17 c3       	bic	#1,	r7	;r3 As==01
    6142:	0d 47       	mov	r7,	r13	;
    6144:	2d 52       	add	#4,	r13	;r2 As==10
    6146:	81 4d 18 00 	mov	r13,	24(r1)	; 0x0018
    614a:	a1 47 0e 00 	mov	@r7,	14(r1)	; 0x000e
    614e:	91 47 02 00 	mov	2(r7),	16(r1)	; 0x0010
    6152:	10 00 
    6154:	30 40 88 61 	br	#0x6188		;
    6158:	0d 44       	mov	r4,	r13	;
    615a:	3d f0 40 00 	and	#64,	r13	;#0x0040
    615e:	17 c3       	bic	#1,	r7	;r3 As==01
    6160:	0d 93       	cmp	#0,	r13	;r3 As==00
    6162:	0a 24       	jz	$+22     	;abs 0x6178
    6164:	0e 47       	mov	r7,	r14	;
    6166:	2e 53       	incd	r14		;
    6168:	81 4e 18 00 	mov	r14,	24(r1)	; 0x0018
    616c:	a1 47 0e 00 	mov	@r7,	14(r1)	; 0x000e
    6170:	81 4c 10 00 	mov	r12,	16(r1)	; 0x0010
    6174:	30 40 88 61 	br	#0x6188		;
    6178:	0f 47       	mov	r7,	r15	;
    617a:	2f 53       	incd	r15		;
    617c:	81 4f 18 00 	mov	r15,	24(r1)	; 0x0018
    6180:	a1 47 0e 00 	mov	@r7,	14(r1)	; 0x000e
    6184:	81 4d 10 00 	mov	r13,	16(r1)	; 0x0010
    6188:	14 b3       	bit	#1,	r4	;r3 As==01
    618a:	11 24       	jz	$+36     	;abs 0x61ae
    618c:	1c 41 0e 00 	mov	14(r1),	r12	;0x0000e
    6190:	1c d1 10 00 	bis	16(r1),	r12	;0x00010
    6194:	0c 93       	cmp	#0,	r12	;r3 As==00
    6196:	0b 24       	jz	$+24     	;abs 0x61ae
    6198:	f1 40 30 00 	mov.b	#48,	60(r1)	;#0x0030, 0x003c
    619c:	3c 00 
    619e:	c1 49 3d 00 	mov.b	r9,	61(r1)	; 0x003d
    61a2:	24 d3       	bis	#2,	r4	;r3 As==10
    61a4:	81 44 14 00 	mov	r4,	20(r1)	; 0x0014
    61a8:	2c 43       	mov	#2,	r12	;r3 As==10
    61aa:	30 40 b0 61 	br	#0x61b0		;
    61ae:	2c 43       	mov	#2,	r12	;r3 As==10
    61b0:	c1 43 37 00 	mov.b	#0,	55(r1)	;r3 As==00, 0x0037
    61b4:	07 48       	mov	r8,	r7	;
    61b6:	30 40 be 61 	br	#0x61be		;
    61ba:	07 48       	mov	r8,	r7	;
    61bc:	1c 43       	mov	#1,	r12	;r3 As==01
    61be:	08 93       	cmp	#0,	r8	;r3 As==00
    61c0:	03 38       	jl	$+8      	;abs 0x61c8
    61c2:	b1 f0 7f ff 	and	#65407,	20(r1)	;#0xff7f, 0x0014
    61c6:	14 00 
    61c8:	1d 41 0e 00 	mov	14(r1),	r13	;0x0000e
    61cc:	1d d1 10 00 	bis	16(r1),	r13	;0x00010
    61d0:	0d 93       	cmp	#0,	r13	;r3 As==00
    61d2:	06 20       	jnz	$+14     	;abs 0x61e0
    61d4:	08 93       	cmp	#0,	r8	;r3 As==00
    61d6:	02 24       	jz	$+6      	;abs 0x61dc
    61d8:	30 40 2c 6e 	br	#0x6e2c		;
    61dc:	30 40 10 63 	br	#0x6310		;
    61e0:	5c 93       	cmp.b	#1,	r12	;r3 As==01
    61e2:	32 24       	jz	$+102    	;abs 0x6248
    61e4:	6c 93       	cmp.b	#2,	r12	;r3 As==10
    61e6:	72 24       	jz	$+230    	;abs 0x62cc
    61e8:	0c 41       	mov	r1,	r12	;
    61ea:	3c 50 9c 00 	add	#156,	r12	;#0x009c
    61ee:	81 4c 12 00 	mov	r12,	18(r1)	; 0x0012
    61f2:	b1 53 12 00 	add	#-1,	18(r1)	;r3 As==11, 0x0012
    61f6:	5c 41 0e 00 	mov.b	14(r1),	r12	;0x0000e
    61fa:	7c f0 07 00 	and.b	#7,	r12	;
    61fe:	7c 50 30 00 	add.b	#48,	r12	;#0x0030
    6202:	48 4c       	mov.b	r12,	r8	;
    6204:	1d 41 12 00 	mov	18(r1),	r13	;0x00012
    6208:	cd 4c 00 00 	mov.b	r12,	0(r13)	;
    620c:	1c 41 0e 00 	mov	14(r1),	r12	;0x0000e
    6210:	1d 41 10 00 	mov	16(r1),	r13	;0x00010
    6214:	b0 12 46 52 	call	#21062		;#0x5246
    6218:	81 4c 0e 00 	mov	r12,	14(r1)	; 0x000e
    621c:	81 4d 10 00 	mov	r13,	16(r1)	; 0x0010
    6220:	1c 41 0e 00 	mov	14(r1),	r12	;0x0000e
    6224:	0c dd       	bis	r13,	r12	;
    6226:	0c 93       	cmp	#0,	r12	;r3 As==00
    6228:	e4 23       	jnz	$-54     	;abs 0x61f2
    622a:	1c 41 12 00 	mov	18(r1),	r12	;0x00012
    622e:	91 b3 14 00 	bit	#1,	20(r1)	;r3 As==01, 0x0014
    6232:	82 24       	jz	$+262    	;abs 0x6338
    6234:	38 90 30 00 	cmp	#48,	r8	;#0x0030
    6238:	7f 24       	jz	$+256    	;abs 0x6338
    623a:	b1 53 12 00 	add	#-1,	18(r1)	;r3 As==11, 0x0012
    623e:	fc 40 30 00 	mov.b	#48,	-1(r12)	;#0x0030, 0xffff
    6242:	ff ff 
    6244:	30 40 38 63 	br	#0x6338		;
    6248:	1c 41 10 00 	mov	16(r1),	r12	;0x00010
    624c:	0c 93       	cmp	#0,	r12	;r3 As==00
    624e:	12 20       	jnz	$+38     	;abs 0x6274
    6250:	3e 40 09 00 	mov	#9,	r14	;
    6254:	1e 91 0e 00 	cmp	14(r1),	r14	;0x0000e
    6258:	0d 28       	jnc	$+28     	;abs 0x6274
    625a:	5f 41 0e 00 	mov.b	14(r1),	r15	;0x0000e
    625e:	7f 50 30 00 	add.b	#48,	r15	;#0x0030
    6262:	c1 4f 9b 00 	mov.b	r15,	155(r1)	; 0x009b
    6266:	0c 41       	mov	r1,	r12	;
    6268:	3c 50 9b 00 	add	#155,	r12	;#0x009b
    626c:	81 4c 12 00 	mov	r12,	18(r1)	; 0x0012
    6270:	30 40 38 63 	br	#0x6338		;
    6274:	0c 41       	mov	r1,	r12	;
    6276:	3c 50 9c 00 	add	#156,	r12	;#0x009c
    627a:	81 4c 12 00 	mov	r12,	18(r1)	; 0x0012
    627e:	34 40 38 c9 	mov	#51512,	r4	;#0xc938
    6282:	38 40 2a c9 	mov	#51498,	r8	;#0xc92a
    6286:	b1 53 12 00 	add	#-1,	18(r1)	;r3 As==11, 0x0012
    628a:	1c 41 0e 00 	mov	14(r1),	r12	;0x0000e
    628e:	1d 41 10 00 	mov	16(r1),	r13	;0x00010
    6292:	3e 40 0a 00 	mov	#10,	r14	;#0x000a
    6296:	0f 43       	clr	r15		;
    6298:	84 12       	call	r4		;
    629a:	7c 50 30 00 	add.b	#48,	r12	;#0x0030
    629e:	1d 41 12 00 	mov	18(r1),	r13	;0x00012
    62a2:	cd 4c 00 00 	mov.b	r12,	0(r13)	;
    62a6:	1c 41 0e 00 	mov	14(r1),	r12	;0x0000e
    62aa:	1d 41 10 00 	mov	16(r1),	r13	;0x00010
    62ae:	3e 40 0a 00 	mov	#10,	r14	;#0x000a
    62b2:	0f 43       	clr	r15		;
    62b4:	88 12       	call	r8		;
    62b6:	81 4c 0e 00 	mov	r12,	14(r1)	; 0x000e
    62ba:	81 4d 10 00 	mov	r13,	16(r1)	; 0x0010
    62be:	1c 41 0e 00 	mov	14(r1),	r12	;0x0000e
    62c2:	0c dd       	bis	r13,	r12	;
    62c4:	0c 93       	cmp	#0,	r12	;r3 As==00
    62c6:	df 23       	jnz	$-64     	;abs 0x6286
    62c8:	30 40 38 63 	br	#0x6338		;
    62cc:	0c 41       	mov	r1,	r12	;
    62ce:	3c 50 9c 00 	add	#156,	r12	;#0x009c
    62d2:	81 4c 12 00 	mov	r12,	18(r1)	; 0x0012
    62d6:	b1 53 12 00 	add	#-1,	18(r1)	;r3 As==11, 0x0012
    62da:	1c 41 0e 00 	mov	14(r1),	r12	;0x0000e
    62de:	3c f0 0f 00 	and	#15,	r12	;#0x000f
    62e2:	1c 51 34 00 	add	52(r1),	r12	;0x00034
    62e6:	1d 41 12 00 	mov	18(r1),	r13	;0x00012
    62ea:	ed 4c 00 00 	mov.b	@r12,	0(r13)	;
    62ee:	1c 41 0e 00 	mov	14(r1),	r12	;0x0000e
    62f2:	1d 41 10 00 	mov	16(r1),	r13	;0x00010
    62f6:	b0 12 40 52 	call	#21056		;#0x5240
    62fa:	81 4c 0e 00 	mov	r12,	14(r1)	; 0x000e
    62fe:	81 4d 10 00 	mov	r13,	16(r1)	; 0x0010
    6302:	1c 41 0e 00 	mov	14(r1),	r12	;0x0000e
    6306:	0c dd       	bis	r13,	r12	;
    6308:	0c 93       	cmp	#0,	r12	;r3 As==00
    630a:	e5 23       	jnz	$-52     	;abs 0x62d6
    630c:	30 40 38 63 	br	#0x6338		;
    6310:	0c 93       	cmp	#0,	r12	;r3 As==00
    6312:	0d 20       	jnz	$+28     	;abs 0x632e
    6314:	91 b3 14 00 	bit	#1,	20(r1)	;r3 As==01, 0x0014
    6318:	0a 24       	jz	$+22     	;abs 0x632e
    631a:	f1 40 30 00 	mov.b	#48,	155(r1)	;#0x0030, 0x009b
    631e:	9b 00 
    6320:	0c 41       	mov	r1,	r12	;
    6322:	3c 50 9b 00 	add	#155,	r12	;#0x009b
    6326:	81 4c 12 00 	mov	r12,	18(r1)	; 0x0012
    632a:	30 40 38 63 	br	#0x6338		;
    632e:	0c 41       	mov	r1,	r12	;
    6330:	3c 50 9c 00 	add	#156,	r12	;#0x009c
    6334:	81 4c 12 00 	mov	r12,	18(r1)	; 0x0012
    6338:	38 40 9c 00 	mov	#156,	r8	;#0x009c
    633c:	08 51       	add	r1,	r8	;
    633e:	18 81 12 00 	sub	18(r1),	r8	;0x00012
    6342:	04 43       	clr	r4		;
    6344:	30 40 84 63 	br	#0x6384		;
    6348:	c1 4c 37 00 	mov.b	r12,	55(r1)	; 0x0037
    634c:	09 93       	cmp	#0,	r9	;r3 As==00
    634e:	02 20       	jnz	$+6      	;abs 0x6354
    6350:	30 40 04 6e 	br	#0x6e04		;
    6354:	c1 49 74 00 	mov.b	r9,	116(r1)	; 0x0074
    6358:	c1 43 37 00 	mov.b	#0,	55(r1)	;r3 As==00, 0x0037
    635c:	81 44 14 00 	mov	r4,	20(r1)	; 0x0014
    6360:	81 47 18 00 	mov	r7,	24(r1)	; 0x0018
    6364:	18 43       	mov	#1,	r8	;r3 As==01
    6366:	07 43       	clr	r7		;
    6368:	04 47       	mov	r7,	r4	;
    636a:	0c 41       	mov	r1,	r12	;
    636c:	3c 50 74 00 	add	#116,	r12	;#0x0074
    6370:	81 4c 12 00 	mov	r12,	18(r1)	; 0x0012
    6374:	30 40 84 63 	br	#0x6384		;
    6378:	17 41 2e 00 	mov	46(r1),	r7	;0x0002e
    637c:	30 40 84 63 	br	#0x6384		;
    6380:	07 4c       	mov	r12,	r7	;
    6382:	04 4c       	mov	r12,	r4	;
    6384:	81 48 1e 00 	mov	r8,	30(r1)	; 0x001e
    6388:	08 97       	cmp	r7,	r8	;
    638a:	02 34       	jge	$+6      	;abs 0x6390
    638c:	81 47 1e 00 	mov	r7,	30(r1)	; 0x001e
    6390:	c1 93 37 00 	cmp.b	#0,	55(r1)	;r3 As==00, 0x0037
    6394:	02 24       	jz	$+6      	;abs 0x639a
    6396:	91 53 1e 00 	inc	30(r1)		;
    639a:	1d 41 14 00 	mov	20(r1),	r13	;0x00014
    639e:	2d f3       	and	#2,	r13	;r3 As==10
    63a0:	81 4d 2c 00 	mov	r13,	44(r1)	; 0x002c
    63a4:	0d 93       	cmp	#0,	r13	;r3 As==00
    63a6:	02 24       	jz	$+6      	;abs 0x63ac
    63a8:	a1 53 1e 00 	incd	30(r1)		;
    63ac:	1e 41 14 00 	mov	20(r1),	r14	;0x00014
    63b0:	3e f0 84 00 	and	#132,	r14	;#0x0084
    63b4:	81 4e 2e 00 	mov	r14,	46(r1)	; 0x002e
    63b8:	0e 93       	cmp	#0,	r14	;r3 As==00
    63ba:	54 20       	jnz	$+170    	;abs 0x6464
    63bc:	1f 41 1a 00 	mov	26(r1),	r15	;0x0001a
    63c0:	1f 81 1e 00 	sub	30(r1),	r15	;0x0001e
    63c4:	0c 43       	clr	r12		;
    63c6:	0c 9f       	cmp	r15,	r12	;
    63c8:	4d 34       	jge	$+156    	;abs 0x6464
    63ca:	3e 40 10 00 	mov	#16,	r14	;#0x0010
    63ce:	ba 40 50 44 	mov	#17488,	0(r10)	;#0x4450
    63d2:	00 00 
    63d4:	0e 9f       	cmp	r15,	r14	;
    63d6:	28 34       	jge	$+82     	;abs 0x6428
    63d8:	ba 40 10 00 	mov	#16,	2(r10)	;#0x0010
    63dc:	02 00 
    63de:	b1 50 10 00 	add	#16,	66(r1)	;#0x0010, 0x0042
    63e2:	42 00 
    63e4:	1c 41 40 00 	mov	64(r1),	r12	;0x00040
    63e8:	1c 53       	inc	r12		;
    63ea:	81 4c 40 00 	mov	r12,	64(r1)	; 0x0040
    63ee:	3d 40 07 00 	mov	#7,	r13	;
    63f2:	0d 9c       	cmp	r12,	r13	;
    63f4:	03 38       	jl	$+8      	;abs 0x63fc
    63f6:	2a 52       	add	#4,	r10	;r2 As==10
    63f8:	30 40 20 64 	br	#0x6420		;
    63fc:	0c 46       	mov	r6,	r12	;
    63fe:	0d 45       	mov	r5,	r13	;
    6400:	0e 41       	mov	r1,	r14	;
    6402:	3e 50 3e 00 	add	#62,	r14	;#0x003e
    6406:	81 4f 0c 00 	mov	r15,	12(r1)	; 0x000c
    640a:	b0 12 c2 a3 	call	#41922		;#0xa3c2
    640e:	1f 41 0c 00 	mov	12(r1),	r15	;0x0000c
    6412:	0c 93       	cmp	#0,	r12	;r3 As==00
    6414:	02 24       	jz	$+6      	;abs 0x641a
    6416:	30 40 18 6e 	br	#0x6e18		;
    641a:	0a 41       	mov	r1,	r10	;
    641c:	3a 50 54 00 	add	#84,	r10	;#0x0054
    6420:	3f 50 f0 ff 	add	#65520,	r15	;#0xfff0
    6424:	30 40 ca 63 	br	#0x63ca		;
    6428:	8a 4f 02 00 	mov	r15,	2(r10)	;
    642c:	81 5f 42 00 	add	r15,	66(r1)	; 0x0042
    6430:	1c 41 40 00 	mov	64(r1),	r12	;0x00040
    6434:	1c 53       	inc	r12		;
    6436:	81 4c 40 00 	mov	r12,	64(r1)	; 0x0040
    643a:	3f 40 07 00 	mov	#7,	r15	;
    643e:	0f 9c       	cmp	r12,	r15	;
    6440:	03 38       	jl	$+8      	;abs 0x6448
    6442:	2a 52       	add	#4,	r10	;r2 As==10
    6444:	30 40 64 64 	br	#0x6464		;
    6448:	0c 46       	mov	r6,	r12	;
    644a:	0d 45       	mov	r5,	r13	;
    644c:	0e 41       	mov	r1,	r14	;
    644e:	3e 50 3e 00 	add	#62,	r14	;#0x003e
    6452:	b0 12 c2 a3 	call	#41922		;#0xa3c2
    6456:	0c 93       	cmp	#0,	r12	;r3 As==00
    6458:	02 24       	jz	$+6      	;abs 0x645e
    645a:	30 40 18 6e 	br	#0x6e18		;
    645e:	0a 41       	mov	r1,	r10	;
    6460:	3a 50 54 00 	add	#84,	r10	;#0x0054
    6464:	c1 93 37 00 	cmp.b	#0,	55(r1)	;r3 As==00, 0x0037
    6468:	23 24       	jz	$+72     	;abs 0x64b0
    646a:	3c 40 37 00 	mov	#55,	r12	;#0x0037
    646e:	0c 51       	add	r1,	r12	;
    6470:	8a 4c 00 00 	mov	r12,	0(r10)	;
    6474:	9a 43 02 00 	mov	#1,	2(r10)	;r3 As==01
    6478:	91 53 42 00 	inc	66(r1)		;
    647c:	1c 41 40 00 	mov	64(r1),	r12	;0x00040
    6480:	1c 53       	inc	r12		;
    6482:	81 4c 40 00 	mov	r12,	64(r1)	; 0x0040
    6486:	3d 40 07 00 	mov	#7,	r13	;
    648a:	0d 9c       	cmp	r12,	r13	;
    648c:	03 38       	jl	$+8      	;abs 0x6494
    648e:	2a 52       	add	#4,	r10	;r2 As==10
    6490:	30 40 b0 64 	br	#0x64b0		;
    6494:	0c 46       	mov	r6,	r12	;
    6496:	0d 45       	mov	r5,	r13	;
    6498:	0e 41       	mov	r1,	r14	;
    649a:	3e 50 3e 00 	add	#62,	r14	;#0x003e
    649e:	b0 12 c2 a3 	call	#41922		;#0xa3c2
    64a2:	0c 93       	cmp	#0,	r12	;r3 As==00
    64a4:	02 24       	jz	$+6      	;abs 0x64aa
    64a6:	30 40 18 6e 	br	#0x6e18		;
    64aa:	0a 41       	mov	r1,	r10	;
    64ac:	3a 50 54 00 	add	#84,	r10	;#0x0054
    64b0:	81 93 2c 00 	cmp	#0,	44(r1)	;r3 As==00, 0x002c
    64b4:	23 24       	jz	$+72     	;abs 0x64fc
    64b6:	3e 40 3c 00 	mov	#60,	r14	;#0x003c
    64ba:	0e 51       	add	r1,	r14	;
    64bc:	8a 4e 00 00 	mov	r14,	0(r10)	;
    64c0:	aa 43 02 00 	mov	#2,	2(r10)	;r3 As==10
    64c4:	a1 53 42 00 	incd	66(r1)		;
    64c8:	1c 41 40 00 	mov	64(r1),	r12	;0x00040
    64cc:	1c 53       	inc	r12		;
    64ce:	81 4c 40 00 	mov	r12,	64(r1)	; 0x0040
    64d2:	3f 40 07 00 	mov	#7,	r15	;
    64d6:	0f 9c       	cmp	r12,	r15	;
    64d8:	03 38       	jl	$+8      	;abs 0x64e0
    64da:	2a 52       	add	#4,	r10	;r2 As==10
    64dc:	30 40 fc 64 	br	#0x64fc		;
    64e0:	0c 46       	mov	r6,	r12	;
    64e2:	0d 45       	mov	r5,	r13	;
    64e4:	0e 41       	mov	r1,	r14	;
    64e6:	3e 50 3e 00 	add	#62,	r14	;#0x003e
    64ea:	b0 12 c2 a3 	call	#41922		;#0xa3c2
    64ee:	0c 93       	cmp	#0,	r12	;r3 As==00
    64f0:	02 24       	jz	$+6      	;abs 0x64f6
    64f2:	30 40 18 6e 	br	#0x6e18		;
    64f6:	0a 41       	mov	r1,	r10	;
    64f8:	3a 50 54 00 	add	#84,	r10	;#0x0054
    64fc:	b1 90 80 00 	cmp	#128,	46(r1)	;#0x0080, 0x002e
    6500:	2e 00 
    6502:	54 20       	jnz	$+170    	;abs 0x65ac
    6504:	1f 41 1a 00 	mov	26(r1),	r15	;0x0001a
    6508:	1f 81 1e 00 	sub	30(r1),	r15	;0x0001e
    650c:	0c 43       	clr	r12		;
    650e:	0c 9f       	cmp	r15,	r12	;
    6510:	4d 34       	jge	$+156    	;abs 0x65ac
    6512:	3e 40 10 00 	mov	#16,	r14	;#0x0010
    6516:	ba 40 40 44 	mov	#17472,	0(r10)	;#0x4440
    651a:	00 00 
    651c:	0e 9f       	cmp	r15,	r14	;
    651e:	28 34       	jge	$+82     	;abs 0x6570
    6520:	ba 40 10 00 	mov	#16,	2(r10)	;#0x0010
    6524:	02 00 
    6526:	b1 50 10 00 	add	#16,	66(r1)	;#0x0010, 0x0042
    652a:	42 00 
    652c:	1c 41 40 00 	mov	64(r1),	r12	;0x00040
    6530:	1c 53       	inc	r12		;
    6532:	81 4c 40 00 	mov	r12,	64(r1)	; 0x0040
    6536:	3d 40 07 00 	mov	#7,	r13	;
    653a:	0d 9c       	cmp	r12,	r13	;
    653c:	03 38       	jl	$+8      	;abs 0x6544
    653e:	2a 52       	add	#4,	r10	;r2 As==10
    6540:	30 40 68 65 	br	#0x6568		;
    6544:	0c 46       	mov	r6,	r12	;
    6546:	0d 45       	mov	r5,	r13	;
    6548:	0e 41       	mov	r1,	r14	;
    654a:	3e 50 3e 00 	add	#62,	r14	;#0x003e
    654e:	81 4f 0c 00 	mov	r15,	12(r1)	; 0x000c
    6552:	b0 12 c2 a3 	call	#41922		;#0xa3c2
    6556:	1f 41 0c 00 	mov	12(r1),	r15	;0x0000c
    655a:	0c 93       	cmp	#0,	r12	;r3 As==00
    655c:	02 24       	jz	$+6      	;abs 0x6562
    655e:	30 40 18 6e 	br	#0x6e18		;
    6562:	0a 41       	mov	r1,	r10	;
    6564:	3a 50 54 00 	add	#84,	r10	;#0x0054
    6568:	3f 50 f0 ff 	add	#65520,	r15	;#0xfff0
    656c:	30 40 12 65 	br	#0x6512		;
    6570:	8a 4f 02 00 	mov	r15,	2(r10)	;
    6574:	81 5f 42 00 	add	r15,	66(r1)	; 0x0042
    6578:	1c 41 40 00 	mov	64(r1),	r12	;0x00040
    657c:	1c 53       	inc	r12		;
    657e:	81 4c 40 00 	mov	r12,	64(r1)	; 0x0040
    6582:	3f 40 07 00 	mov	#7,	r15	;
    6586:	0f 9c       	cmp	r12,	r15	;
    6588:	03 38       	jl	$+8      	;abs 0x6590
    658a:	2a 52       	add	#4,	r10	;r2 As==10
    658c:	30 40 ac 65 	br	#0x65ac		;
    6590:	0c 46       	mov	r6,	r12	;
    6592:	0d 45       	mov	r5,	r13	;
    6594:	0e 41       	mov	r1,	r14	;
    6596:	3e 50 3e 00 	add	#62,	r14	;#0x003e
    659a:	b0 12 c2 a3 	call	#41922		;#0xa3c2
    659e:	0c 93       	cmp	#0,	r12	;r3 As==00
    65a0:	02 24       	jz	$+6      	;abs 0x65a6
    65a2:	30 40 18 6e 	br	#0x6e18		;
    65a6:	0a 41       	mov	r1,	r10	;
    65a8:	3a 50 54 00 	add	#84,	r10	;#0x0054
    65ac:	07 88       	sub	r8,	r7	;
    65ae:	0c 43       	clr	r12		;
    65b0:	0c 97       	cmp	r7,	r12	;
    65b2:	49 34       	jge	$+148    	;abs 0x6646
    65b4:	3e 40 10 00 	mov	#16,	r14	;#0x0010
    65b8:	ba 40 40 44 	mov	#17472,	0(r10)	;#0x4440
    65bc:	00 00 
    65be:	0e 97       	cmp	r7,	r14	;
    65c0:	24 34       	jge	$+74     	;abs 0x660a
    65c2:	ba 40 10 00 	mov	#16,	2(r10)	;#0x0010
    65c6:	02 00 
    65c8:	b1 50 10 00 	add	#16,	66(r1)	;#0x0010, 0x0042
    65cc:	42 00 
    65ce:	1c 41 40 00 	mov	64(r1),	r12	;0x00040
    65d2:	1c 53       	inc	r12		;
    65d4:	81 4c 40 00 	mov	r12,	64(r1)	; 0x0040
    65d8:	3d 40 07 00 	mov	#7,	r13	;
    65dc:	0d 9c       	cmp	r12,	r13	;
    65de:	03 38       	jl	$+8      	;abs 0x65e6
    65e0:	2a 52       	add	#4,	r10	;r2 As==10
    65e2:	30 40 02 66 	br	#0x6602		;
    65e6:	0c 46       	mov	r6,	r12	;
    65e8:	0d 45       	mov	r5,	r13	;
    65ea:	0e 41       	mov	r1,	r14	;
    65ec:	3e 50 3e 00 	add	#62,	r14	;#0x003e
    65f0:	b0 12 c2 a3 	call	#41922		;#0xa3c2
    65f4:	0c 93       	cmp	#0,	r12	;r3 As==00
    65f6:	02 24       	jz	$+6      	;abs 0x65fc
    65f8:	30 40 18 6e 	br	#0x6e18		;
    65fc:	0a 41       	mov	r1,	r10	;
    65fe:	3a 50 54 00 	add	#84,	r10	;#0x0054
    6602:	37 50 f0 ff 	add	#65520,	r7	;#0xfff0
    6606:	30 40 b4 65 	br	#0x65b4		;
    660a:	8a 47 02 00 	mov	r7,	2(r10)	;
    660e:	81 57 42 00 	add	r7,	66(r1)	; 0x0042
    6612:	1c 41 40 00 	mov	64(r1),	r12	;0x00040
    6616:	1c 53       	inc	r12		;
    6618:	81 4c 40 00 	mov	r12,	64(r1)	; 0x0040
    661c:	3f 40 07 00 	mov	#7,	r15	;
    6620:	0f 9c       	cmp	r12,	r15	;
    6622:	03 38       	jl	$+8      	;abs 0x662a
    6624:	2a 52       	add	#4,	r10	;r2 As==10
    6626:	30 40 46 66 	br	#0x6646		;
    662a:	0c 46       	mov	r6,	r12	;
    662c:	0d 45       	mov	r5,	r13	;
    662e:	0e 41       	mov	r1,	r14	;
    6630:	3e 50 3e 00 	add	#62,	r14	;#0x003e
    6634:	b0 12 c2 a3 	call	#41922		;#0xa3c2
    6638:	0c 93       	cmp	#0,	r12	;r3 As==00
    663a:	02 24       	jz	$+6      	;abs 0x6640
    663c:	30 40 18 6e 	br	#0x6e18		;
    6640:	0a 41       	mov	r1,	r10	;
    6642:	3a 50 54 00 	add	#84,	r10	;#0x0054
    6646:	b1 b0 00 01 	bit	#256,	20(r1)	;#0x0100, 0x0014
    664a:	14 00 
    664c:	09 20       	jnz	$+20     	;abs 0x6660
    664e:	9a 41 12 00 	mov	18(r1),	0(r10)	;0x00012
    6652:	00 00 
    6654:	8a 48 02 00 	mov	r8,	2(r10)	;
    6658:	81 58 42 00 	add	r8,	66(r1)	; 0x0042
    665c:	30 40 42 6b 	br	#0x6b42		;
    6660:	3e 40 65 00 	mov	#101,	r14	;#0x0065
    6664:	0e 99       	cmp	r9,	r14	;
    6666:	02 38       	jl	$+6      	;abs 0x666c
    6668:	30 40 58 6b 	br	#0x6b58		;
    666c:	81 43 00 00 	mov	#0,	0(r1)	;r3 As==00
    6670:	81 43 02 00 	mov	#0,	2(r1)	;r3 As==00
    6674:	81 43 04 00 	mov	#0,	4(r1)	;r3 As==00
    6678:	81 43 06 00 	mov	#0,	6(r1)	;r3 As==00
    667c:	1c 41 20 00 	mov	32(r1),	r12	;0x00020
    6680:	1d 41 22 00 	mov	34(r1),	r13	;0x00022
    6684:	1e 41 24 00 	mov	36(r1),	r14	;0x00024
    6688:	1f 41 26 00 	mov	38(r1),	r15	;0x00026
    668c:	b0 12 c2 c3 	call	#50114		;#0xc3c2
    6690:	0c 93       	cmp	#0,	r12	;r3 As==00
    6692:	87 20       	jnz	$+272    	;abs 0x67a2
    6694:	ba 40 3e 44 	mov	#17470,	0(r10)	;#0x443e
    6698:	00 00 
    669a:	9a 43 02 00 	mov	#1,	2(r10)	;r3 As==01
    669e:	91 53 42 00 	inc	66(r1)		;
    66a2:	1c 41 40 00 	mov	64(r1),	r12	;0x00040
    66a6:	1c 53       	inc	r12		;
    66a8:	81 4c 40 00 	mov	r12,	64(r1)	; 0x0040
    66ac:	3f 40 07 00 	mov	#7,	r15	;
    66b0:	0f 9c       	cmp	r12,	r15	;
    66b2:	03 38       	jl	$+8      	;abs 0x66ba
    66b4:	2a 52       	add	#4,	r10	;r2 As==10
    66b6:	30 40 d6 66 	br	#0x66d6		;
    66ba:	0c 46       	mov	r6,	r12	;
    66bc:	0d 45       	mov	r5,	r13	;
    66be:	0e 41       	mov	r1,	r14	;
    66c0:	3e 50 3e 00 	add	#62,	r14	;#0x003e
    66c4:	b0 12 c2 a3 	call	#41922		;#0xa3c2
    66c8:	0c 93       	cmp	#0,	r12	;r3 As==00
    66ca:	02 24       	jz	$+6      	;abs 0x66d0
    66cc:	30 40 18 6e 	br	#0x6e18		;
    66d0:	0a 41       	mov	r1,	r10	;
    66d2:	3a 50 54 00 	add	#84,	r10	;#0x0054
    66d6:	91 91 16 00 	cmp	22(r1),	56(r1)	;0x00016, 0x0038
    66da:	38 00 
    66dc:	05 38       	jl	$+12     	;abs 0x66e8
    66de:	91 b3 14 00 	bit	#1,	20(r1)	;r3 As==01, 0x0014
    66e2:	02 20       	jnz	$+6      	;abs 0x66e8
    66e4:	30 40 2c 6d 	br	#0x6d2c		;
    66e8:	9a 41 30 00 	mov	48(r1),	0(r10)	;0x00030
    66ec:	00 00 
    66ee:	9a 41 2a 00 	mov	42(r1),	2(r10)	;0x0002a
    66f2:	02 00 
    66f4:	91 51 2a 00 	rla	42(r1)		;#0x0002a
    66f8:	42 00 
    66fa:	1c 41 40 00 	mov	64(r1),	r12	;0x00040
    66fe:	1c 53       	inc	r12		;
    6700:	81 4c 40 00 	mov	r12,	64(r1)	; 0x0040
    6704:	3d 40 07 00 	mov	#7,	r13	;
    6708:	0d 9c       	cmp	r12,	r13	;
    670a:	03 38       	jl	$+8      	;abs 0x6712
    670c:	2a 52       	add	#4,	r10	;r2 As==10
    670e:	30 40 2e 67 	br	#0x672e		;
    6712:	0c 46       	mov	r6,	r12	;
    6714:	0d 45       	mov	r5,	r13	;
    6716:	0e 41       	mov	r1,	r14	;
    6718:	3e 50 3e 00 	add	#62,	r14	;#0x003e
    671c:	b0 12 c2 a3 	call	#41922		;#0xa3c2
    6720:	0c 93       	cmp	#0,	r12	;r3 As==00
    6722:	02 24       	jz	$+6      	;abs 0x6728
    6724:	30 40 18 6e 	br	#0x6e18		;
    6728:	0a 41       	mov	r1,	r10	;
    672a:	3a 50 54 00 	add	#84,	r10	;#0x0054
    672e:	18 41 16 00 	mov	22(r1),	r8	;0x00016
    6732:	38 53       	add	#-1,	r8	;r3 As==11
    6734:	0e 43       	clr	r14		;
    6736:	0e 98       	cmp	r8,	r14	;
    6738:	02 38       	jl	$+6      	;abs 0x673e
    673a:	30 40 2c 6d 	br	#0x6d2c		;
    673e:	39 40 c2 a3 	mov	#41922,	r9	;#0xa3c2
    6742:	3c 40 10 00 	mov	#16,	r12	;#0x0010
    6746:	ba 40 40 44 	mov	#17472,	0(r10)	;#0x4440
    674a:	00 00 
    674c:	0c 98       	cmp	r8,	r12	;
    674e:	23 34       	jge	$+72     	;abs 0x6796
    6750:	ba 40 10 00 	mov	#16,	2(r10)	;#0x0010
    6754:	02 00 
    6756:	b1 50 10 00 	add	#16,	66(r1)	;#0x0010, 0x0042
    675a:	42 00 
    675c:	1c 41 40 00 	mov	64(r1),	r12	;0x00040
    6760:	1c 53       	inc	r12		;
    6762:	81 4c 40 00 	mov	r12,	64(r1)	; 0x0040
    6766:	3f 40 07 00 	mov	#7,	r15	;
    676a:	0f 9c       	cmp	r12,	r15	;
    676c:	03 38       	jl	$+8      	;abs 0x6774
    676e:	2a 52       	add	#4,	r10	;r2 As==10
    6770:	30 40 8e 67 	br	#0x678e		;
    6774:	0c 46       	mov	r6,	r12	;
    6776:	0d 45       	mov	r5,	r13	;
    6778:	0e 41       	mov	r1,	r14	;
    677a:	3e 50 3e 00 	add	#62,	r14	;#0x003e
    677e:	89 12       	call	r9		;
    6780:	0c 93       	cmp	#0,	r12	;r3 As==00
    6782:	02 24       	jz	$+6      	;abs 0x6788
    6784:	30 40 18 6e 	br	#0x6e18		;
    6788:	0a 41       	mov	r1,	r10	;
    678a:	3a 50 54 00 	add	#84,	r10	;#0x0054
    678e:	38 50 f0 ff 	add	#65520,	r8	;#0xfff0
    6792:	30 40 42 67 	br	#0x6742		;
    6796:	8a 48 02 00 	mov	r8,	2(r10)	;
    679a:	81 58 42 00 	add	r8,	66(r1)	; 0x0042
    679e:	30 40 42 6b 	br	#0x6b42		;
    67a2:	0e 43       	clr	r14		;
    67a4:	1e 91 38 00 	cmp	56(r1),	r14	;0x00038
    67a8:	c3 38       	jl	$+392    	;abs 0x6930
    67aa:	ba 40 3e 44 	mov	#17470,	0(r10)	;#0x443e
    67ae:	00 00 
    67b0:	9a 43 02 00 	mov	#1,	2(r10)	;r3 As==01
    67b4:	91 53 42 00 	inc	66(r1)		;
    67b8:	1c 41 40 00 	mov	64(r1),	r12	;0x00040
    67bc:	1c 53       	inc	r12		;
    67be:	81 4c 40 00 	mov	r12,	64(r1)	; 0x0040
    67c2:	3f 40 07 00 	mov	#7,	r15	;
    67c6:	0f 9c       	cmp	r12,	r15	;
    67c8:	03 38       	jl	$+8      	;abs 0x67d0
    67ca:	2a 52       	add	#4,	r10	;r2 As==10
    67cc:	30 40 ec 67 	br	#0x67ec		;
    67d0:	0c 46       	mov	r6,	r12	;
    67d2:	0d 45       	mov	r5,	r13	;
    67d4:	0e 41       	mov	r1,	r14	;
    67d6:	3e 50 3e 00 	add	#62,	r14	;#0x003e
    67da:	b0 12 c2 a3 	call	#41922		;#0xa3c2
    67de:	0c 93       	cmp	#0,	r12	;r3 As==00
    67e0:	02 24       	jz	$+6      	;abs 0x67e6
    67e2:	30 40 18 6e 	br	#0x6e18		;
    67e6:	0a 41       	mov	r1,	r10	;
    67e8:	3a 50 54 00 	add	#84,	r10	;#0x0054
    67ec:	81 93 38 00 	cmp	#0,	56(r1)	;r3 As==00, 0x0038
    67f0:	08 20       	jnz	$+18     	;abs 0x6802
    67f2:	81 93 16 00 	cmp	#0,	22(r1)	;r3 As==00, 0x0016
    67f6:	05 20       	jnz	$+12     	;abs 0x6802
    67f8:	91 b3 14 00 	bit	#1,	20(r1)	;r3 As==01, 0x0014
    67fc:	02 20       	jnz	$+6      	;abs 0x6802
    67fe:	30 40 2c 6d 	br	#0x6d2c		;
    6802:	9a 41 30 00 	mov	48(r1),	0(r10)	;0x00030
    6806:	00 00 
    6808:	9a 41 2a 00 	mov	42(r1),	2(r10)	;0x0002a
    680c:	02 00 
    680e:	91 51 2a 00 	rla	42(r1)		;#0x0002a
    6812:	42 00 
    6814:	1c 41 40 00 	mov	64(r1),	r12	;0x00040
    6818:	1c 53       	inc	r12		;
    681a:	81 4c 40 00 	mov	r12,	64(r1)	; 0x0040
    681e:	3d 40 07 00 	mov	#7,	r13	;
    6822:	0d 9c       	cmp	r12,	r13	;
    6824:	03 38       	jl	$+8      	;abs 0x682c
    6826:	2a 52       	add	#4,	r10	;r2 As==10
    6828:	30 40 48 68 	br	#0x6848		;
    682c:	0c 46       	mov	r6,	r12	;
    682e:	0d 45       	mov	r5,	r13	;
    6830:	0e 41       	mov	r1,	r14	;
    6832:	3e 50 3e 00 	add	#62,	r14	;#0x003e
    6836:	b0 12 c2 a3 	call	#41922		;#0xa3c2
    683a:	0c 93       	cmp	#0,	r12	;r3 As==00
    683c:	02 24       	jz	$+6      	;abs 0x6842
    683e:	30 40 18 6e 	br	#0x6e18		;
    6842:	0a 41       	mov	r1,	r10	;
    6844:	3a 50 54 00 	add	#84,	r10	;#0x0054
    6848:	08 43       	clr	r8		;
    684a:	18 81 38 00 	sub	56(r1),	r8	;0x00038
    684e:	0e 43       	clr	r14		;
    6850:	0e 98       	cmp	r8,	r14	;
    6852:	4a 34       	jge	$+150    	;abs 0x68e8
    6854:	39 40 c2 a3 	mov	#41922,	r9	;#0xa3c2
    6858:	3c 40 10 00 	mov	#16,	r12	;#0x0010
    685c:	ba 40 40 44 	mov	#17472,	0(r10)	;#0x4440
    6860:	00 00 
    6862:	0c 98       	cmp	r8,	r12	;
    6864:	23 34       	jge	$+72     	;abs 0x68ac
    6866:	ba 40 10 00 	mov	#16,	2(r10)	;#0x0010
    686a:	02 00 
    686c:	b1 50 10 00 	add	#16,	66(r1)	;#0x0010, 0x0042
    6870:	42 00 
    6872:	1c 41 40 00 	mov	64(r1),	r12	;0x00040
    6876:	1c 53       	inc	r12		;
    6878:	81 4c 40 00 	mov	r12,	64(r1)	; 0x0040
    687c:	3f 40 07 00 	mov	#7,	r15	;
    6880:	0f 9c       	cmp	r12,	r15	;
    6882:	03 38       	jl	$+8      	;abs 0x688a
    6884:	2a 52       	add	#4,	r10	;r2 As==10
    6886:	30 40 a4 68 	br	#0x68a4		;
    688a:	0c 46       	mov	r6,	r12	;
    688c:	0d 45       	mov	r5,	r13	;
    688e:	0e 41       	mov	r1,	r14	;
    6890:	3e 50 3e 00 	add	#62,	r14	;#0x003e
    6894:	89 12       	call	r9		;
    6896:	0c 93       	cmp	#0,	r12	;r3 As==00
    6898:	02 24       	jz	$+6      	;abs 0x689e
    689a:	30 40 18 6e 	br	#0x6e18		;
    689e:	0a 41       	mov	r1,	r10	;
    68a0:	3a 50 54 00 	add	#84,	r10	;#0x0054
    68a4:	38 50 f0 ff 	add	#65520,	r8	;#0xfff0
    68a8:	30 40 58 68 	br	#0x6858		;
    68ac:	8a 48 02 00 	mov	r8,	2(r10)	;
    68b0:	81 58 42 00 	add	r8,	66(r1)	; 0x0042
    68b4:	1c 41 40 00 	mov	64(r1),	r12	;0x00040
    68b8:	1c 53       	inc	r12		;
    68ba:	81 4c 40 00 	mov	r12,	64(r1)	; 0x0040
    68be:	3d 40 07 00 	mov	#7,	r13	;
    68c2:	0d 9c       	cmp	r12,	r13	;
    68c4:	03 38       	jl	$+8      	;abs 0x68cc
    68c6:	2a 52       	add	#4,	r10	;r2 As==10
    68c8:	30 40 e8 68 	br	#0x68e8		;
    68cc:	0c 46       	mov	r6,	r12	;
    68ce:	0d 45       	mov	r5,	r13	;
    68d0:	0e 41       	mov	r1,	r14	;
    68d2:	3e 50 3e 00 	add	#62,	r14	;#0x003e
    68d6:	b0 12 c2 a3 	call	#41922		;#0xa3c2
    68da:	0c 93       	cmp	#0,	r12	;r3 As==00
    68dc:	02 24       	jz	$+6      	;abs 0x68e2
    68de:	30 40 18 6e 	br	#0x6e18		;
    68e2:	0a 41       	mov	r1,	r10	;
    68e4:	3a 50 54 00 	add	#84,	r10	;#0x0054
    68e8:	9a 41 12 00 	mov	18(r1),	0(r10)	;0x00012
    68ec:	00 00 
    68ee:	9a 41 16 00 	mov	22(r1),	2(r10)	;0x00016
    68f2:	02 00 
    68f4:	91 51 16 00 	rla	22(r1)		;#0x00016
    68f8:	42 00 
    68fa:	1c 41 40 00 	mov	64(r1),	r12	;0x00040
    68fe:	1c 53       	inc	r12		;
    6900:	81 4c 40 00 	mov	r12,	64(r1)	; 0x0040
    6904:	3e 40 07 00 	mov	#7,	r14	;
    6908:	0e 9c       	cmp	r12,	r14	;
    690a:	02 38       	jl	$+6      	;abs 0x6910
    690c:	30 40 2a 6d 	br	#0x6d2a		;
    6910:	0c 46       	mov	r6,	r12	;
    6912:	0d 45       	mov	r5,	r13	;
    6914:	0e 41       	mov	r1,	r14	;
    6916:	3e 50 3e 00 	add	#62,	r14	;#0x003e
    691a:	b0 12 c2 a3 	call	#41922		;#0xa3c2
    691e:	0c 93       	cmp	#0,	r12	;r3 As==00
    6920:	02 24       	jz	$+6      	;abs 0x6926
    6922:	30 40 18 6e 	br	#0x6e18		;
    6926:	0a 41       	mov	r1,	r10	;
    6928:	3a 50 54 00 	add	#84,	r10	;#0x0054
    692c:	30 40 2c 6d 	br	#0x6d2c		;
    6930:	18 41 12 00 	mov	18(r1),	r8	;0x00012
    6934:	18 51 16 00 	add	22(r1),	r8	;0x00016
    6938:	19 41 16 00 	mov	22(r1),	r9	;0x00016
    693c:	04 99       	cmp	r9,	r4	;
    693e:	01 34       	jge	$+4      	;abs 0x6942
    6940:	09 44       	mov	r4,	r9	;
    6942:	0f 43       	clr	r15		;
    6944:	0f 99       	cmp	r9,	r15	;
    6946:	21 34       	jge	$+68     	;abs 0x698a
    6948:	9a 41 12 00 	mov	18(r1),	0(r10)	;0x00012
    694c:	00 00 
    694e:	8a 49 02 00 	mov	r9,	2(r10)	;
    6952:	81 59 42 00 	add	r9,	66(r1)	; 0x0042
    6956:	1c 41 40 00 	mov	64(r1),	r12	;0x00040
    695a:	1c 53       	inc	r12		;
    695c:	81 4c 40 00 	mov	r12,	64(r1)	; 0x0040
    6960:	3d 40 07 00 	mov	#7,	r13	;
    6964:	0d 9c       	cmp	r12,	r13	;
    6966:	03 38       	jl	$+8      	;abs 0x696e
    6968:	2a 52       	add	#4,	r10	;r2 As==10
    696a:	30 40 8a 69 	br	#0x698a		;
    696e:	0c 46       	mov	r6,	r12	;
    6970:	0d 45       	mov	r5,	r13	;
    6972:	0e 41       	mov	r1,	r14	;
    6974:	3e 50 3e 00 	add	#62,	r14	;#0x003e
    6978:	b0 12 c2 a3 	call	#41922		;#0xa3c2
    697c:	0c 93       	cmp	#0,	r12	;r3 As==00
    697e:	02 24       	jz	$+6      	;abs 0x6984
    6980:	30 40 18 6e 	br	#0x6e18		;
    6984:	0a 41       	mov	r1,	r10	;
    6986:	3a 50 54 00 	add	#84,	r10	;#0x0054
    698a:	09 93       	cmp	#0,	r9	;r3 As==00
    698c:	01 34       	jge	$+4      	;abs 0x6990
    698e:	09 43       	clr	r9		;
    6990:	07 44       	mov	r4,	r7	;
    6992:	07 89       	sub	r9,	r7	;
    6994:	0e 43       	clr	r14		;
    6996:	0e 97       	cmp	r7,	r14	;
    6998:	48 34       	jge	$+146    	;abs 0x6a2a
    699a:	39 40 c2 a3 	mov	#41922,	r9	;#0xa3c2
    699e:	3c 40 10 00 	mov	#16,	r12	;#0x0010
    69a2:	ba 40 40 44 	mov	#17472,	0(r10)	;#0x4440
    69a6:	00 00 
    69a8:	0c 97       	cmp	r7,	r12	;
    69aa:	23 34       	jge	$+72     	;abs 0x69f2
    69ac:	ba 40 10 00 	mov	#16,	2(r10)	;#0x0010
    69b0:	02 00 
    69b2:	b1 50 10 00 	add	#16,	66(r1)	;#0x0010, 0x0042
    69b6:	42 00 
    69b8:	1c 41 40 00 	mov	64(r1),	r12	;0x00040
    69bc:	1c 53       	inc	r12		;
    69be:	81 4c 40 00 	mov	r12,	64(r1)	; 0x0040
    69c2:	3f 40 07 00 	mov	#7,	r15	;
    69c6:	0f 9c       	cmp	r12,	r15	;
    69c8:	03 38       	jl	$+8      	;abs 0x69d0
    69ca:	2a 52       	add	#4,	r10	;r2 As==10
    69cc:	30 40 ea 69 	br	#0x69ea		;
    69d0:	0c 46       	mov	r6,	r12	;
    69d2:	0d 45       	mov	r5,	r13	;
    69d4:	0e 41       	mov	r1,	r14	;
    69d6:	3e 50 3e 00 	add	#62,	r14	;#0x003e
    69da:	89 12       	call	r9		;
    69dc:	0c 93       	cmp	#0,	r12	;r3 As==00
    69de:	02 24       	jz	$+6      	;abs 0x69e4
    69e0:	30 40 18 6e 	br	#0x6e18		;
    69e4:	0a 41       	mov	r1,	r10	;
    69e6:	3a 50 54 00 	add	#84,	r10	;#0x0054
    69ea:	37 50 f0 ff 	add	#65520,	r7	;#0xfff0
    69ee:	30 40 9e 69 	br	#0x699e		;
    69f2:	8a 47 02 00 	mov	r7,	2(r10)	;
    69f6:	81 57 42 00 	add	r7,	66(r1)	; 0x0042
    69fa:	1c 41 40 00 	mov	64(r1),	r12	;0x00040
    69fe:	1c 53       	inc	r12		;
    6a00:	81 4c 40 00 	mov	r12,	64(r1)	; 0x0040
    6a04:	3d 40 07 00 	mov	#7,	r13	;
    6a08:	0d 9c       	cmp	r12,	r13	;
    6a0a:	03 38       	jl	$+8      	;abs 0x6a12
    6a0c:	2a 52       	add	#4,	r10	;r2 As==10
    6a0e:	30 40 2a 6a 	br	#0x6a2a		;
    6a12:	0c 46       	mov	r6,	r12	;
    6a14:	0d 45       	mov	r5,	r13	;
    6a16:	0e 41       	mov	r1,	r14	;
    6a18:	3e 50 3e 00 	add	#62,	r14	;#0x003e
    6a1c:	b0 12 c2 a3 	call	#41922		;#0xa3c2
    6a20:	0c 93       	cmp	#0,	r12	;r3 As==00
    6a22:	fa 21       	jnz	$+1014   	;abs 0x6e18
    6a24:	0a 41       	mov	r1,	r10	;
    6a26:	3a 50 54 00 	add	#84,	r10	;#0x0054
    6a2a:	14 51 12 00 	add	18(r1),	r4	;0x00012
    6a2e:	91 91 16 00 	cmp	22(r1),	56(r1)	;0x00016, 0x0038
    6a32:	38 00 
    6a34:	03 38       	jl	$+8      	;abs 0x6a3c
    6a36:	91 b3 14 00 	bit	#1,	20(r1)	;r3 As==01, 0x0014
    6a3a:	21 24       	jz	$+68     	;abs 0x6a7e
    6a3c:	9a 41 30 00 	mov	48(r1),	0(r10)	;0x00030
    6a40:	00 00 
    6a42:	9a 41 2a 00 	mov	42(r1),	2(r10)	;0x0002a
    6a46:	02 00 
    6a48:	91 51 2a 00 	rla	42(r1)		;#0x0002a
    6a4c:	42 00 
    6a4e:	1c 41 40 00 	mov	64(r1),	r12	;0x00040
    6a52:	1c 53       	inc	r12		;
    6a54:	81 4c 40 00 	mov	r12,	64(r1)	; 0x0040
    6a58:	3e 40 07 00 	mov	#7,	r14	;
    6a5c:	0e 9c       	cmp	r12,	r14	;
    6a5e:	03 38       	jl	$+8      	;abs 0x6a66
    6a60:	2a 52       	add	#4,	r10	;r2 As==10
    6a62:	30 40 7e 6a 	br	#0x6a7e		;
    6a66:	0c 46       	mov	r6,	r12	;
    6a68:	0d 45       	mov	r5,	r13	;
    6a6a:	0e 41       	mov	r1,	r14	;
    6a6c:	3e 50 3e 00 	add	#62,	r14	;#0x003e
    6a70:	b0 12 c2 a3 	call	#41922		;#0xa3c2
    6a74:	0c 93       	cmp	#0,	r12	;r3 As==00
    6a76:	d0 21       	jnz	$+930    	;abs 0x6e18
    6a78:	0a 41       	mov	r1,	r10	;
    6a7a:	3a 50 54 00 	add	#84,	r10	;#0x0054
    6a7e:	1c 41 16 00 	mov	22(r1),	r12	;0x00016
    6a82:	1c 81 38 00 	sub	56(r1),	r12	;0x00038
    6a86:	08 84       	sub	r4,	r8	;
    6a88:	0c 98       	cmp	r8,	r12	;
    6a8a:	01 34       	jge	$+4      	;abs 0x6a8e
    6a8c:	08 4c       	mov	r12,	r8	;
    6a8e:	0f 43       	clr	r15		;
    6a90:	0f 98       	cmp	r8,	r15	;
    6a92:	1e 34       	jge	$+62     	;abs 0x6ad0
    6a94:	8a 44 00 00 	mov	r4,	0(r10)	;
    6a98:	8a 48 02 00 	mov	r8,	2(r10)	;
    6a9c:	81 58 42 00 	add	r8,	66(r1)	; 0x0042
    6aa0:	1c 41 40 00 	mov	64(r1),	r12	;0x00040
    6aa4:	1c 53       	inc	r12		;
    6aa6:	81 4c 40 00 	mov	r12,	64(r1)	; 0x0040
    6aaa:	3d 40 07 00 	mov	#7,	r13	;
    6aae:	0d 9c       	cmp	r12,	r13	;
    6ab0:	03 38       	jl	$+8      	;abs 0x6ab8
    6ab2:	2a 52       	add	#4,	r10	;r2 As==10
    6ab4:	30 40 d0 6a 	br	#0x6ad0		;
    6ab8:	0c 46       	mov	r6,	r12	;
    6aba:	0d 45       	mov	r5,	r13	;
    6abc:	0e 41       	mov	r1,	r14	;
    6abe:	3e 50 3e 00 	add	#62,	r14	;#0x003e
    6ac2:	b0 12 c2 a3 	call	#41922		;#0xa3c2
    6ac6:	0c 93       	cmp	#0,	r12	;r3 As==00
    6ac8:	a7 21       	jnz	$+848    	;abs 0x6e18
    6aca:	0a 41       	mov	r1,	r10	;
    6acc:	3a 50 54 00 	add	#84,	r10	;#0x0054
    6ad0:	08 93       	cmp	#0,	r8	;r3 As==00
    6ad2:	01 34       	jge	$+4      	;abs 0x6ad6
    6ad4:	08 43       	clr	r8		;
    6ad6:	17 41 16 00 	mov	22(r1),	r7	;0x00016
    6ada:	17 81 38 00 	sub	56(r1),	r7	;0x00038
    6ade:	07 88       	sub	r8,	r7	;
    6ae0:	0e 43       	clr	r14		;
    6ae2:	0e 97       	cmp	r7,	r14	;
    6ae4:	23 35       	jge	$+584    	;abs 0x6d2c
    6ae6:	39 40 c2 a3 	mov	#41922,	r9	;#0xa3c2
    6aea:	3c 40 10 00 	mov	#16,	r12	;#0x0010
    6aee:	ba 40 40 44 	mov	#17472,	0(r10)	;#0x4440
    6af2:	00 00 
    6af4:	0c 97       	cmp	r7,	r12	;
    6af6:	21 34       	jge	$+68     	;abs 0x6b3a
    6af8:	ba 40 10 00 	mov	#16,	2(r10)	;#0x0010
    6afc:	02 00 
    6afe:	b1 50 10 00 	add	#16,	66(r1)	;#0x0010, 0x0042
    6b02:	42 00 
    6b04:	1c 41 40 00 	mov	64(r1),	r12	;0x00040
    6b08:	1c 53       	inc	r12		;
    6b0a:	81 4c 40 00 	mov	r12,	64(r1)	; 0x0040
    6b0e:	3f 40 07 00 	mov	#7,	r15	;
    6b12:	0f 9c       	cmp	r12,	r15	;
    6b14:	03 38       	jl	$+8      	;abs 0x6b1c
    6b16:	2a 52       	add	#4,	r10	;r2 As==10
    6b18:	30 40 32 6b 	br	#0x6b32		;
    6b1c:	0c 46       	mov	r6,	r12	;
    6b1e:	0d 45       	mov	r5,	r13	;
    6b20:	0e 41       	mov	r1,	r14	;
    6b22:	3e 50 3e 00 	add	#62,	r14	;#0x003e
    6b26:	89 12       	call	r9		;
    6b28:	0c 93       	cmp	#0,	r12	;r3 As==00
    6b2a:	76 21       	jnz	$+750    	;abs 0x6e18
    6b2c:	0a 41       	mov	r1,	r10	;
    6b2e:	3a 50 54 00 	add	#84,	r10	;#0x0054
    6b32:	37 50 f0 ff 	add	#65520,	r7	;#0xfff0
    6b36:	30 40 ea 6a 	br	#0x6aea		;
    6b3a:	8a 47 02 00 	mov	r7,	2(r10)	;
    6b3e:	81 57 42 00 	add	r7,	66(r1)	; 0x0042
    6b42:	1c 41 40 00 	mov	64(r1),	r12	;0x00040
    6b46:	1c 53       	inc	r12		;
    6b48:	81 4c 40 00 	mov	r12,	64(r1)	; 0x0040
    6b4c:	3d 40 07 00 	mov	#7,	r13	;
    6b50:	0d 9c       	cmp	r12,	r13	;
    6b52:	eb 34       	jge	$+472    	;abs 0x6d2a
    6b54:	30 40 10 69 	br	#0x6910		;
    6b58:	1e 43       	mov	#1,	r14	;r3 As==01
    6b5a:	1e 91 16 00 	cmp	22(r1),	r14	;0x00016
    6b5e:	03 38       	jl	$+8      	;abs 0x6b66
    6b60:	91 b3 14 00 	bit	#1,	20(r1)	;r3 As==01, 0x0014
    6b64:	bb 24       	jz	$+376    	;abs 0x6cdc
    6b66:	9a 41 12 00 	mov	18(r1),	0(r10)	;0x00012
    6b6a:	00 00 
    6b6c:	9a 43 02 00 	mov	#1,	2(r10)	;r3 As==01
    6b70:	91 53 42 00 	inc	66(r1)		;
    6b74:	1c 41 40 00 	mov	64(r1),	r12	;0x00040
    6b78:	1c 53       	inc	r12		;
    6b7a:	81 4c 40 00 	mov	r12,	64(r1)	; 0x0040
    6b7e:	3f 40 07 00 	mov	#7,	r15	;
    6b82:	0f 9c       	cmp	r12,	r15	;
    6b84:	03 38       	jl	$+8      	;abs 0x6b8c
    6b86:	2a 52       	add	#4,	r10	;r2 As==10
    6b88:	30 40 a4 6b 	br	#0x6ba4		;
    6b8c:	0c 46       	mov	r6,	r12	;
    6b8e:	0d 45       	mov	r5,	r13	;
    6b90:	0e 41       	mov	r1,	r14	;
    6b92:	3e 50 3e 00 	add	#62,	r14	;#0x003e
    6b96:	b0 12 c2 a3 	call	#41922		;#0xa3c2
    6b9a:	0c 93       	cmp	#0,	r12	;r3 As==00
    6b9c:	3d 21       	jnz	$+636    	;abs 0x6e18
    6b9e:	0a 41       	mov	r1,	r10	;
    6ba0:	3a 50 54 00 	add	#84,	r10	;#0x0054
    6ba4:	9a 41 30 00 	mov	48(r1),	0(r10)	;0x00030
    6ba8:	00 00 
    6baa:	9a 41 2a 00 	mov	42(r1),	2(r10)	;0x0002a
    6bae:	02 00 
    6bb0:	91 51 2a 00 	rla	42(r1)		;#0x0002a
    6bb4:	42 00 
    6bb6:	1c 41 40 00 	mov	64(r1),	r12	;0x00040
    6bba:	1c 53       	inc	r12		;
    6bbc:	81 4c 40 00 	mov	r12,	64(r1)	; 0x0040
    6bc0:	3d 40 07 00 	mov	#7,	r13	;
    6bc4:	0d 9c       	cmp	r12,	r13	;
    6bc6:	03 38       	jl	$+8      	;abs 0x6bce
    6bc8:	2a 52       	add	#4,	r10	;r2 As==10
    6bca:	30 40 e6 6b 	br	#0x6be6		;
    6bce:	0c 46       	mov	r6,	r12	;
    6bd0:	0d 45       	mov	r5,	r13	;
    6bd2:	0e 41       	mov	r1,	r14	;
    6bd4:	3e 50 3e 00 	add	#62,	r14	;#0x003e
    6bd8:	b0 12 c2 a3 	call	#41922		;#0xa3c2
    6bdc:	0c 93       	cmp	#0,	r12	;r3 As==00
    6bde:	1c 21       	jnz	$+570    	;abs 0x6e18
    6be0:	0a 41       	mov	r1,	r10	;
    6be2:	3a 50 54 00 	add	#84,	r10	;#0x0054
    6be6:	81 43 00 00 	mov	#0,	0(r1)	;r3 As==00
    6bea:	81 43 02 00 	mov	#0,	2(r1)	;r3 As==00
    6bee:	81 43 04 00 	mov	#0,	4(r1)	;r3 As==00
    6bf2:	81 43 06 00 	mov	#0,	6(r1)	;r3 As==00
    6bf6:	1c 41 20 00 	mov	32(r1),	r12	;0x00020
    6bfa:	1d 41 22 00 	mov	34(r1),	r13	;0x00022
    6bfe:	1e 41 24 00 	mov	36(r1),	r14	;0x00024
    6c02:	1f 41 26 00 	mov	38(r1),	r15	;0x00026
    6c06:	b0 12 36 c4 	call	#50230		;#0xc436
    6c0a:	0c 93       	cmp	#0,	r12	;r3 As==00
    6c0c:	1c 24       	jz	$+58     	;abs 0x6c46
    6c0e:	1c 41 12 00 	mov	18(r1),	r12	;0x00012
    6c12:	1c 53       	inc	r12		;
    6c14:	8a 4c 00 00 	mov	r12,	0(r10)	;
    6c18:	1d 41 16 00 	mov	22(r1),	r13	;0x00016
    6c1c:	3d 53       	add	#-1,	r13	;r3 As==11
    6c1e:	8a 4d 02 00 	mov	r13,	2(r10)	;
    6c22:	1c 41 42 00 	mov	66(r1),	r12	;0x00042
    6c26:	3c 53       	add	#-1,	r12	;r3 As==11
    6c28:	1c 51 16 00 	add	22(r1),	r12	;0x00016
    6c2c:	81 4c 42 00 	mov	r12,	66(r1)	; 0x0042
    6c30:	1c 41 40 00 	mov	64(r1),	r12	;0x00040
    6c34:	1c 53       	inc	r12		;
    6c36:	81 4c 40 00 	mov	r12,	64(r1)	; 0x0040
    6c3a:	3e 40 07 00 	mov	#7,	r14	;
    6c3e:	0e 9c       	cmp	r12,	r14	;
    6c40:	5d 34       	jge	$+188    	;abs 0x6cfc
    6c42:	30 40 7e 6c 	br	#0x6c7e		;
    6c46:	18 41 16 00 	mov	22(r1),	r8	;0x00016
    6c4a:	38 53       	add	#-1,	r8	;r3 As==11
    6c4c:	0f 43       	clr	r15		;
    6c4e:	0f 98       	cmp	r8,	r15	;
    6c50:	56 34       	jge	$+174    	;abs 0x6cfe
    6c52:	39 40 c2 a3 	mov	#41922,	r9	;#0xa3c2
    6c56:	3e 40 10 00 	mov	#16,	r14	;#0x0010
    6c5a:	ba 40 40 44 	mov	#17472,	0(r10)	;#0x4440
    6c5e:	00 00 
    6c60:	0e 98       	cmp	r8,	r14	;
    6c62:	1b 38       	jl	$+56     	;abs 0x6c9a
    6c64:	8a 48 02 00 	mov	r8,	2(r10)	;
    6c68:	81 58 42 00 	add	r8,	66(r1)	; 0x0042
    6c6c:	1c 41 40 00 	mov	64(r1),	r12	;0x00040
    6c70:	1c 53       	inc	r12		;
    6c72:	81 4c 40 00 	mov	r12,	64(r1)	; 0x0040
    6c76:	3f 40 07 00 	mov	#7,	r15	;
    6c7a:	0f 9c       	cmp	r12,	r15	;
    6c7c:	3f 34       	jge	$+128    	;abs 0x6cfc
    6c7e:	0c 46       	mov	r6,	r12	;
    6c80:	0d 45       	mov	r5,	r13	;
    6c82:	0e 41       	mov	r1,	r14	;
    6c84:	3e 50 3e 00 	add	#62,	r14	;#0x003e
    6c88:	b0 12 c2 a3 	call	#41922		;#0xa3c2
    6c8c:	0c 93       	cmp	#0,	r12	;r3 As==00
    6c8e:	c4 20       	jnz	$+394    	;abs 0x6e18
    6c90:	0a 41       	mov	r1,	r10	;
    6c92:	3a 50 54 00 	add	#84,	r10	;#0x0054
    6c96:	30 40 fe 6c 	br	#0x6cfe		;
    6c9a:	ba 40 10 00 	mov	#16,	2(r10)	;#0x0010
    6c9e:	02 00 
    6ca0:	b1 50 10 00 	add	#16,	66(r1)	;#0x0010, 0x0042
    6ca4:	42 00 
    6ca6:	1c 41 40 00 	mov	64(r1),	r12	;0x00040
    6caa:	1c 53       	inc	r12		;
    6cac:	81 4c 40 00 	mov	r12,	64(r1)	; 0x0040
    6cb0:	3d 40 07 00 	mov	#7,	r13	;
    6cb4:	0d 9c       	cmp	r12,	r13	;
    6cb6:	03 38       	jl	$+8      	;abs 0x6cbe
    6cb8:	2a 52       	add	#4,	r10	;r2 As==10
    6cba:	30 40 d4 6c 	br	#0x6cd4		;
    6cbe:	0c 46       	mov	r6,	r12	;
    6cc0:	0d 45       	mov	r5,	r13	;
    6cc2:	0e 41       	mov	r1,	r14	;
    6cc4:	3e 50 3e 00 	add	#62,	r14	;#0x003e
    6cc8:	89 12       	call	r9		;
    6cca:	0c 93       	cmp	#0,	r12	;r3 As==00
    6ccc:	a5 20       	jnz	$+332    	;abs 0x6e18
    6cce:	0a 41       	mov	r1,	r10	;
    6cd0:	3a 50 54 00 	add	#84,	r10	;#0x0054
    6cd4:	38 50 f0 ff 	add	#65520,	r8	;#0xfff0
    6cd8:	30 40 56 6c 	br	#0x6c56		;
    6cdc:	9a 41 12 00 	mov	18(r1),	0(r10)	;0x00012
    6ce0:	00 00 
    6ce2:	9a 43 02 00 	mov	#1,	2(r10)	;r3 As==01
    6ce6:	91 53 42 00 	inc	66(r1)		;
    6cea:	1c 41 40 00 	mov	64(r1),	r12	;0x00040
    6cee:	1c 53       	inc	r12		;
    6cf0:	81 4c 40 00 	mov	r12,	64(r1)	; 0x0040
    6cf4:	3d 40 07 00 	mov	#7,	r13	;
    6cf8:	0d 9c       	cmp	r12,	r13	;
    6cfa:	c1 3b       	jl	$-124    	;abs 0x6c7e
    6cfc:	2a 52       	add	#4,	r10	;r2 As==10
    6cfe:	3e 40 45 00 	mov	#69,	r14	;#0x0045
    6d02:	0e 51       	add	r1,	r14	;
    6d04:	8a 4e 00 00 	mov	r14,	0(r10)	;
    6d08:	9a 41 32 00 	mov	50(r1),	2(r10)	;0x00032
    6d0c:	02 00 
    6d0e:	91 51 32 00 	rla	50(r1)		;#0x00032
    6d12:	42 00 
    6d14:	1c 41 40 00 	mov	64(r1),	r12	;0x00040
    6d18:	1c 53       	inc	r12		;
    6d1a:	81 4c 40 00 	mov	r12,	64(r1)	; 0x0040
    6d1e:	3f 40 07 00 	mov	#7,	r15	;
    6d22:	0f 9c       	cmp	r12,	r15	;
    6d24:	02 34       	jge	$+6      	;abs 0x6d2a
    6d26:	30 40 10 69 	br	#0x6910		;
    6d2a:	2a 52       	add	#4,	r10	;r2 As==10
    6d2c:	a1 b2 14 00 	bit	#4,	20(r1)	;r2 As==10, 0x0014
    6d30:	0e 20       	jnz	$+30     	;abs 0x6d4e
    6d32:	1c 41 1e 00 	mov	30(r1),	r12	;0x0001e
    6d36:	1c 91 1a 00 	cmp	26(r1),	r12	;0x0001a
    6d3a:	02 34       	jge	$+6      	;abs 0x6d40
    6d3c:	1c 41 1a 00 	mov	26(r1),	r12	;0x0001a
    6d40:	81 5c 28 00 	add	r12,	40(r1)	; 0x0028
    6d44:	81 93 42 00 	cmp	#0,	66(r1)	;r3 As==00, 0x0042
    6d48:	54 24       	jz	$+170    	;abs 0x6df2
    6d4a:	30 40 e0 6d 	br	#0x6de0		;
    6d4e:	18 41 1a 00 	mov	26(r1),	r8	;0x0001a
    6d52:	18 81 1e 00 	sub	30(r1),	r8	;0x0001e
    6d56:	0c 43       	clr	r12		;
    6d58:	0c 98       	cmp	r8,	r12	;
    6d5a:	eb 37       	jge	$-40     	;abs 0x6d32
    6d5c:	39 40 c2 a3 	mov	#41922,	r9	;#0xa3c2
    6d60:	3e 40 10 00 	mov	#16,	r14	;#0x0010
    6d64:	ba 40 50 44 	mov	#17488,	0(r10)	;#0x4450
    6d68:	00 00 
    6d6a:	0e 98       	cmp	r8,	r14	;
    6d6c:	21 34       	jge	$+68     	;abs 0x6db0
    6d6e:	ba 40 10 00 	mov	#16,	2(r10)	;#0x0010
    6d72:	02 00 
    6d74:	b1 50 10 00 	add	#16,	66(r1)	;#0x0010, 0x0042
    6d78:	42 00 
    6d7a:	1c 41 40 00 	mov	64(r1),	r12	;0x00040
    6d7e:	1c 53       	inc	r12		;
    6d80:	81 4c 40 00 	mov	r12,	64(r1)	; 0x0040
    6d84:	3d 40 07 00 	mov	#7,	r13	;
    6d88:	0d 9c       	cmp	r12,	r13	;
    6d8a:	03 38       	jl	$+8      	;abs 0x6d92
    6d8c:	2a 52       	add	#4,	r10	;r2 As==10
    6d8e:	30 40 a8 6d 	br	#0x6da8		;
    6d92:	0c 46       	mov	r6,	r12	;
    6d94:	0d 45       	mov	r5,	r13	;
    6d96:	0e 41       	mov	r1,	r14	;
    6d98:	3e 50 3e 00 	add	#62,	r14	;#0x003e
    6d9c:	89 12       	call	r9		;
    6d9e:	0c 93       	cmp	#0,	r12	;r3 As==00
    6da0:	3b 20       	jnz	$+120    	;abs 0x6e18
    6da2:	0a 41       	mov	r1,	r10	;
    6da4:	3a 50 54 00 	add	#84,	r10	;#0x0054
    6da8:	38 50 f0 ff 	add	#65520,	r8	;#0xfff0
    6dac:	30 40 60 6d 	br	#0x6d60		;
    6db0:	8a 48 02 00 	mov	r8,	2(r10)	;
    6db4:	81 58 42 00 	add	r8,	66(r1)	; 0x0042
    6db8:	1c 41 40 00 	mov	64(r1),	r12	;0x00040
    6dbc:	1c 53       	inc	r12		;
    6dbe:	81 4c 40 00 	mov	r12,	64(r1)	; 0x0040
    6dc2:	3f 40 07 00 	mov	#7,	r15	;
    6dc6:	0f 9c       	cmp	r12,	r15	;
    6dc8:	b4 37       	jge	$-150    	;abs 0x6d32
    6dca:	0c 46       	mov	r6,	r12	;
    6dcc:	0d 45       	mov	r5,	r13	;
    6dce:	0e 41       	mov	r1,	r14	;
    6dd0:	3e 50 3e 00 	add	#62,	r14	;#0x003e
    6dd4:	b0 12 c2 a3 	call	#41922		;#0xa3c2
    6dd8:	0c 93       	cmp	#0,	r12	;r3 As==00
    6dda:	ab 27       	jz	$-168    	;abs 0x6d32
    6ddc:	30 40 18 6e 	br	#0x6e18		;
    6de0:	0c 46       	mov	r6,	r12	;
    6de2:	0d 45       	mov	r5,	r13	;
    6de4:	0e 41       	mov	r1,	r14	;
    6de6:	3e 50 3e 00 	add	#62,	r14	;#0x003e
    6dea:	b0 12 c2 a3 	call	#41922		;#0xa3c2
    6dee:	0c 93       	cmp	#0,	r12	;r3 As==00
    6df0:	13 20       	jnz	$+40     	;abs 0x6e18
    6df2:	81 43 40 00 	mov	#0,	64(r1)	;r3 As==00, 0x0040
    6df6:	17 41 18 00 	mov	24(r1),	r7	;0x00018
    6dfa:	0a 41       	mov	r1,	r10	;
    6dfc:	3a 50 54 00 	add	#84,	r10	;#0x0054
    6e00:	30 40 68 58 	br	#0x5868		;
    6e04:	81 93 42 00 	cmp	#0,	66(r1)	;r3 As==00, 0x0042
    6e08:	07 24       	jz	$+16     	;abs 0x6e18
    6e0a:	0c 46       	mov	r6,	r12	;
    6e0c:	0d 45       	mov	r5,	r13	;
    6e0e:	0e 41       	mov	r1,	r14	;
    6e10:	3e 50 3e 00 	add	#62,	r14	;#0x003e
    6e14:	b0 12 c2 a3 	call	#41922		;#0xa3c2
    6e18:	f5 b0 40 00 	bit.b	#64,	6(r5)	;#0x0040
    6e1c:	06 00 
    6e1e:	02 24       	jz	$+6      	;abs 0x6e24
    6e20:	30 40 08 58 	br	#0x5808		;
    6e24:	1c 41 28 00 	mov	40(r1),	r12	;0x00028
    6e28:	30 40 38 6e 	br	#0x6e38		;
    6e2c:	5c 93       	cmp.b	#1,	r12	;r3 As==01
    6e2e:	02 24       	jz	$+6      	;abs 0x6e34
    6e30:	30 40 e4 61 	br	#0x61e4		;
    6e34:	30 40 5a 62 	br	#0x625a		;
    6e38:	31 50 9c 00 	add	#156,	r1	;#0x009c
    6e3c:	30 40 a4 51 	br	#0x51a4		;

00006e40 <vfprintf>:
    6e40:	0a 12       	push	r10		;
    6e42:	0a 4c       	mov	r12,	r10	;
    6e44:	0b 4d       	mov	r13,	r11	;
    6e46:	0f 4e       	mov	r14,	r15	;
    6e48:	1c 42 20 02 	mov	&0x0220,r12	;0x0220
    6e4c:	0d 4a       	mov	r10,	r13	;
    6e4e:	0e 4b       	mov	r11,	r14	;
    6e50:	b0 12 60 57 	call	#22368		;#0x5760
    6e54:	3a 41       	pop	r10		;
    6e56:	30 41       	ret			

00006e58 <__sbprintf>:
    6e58:	0a 12       	push	r10		;
    6e5a:	09 12       	push	r9		;
    6e5c:	08 12       	push	r8		;
    6e5e:	31 80 3c 04 	sub	#1084,	r1	;#0x043c
    6e62:	08 4c       	mov	r12,	r8	;
    6e64:	0a 4d       	mov	r13,	r10	;
    6e66:	1d 4d 06 00 	mov	6(r13),	r13	;
    6e6a:	2d c3       	bic	#2,	r13	;r3 As==10
    6e6c:	81 4d 06 00 	mov	r13,	6(r1)	;
    6e70:	91 4a 3a 00 	mov	58(r10),58(r1)	;0x0003a, 0x003a
    6e74:	3a 00 
    6e76:	91 4a 08 00 	mov	8(r10),	8(r1)	;
    6e7a:	08 00 
    6e7c:	91 4a 12 00 	mov	18(r10),18(r1)	;0x00012, 0x0012
    6e80:	12 00 
    6e82:	91 4a 16 00 	mov	22(r10),22(r1)	;0x00016, 0x0016
    6e86:	16 00 
    6e88:	3d 40 3c 00 	mov	#60,	r13	;#0x003c
    6e8c:	0d 51       	add	r1,	r13	;
    6e8e:	81 4d 00 00 	mov	r13,	0(r1)	;
    6e92:	3d 40 3c 00 	mov	#60,	r13	;#0x003c
    6e96:	0d 51       	add	r1,	r13	;
    6e98:	81 4d 0a 00 	mov	r13,	10(r1)	; 0x000a
    6e9c:	b1 40 00 04 	mov	#1024,	4(r1)	;#0x0400
    6ea0:	04 00 
    6ea2:	b1 40 00 04 	mov	#1024,	12(r1)	;#0x0400, 0x000c
    6ea6:	0c 00 
    6ea8:	81 43 0e 00 	mov	#0,	14(r1)	;r3 As==00, 0x000e
    6eac:	0d 41       	mov	r1,	r13	;
    6eae:	b0 12 60 57 	call	#22368		;#0x5760
    6eb2:	09 4c       	mov	r12,	r9	;
    6eb4:	0c 93       	cmp	#0,	r12	;r3 As==00
    6eb6:	07 38       	jl	$+16     	;abs 0x6ec6
    6eb8:	0c 48       	mov	r8,	r12	;
    6eba:	0d 41       	mov	r1,	r13	;
    6ebc:	b0 12 7e 87 	call	#34686		;#0x877e
    6ec0:	0c 93       	cmp	#0,	r12	;r3 As==00
    6ec2:	01 24       	jz	$+4      	;abs 0x6ec6
    6ec4:	39 43       	mov	#-1,	r9	;r3 As==11
    6ec6:	f1 b0 40 00 	bit.b	#64,	6(r1)	;#0x0040
    6eca:	06 00 
    6ecc:	03 24       	jz	$+8      	;abs 0x6ed4
    6ece:	ba d0 40 00 	bis	#64,	6(r10)	;#0x0040
    6ed2:	06 00 
    6ed4:	0c 49       	mov	r9,	r12	;
    6ed6:	31 50 3c 04 	add	#1084,	r1	;#0x043c
    6eda:	30 40 ac 51 	br	#0x51ac		;

00006ede <__swsetup_r>:
    6ede:	0a 12       	push	r10		;
    6ee0:	09 12       	push	r9		;
    6ee2:	08 12       	push	r8		;
    6ee4:	08 4c       	mov	r12,	r8	;
    6ee6:	0a 4d       	mov	r13,	r10	;
    6ee8:	19 42 20 02 	mov	&0x0220,r9	;0x0220
    6eec:	09 93       	cmp	#0,	r9	;r3 As==00
    6eee:	06 24       	jz	$+14     	;abs 0x6efc
    6ef0:	89 93 0c 00 	cmp	#0,	12(r9)	;r3 As==00, 0x000c
    6ef4:	03 20       	jnz	$+8      	;abs 0x6efc
    6ef6:	0c 49       	mov	r9,	r12	;
    6ef8:	b0 12 64 88 	call	#34916		;#0x8864
    6efc:	3a 90 94 44 	cmp	#17556,	r10	;#0x4494
    6f00:	04 20       	jnz	$+10     	;abs 0x6f0a
    6f02:	1a 49 02 00 	mov	2(r9),	r10	;
    6f06:	30 40 22 6f 	br	#0x6f22		;
    6f0a:	3a 90 82 44 	cmp	#17538,	r10	;#0x4482
    6f0e:	04 20       	jnz	$+10     	;abs 0x6f18
    6f10:	1a 49 04 00 	mov	4(r9),	r10	;
    6f14:	30 40 22 6f 	br	#0x6f22		;
    6f18:	3a 90 70 44 	cmp	#17520,	r10	;#0x4470
    6f1c:	02 20       	jnz	$+6      	;abs 0x6f22
    6f1e:	1a 49 06 00 	mov	6(r9),	r10	;
    6f22:	1d 4a 06 00 	mov	6(r10),	r13	;
    6f26:	3d b2       	bit	#8,	r13	;r2 As==11
    6f28:	27 20       	jnz	$+80     	;abs 0x6f78
    6f2a:	3d b0 10 00 	bit	#16,	r13	;#0x0010
    6f2e:	0a 20       	jnz	$+22     	;abs 0x6f44
    6f30:	b8 40 09 00 	mov	#9,	0(r8)	;
    6f34:	00 00 
    6f36:	3d d0 40 00 	bis	#64,	r13	;#0x0040
    6f3a:	8a 4d 06 00 	mov	r13,	6(r10)	;
    6f3e:	3c 43       	mov	#-1,	r12	;r3 As==11
    6f40:	30 40 e2 6f 	br	#0x6fe2		;
    6f44:	2d b2       	bit	#4,	r13	;r2 As==10
    6f46:	16 24       	jz	$+46     	;abs 0x6f74
    6f48:	1d 4a 1c 00 	mov	28(r10),r13	;0x0001c
    6f4c:	0d 93       	cmp	#0,	r13	;r3 As==00
    6f4e:	0a 24       	jz	$+22     	;abs 0x6f64
    6f50:	0c 4a       	mov	r10,	r12	;
    6f52:	3c 50 24 00 	add	#36,	r12	;#0x0024
    6f56:	0d 9c       	cmp	r12,	r13	;
    6f58:	03 24       	jz	$+8      	;abs 0x6f60
    6f5a:	0c 48       	mov	r8,	r12	;
    6f5c:	b0 12 36 54 	call	#21558		;#0x5436
    6f60:	8a 43 1c 00 	mov	#0,	28(r10)	;r3 As==00, 0x001c
    6f64:	ba f0 db ff 	and	#65499,	6(r10)	;#0xffdb
    6f68:	06 00 
    6f6a:	8a 43 02 00 	mov	#0,	2(r10)	;r3 As==00
    6f6e:	9a 4a 0a 00 	mov	10(r10),0(r10)	;0x0000a
    6f72:	00 00 
    6f74:	ba d2 06 00 	bis	#8,	6(r10)	;r2 As==11
    6f78:	8a 93 0a 00 	cmp	#0,	10(r10)	;r3 As==00, 0x000a
    6f7c:	0b 20       	jnz	$+24     	;abs 0x6f94
    6f7e:	1c 4a 06 00 	mov	6(r10),	r12	;
    6f82:	3c f0 80 02 	and	#640,	r12	;#0x0280
    6f86:	3c 90 00 02 	cmp	#512,	r12	;#0x0200
    6f8a:	04 24       	jz	$+10     	;abs 0x6f94
    6f8c:	0c 48       	mov	r8,	r12	;
    6f8e:	0d 4a       	mov	r10,	r13	;
    6f90:	b0 12 d4 8e 	call	#36564		;#0x8ed4
    6f94:	1d 4a 06 00 	mov	6(r10),	r13	;
    6f98:	0c 4d       	mov	r13,	r12	;
    6f9a:	1c f3       	and	#1,	r12	;r3 As==01
    6f9c:	0c 93       	cmp	#0,	r12	;r3 As==00
    6f9e:	09 24       	jz	$+20     	;abs 0x6fb2
    6fa0:	8a 43 04 00 	mov	#0,	4(r10)	;r3 As==00
    6fa4:	0c 43       	clr	r12		;
    6fa6:	1c 8a 0c 00 	sub	12(r10),r12	;0x0000c
    6faa:	8a 4c 0e 00 	mov	r12,	14(r10)	; 0x000e
    6fae:	30 40 be 6f 	br	#0x6fbe		;
    6fb2:	2d b3       	bit	#2,	r13	;r3 As==10
    6fb4:	02 20       	jnz	$+6      	;abs 0x6fba
    6fb6:	1c 4a 0c 00 	mov	12(r10),r12	;0x0000c
    6fba:	8a 4c 04 00 	mov	r12,	4(r10)	;
    6fbe:	8a 93 0a 00 	cmp	#0,	10(r10)	;r3 As==00, 0x000a
    6fc2:	0e 20       	jnz	$+30     	;abs 0x6fe0
    6fc4:	1d 4a 06 00 	mov	6(r10),	r13	;
    6fc8:	0c 4d       	mov	r13,	r12	;
    6fca:	3c f0 80 00 	and	#128,	r12	;#0x0080
    6fce:	0c 93       	cmp	#0,	r12	;r3 As==00
    6fd0:	08 24       	jz	$+18     	;abs 0x6fe2
    6fd2:	3d d0 40 00 	bis	#64,	r13	;#0x0040
    6fd6:	8a 4d 06 00 	mov	r13,	6(r10)	;
    6fda:	3c 43       	mov	#-1,	r12	;r3 As==11
    6fdc:	30 40 e2 6f 	br	#0x6fe2		;
    6fe0:	0c 43       	clr	r12		;
    6fe2:	30 40 ac 51 	br	#0x51ac		;

00006fe6 <quorem>:
    6fe6:	0a 12       	push	r10		;
    6fe8:	09 12       	push	r9		;
    6fea:	08 12       	push	r8		;
    6fec:	07 12       	push	r7		;
    6fee:	06 12       	push	r6		;
    6ff0:	05 12       	push	r5		;
    6ff2:	04 12       	push	r4		;
    6ff4:	31 80 30 00 	sub	#48,	r1	;#0x0030
    6ff8:	1e 4d 08 00 	mov	8(r13),	r14	;
    6ffc:	8c 9e 08 00 	cmp	r14,	8(r12)	;
    7000:	59 39       	jl	$+692    	;abs 0x72b4
    7002:	81 4d 2e 00 	mov	r13,	46(r1)	; 0x002e
    7006:	81 4c 16 00 	mov	r12,	22(r1)	; 0x0016
    700a:	3d 50 0a 00 	add	#10,	r13	;#0x000a
    700e:	81 4d 02 00 	mov	r13,	2(r1)	;
    7012:	04 4e       	mov	r14,	r4	;
    7014:	34 53       	add	#-1,	r4	;r3 As==11
    7016:	0a 44       	mov	r4,	r10	;
    7018:	0a 54       	add	r4,	r10	;
    701a:	0a 5a       	rla	r10		;
    701c:	0d 5a       	add	r10,	r13	;
    701e:	81 4d 14 00 	mov	r13,	20(r1)	; 0x0014
    7022:	3c 50 0a 00 	add	#10,	r12	;#0x000a
    7026:	81 4c 0e 00 	mov	r12,	14(r1)	; 0x000e
    702a:	0a 5c       	add	r12,	r10	;
    702c:	2c 4a       	mov	@r10,	r12	;
    702e:	1d 4a 02 00 	mov	2(r10),	r13	;
    7032:	19 41 14 00 	mov	20(r1),	r9	;0x00014
    7036:	2e 49       	mov	@r9,	r14	;
    7038:	1e 53       	inc	r14		;
    703a:	1f 49 02 00 	mov	2(r9),	r15	;
    703e:	0f 63       	adc	r15		;
    7040:	b0 12 2a c9 	call	#51498		;#0xc92a
    7044:	81 4c 06 00 	mov	r12,	6(r1)	;
    7048:	81 4d 08 00 	mov	r13,	8(r1)	;
    704c:	1c 41 06 00 	mov	6(r1),	r12	;
    7050:	0c dd       	bis	r13,	r12	;
    7052:	0c 93       	cmp	#0,	r12	;r3 As==00
    7054:	ab 24       	jz	$+344    	;abs 0x71ac
    7056:	19 41 0e 00 	mov	14(r1),	r9	;0x0000e
    705a:	1b 41 02 00 	mov	2(r1),	r11	;
    705e:	06 43       	clr	r6		;
    7060:	07 46       	mov	r6,	r7	;
    7062:	81 46 0a 00 	mov	r6,	10(r1)	; 0x000a
    7066:	81 46 2c 00 	mov	r6,	44(r1)	; 0x002c
    706a:	28 4b       	mov	@r11,	r8	;
    706c:	91 4b 02 00 	mov	2(r11),	16(r1)	; 0x0010
    7070:	10 00 
    7072:	0c 48       	mov	r8,	r12	;
    7074:	0d 43       	clr	r13		;
    7076:	1e 41 06 00 	mov	6(r1),	r14	;
    707a:	1f 41 08 00 	mov	8(r1),	r15	;
    707e:	81 4b 00 00 	mov	r11,	0(r1)	;
    7082:	b0 12 ac 52 	call	#21164		;#0x52ac
    7086:	05 46       	mov	r6,	r5	;
    7088:	05 5c       	add	r12,	r5	;
    708a:	0d 67       	addc	r7,	r13	;
    708c:	0c 45       	mov	r5,	r12	;
    708e:	3e 40 10 00 	mov	#16,	r14	;#0x0010
    7092:	b0 12 62 52 	call	#21090		;#0x5262
    7096:	06 4c       	mov	r12,	r6	;
    7098:	07 4d       	mov	r13,	r7	;
    709a:	0c 48       	mov	r8,	r12	;
    709c:	1d 41 10 00 	mov	16(r1),	r13	;0x00010
    70a0:	3e 40 10 00 	mov	#16,	r14	;#0x0010
    70a4:	b0 12 62 52 	call	#21090		;#0x5262
    70a8:	1e 41 06 00 	mov	6(r1),	r14	;
    70ac:	1f 41 08 00 	mov	8(r1),	r15	;
    70b0:	b0 12 ac 52 	call	#21164		;#0x52ac
    70b4:	08 46       	mov	r6,	r8	;
    70b6:	08 5c       	add	r12,	r8	;
    70b8:	0d 67       	addc	r7,	r13	;
    70ba:	0c 48       	mov	r8,	r12	;
    70bc:	3e 40 10 00 	mov	#16,	r14	;#0x0010
    70c0:	b0 12 62 52 	call	#21090		;#0x5262
    70c4:	06 4c       	mov	r12,	r6	;
    70c6:	07 4d       	mov	r13,	r7	;
    70c8:	2c 49       	mov	@r9,	r12	;
    70ca:	1d 41 0a 00 	mov	10(r1),	r13	;0x0000a
    70ce:	0d 5c       	add	r12,	r13	;
    70d0:	81 4d 18 00 	mov	r13,	24(r1)	; 0x0018
    70d4:	0d 43       	clr	r13		;
    70d6:	1d 61 2c 00 	addc	44(r1),	r13	;0x0002c
    70da:	81 4d 1a 00 	mov	r13,	26(r1)	; 0x001a
    70de:	81 45 1c 00 	mov	r5,	28(r1)	; 0x001c
    70e2:	81 43 1e 00 	mov	#0,	30(r1)	;r3 As==00, 0x001e
    70e6:	1e 41 18 00 	mov	24(r1),	r14	;0x00018
    70ea:	1f 41 1a 00 	mov	26(r1),	r15	;0x0001a
    70ee:	1e 81 1c 00 	sub	28(r1),	r14	;0x0001c
    70f2:	1f 71 1e 00 	subc	30(r1),	r15	;0x0001e
    70f6:	81 4e 10 00 	mov	r14,	16(r1)	; 0x0010
    70fa:	81 4f 12 00 	mov	r15,	18(r1)	; 0x0012
    70fe:	1d 49 02 00 	mov	2(r9),	r13	;
    7102:	3e 40 10 00 	mov	#16,	r14	;#0x0010
    7106:	b0 12 62 52 	call	#21090		;#0x5262
    710a:	81 48 20 00 	mov	r8,	32(r1)	; 0x0020
    710e:	81 43 22 00 	mov	#0,	34(r1)	;r3 As==00, 0x0022
    7112:	1c 81 20 00 	sub	32(r1),	r12	;0x00020
    7116:	1d 71 22 00 	subc	34(r1),	r13	;0x00022
    711a:	81 4c 0a 00 	mov	r12,	10(r1)	; 0x000a
    711e:	81 4d 0c 00 	mov	r13,	12(r1)	; 0x000c
    7122:	1c 41 10 00 	mov	16(r1),	r12	;0x00010
    7126:	1d 41 12 00 	mov	18(r1),	r13	;0x00012
    712a:	3e 40 10 00 	mov	#16,	r14	;#0x0010
    712e:	b0 12 28 ca 	call	#51752		;#0xca28
    7132:	15 41 0a 00 	mov	10(r1),	r5	;0x0000a
    7136:	05 5c       	add	r12,	r5	;
    7138:	18 41 0c 00 	mov	12(r1),	r8	;0x0000c
    713c:	08 6d       	addc	r13,	r8	;
    713e:	0c 45       	mov	r5,	r12	;
    7140:	0d 48       	mov	r8,	r13	;
    7142:	3e 40 10 00 	mov	#16,	r14	;#0x0010
    7146:	b0 12 28 ca 	call	#51752		;#0xca28
    714a:	81 4c 0a 00 	mov	r12,	10(r1)	; 0x000a
    714e:	81 4d 2c 00 	mov	r13,	44(r1)	; 0x002c
    7152:	0c 45       	mov	r5,	r12	;
    7154:	0d 48       	mov	r8,	r13	;
    7156:	3e 40 10 00 	mov	#16,	r14	;#0x0010
    715a:	b0 12 b4 c9 	call	#51636		;#0xc9b4
    715e:	1e 41 10 00 	mov	16(r1),	r14	;0x00010
    7162:	0c de       	bis	r14,	r12	;
    7164:	89 4c 00 00 	mov	r12,	0(r9)	;
    7168:	89 4d 02 00 	mov	r13,	2(r9)	;
    716c:	29 52       	add	#4,	r9	;r2 As==10
    716e:	2b 41       	mov	@r1,	r11	;
    7170:	2b 52       	add	#4,	r11	;r2 As==10
    7172:	81 9b 14 00 	cmp	r11,	20(r1)	; 0x0014
    7176:	79 2f       	jc	$-268    	;abs 0x706a
    7178:	2c 4a       	mov	@r10,	r12	;
    717a:	1c da 02 00 	bis	2(r10),	r12	;
    717e:	0c 93       	cmp	#0,	r12	;r3 As==00
    7180:	15 20       	jnz	$+44     	;abs 0x71ac
    7182:	0c 44       	mov	r4,	r12	;
    7184:	3a 50 fc ff 	add	#65532,	r10	;#0xfffc
    7188:	81 9a 0e 00 	cmp	r10,	14(r1)	; 0x000e
    718c:	07 28       	jnc	$+16     	;abs 0x719c
    718e:	04 4c       	mov	r12,	r4	;
    7190:	19 41 16 00 	mov	22(r1),	r9	;0x00016
    7194:	89 4c 08 00 	mov	r12,	8(r9)	;
    7198:	30 40 ac 71 	br	#0x71ac		;
    719c:	2d 4a       	mov	@r10,	r13	;
    719e:	1d da 02 00 	bis	2(r10),	r13	;
    71a2:	0d 93       	cmp	#0,	r13	;r3 As==00
    71a4:	f4 23       	jnz	$-22     	;abs 0x718e
    71a6:	3c 53       	add	#-1,	r12	;r3 As==11
    71a8:	30 40 84 71 	br	#0x7184		;
    71ac:	1c 41 16 00 	mov	22(r1),	r12	;0x00016
    71b0:	1d 41 2e 00 	mov	46(r1),	r13	;0x0002e
    71b4:	b0 12 0c 99 	call	#39180		;#0x990c
    71b8:	0c 93       	cmp	#0,	r12	;r3 As==00
    71ba:	78 38       	jl	$+242    	;abs 0x72ac
    71bc:	91 53 06 00 	inc	6(r1)		;
    71c0:	81 63 08 00 	adc	8(r1)		;
    71c4:	1a 41 0e 00 	mov	14(r1),	r10	;0x0000e
    71c8:	17 41 02 00 	mov	2(r1),	r7	;
    71cc:	09 43       	clr	r9		;
    71ce:	08 49       	mov	r9,	r8	;
    71d0:	25 47       	mov	@r7,	r5	;
    71d2:	16 47 02 00 	mov	2(r7),	r6	;
    71d6:	2c 4a       	mov	@r10,	r12	;
    71d8:	09 5c       	add	r12,	r9	;
    71da:	81 49 24 00 	mov	r9,	36(r1)	; 0x0024
    71de:	0d 43       	clr	r13		;
    71e0:	0d 68       	addc	r8,	r13	;
    71e2:	81 4d 26 00 	mov	r13,	38(r1)	; 0x0026
    71e6:	81 45 28 00 	mov	r5,	40(r1)	; 0x0028
    71ea:	81 43 2a 00 	mov	#0,	42(r1)	;r3 As==00, 0x002a
    71ee:	1d 41 24 00 	mov	36(r1),	r13	;0x00024
    71f2:	1e 41 26 00 	mov	38(r1),	r14	;0x00026
    71f6:	1d 81 28 00 	sub	40(r1),	r13	;0x00028
    71fa:	1e 71 2a 00 	subc	42(r1),	r14	;0x0002a
    71fe:	81 4d 02 00 	mov	r13,	2(r1)	;
    7202:	81 4e 04 00 	mov	r14,	4(r1)	;
    7206:	1d 4a 02 00 	mov	2(r10),	r13	;
    720a:	3e 40 10 00 	mov	#16,	r14	;#0x0010
    720e:	b0 12 62 52 	call	#21090		;#0x5262
    7212:	08 4c       	mov	r12,	r8	;
    7214:	09 4d       	mov	r13,	r9	;
    7216:	0c 45       	mov	r5,	r12	;
    7218:	0d 46       	mov	r6,	r13	;
    721a:	3e 40 10 00 	mov	#16,	r14	;#0x0010
    721e:	b0 12 62 52 	call	#21090		;#0x5262
    7222:	08 8c       	sub	r12,	r8	;
    7224:	09 7d       	subc	r13,	r9	;
    7226:	1c 41 02 00 	mov	2(r1),	r12	;
    722a:	1d 41 04 00 	mov	4(r1),	r13	;
    722e:	3e 40 10 00 	mov	#16,	r14	;#0x0010
    7232:	b0 12 28 ca 	call	#51752		;#0xca28
    7236:	06 48       	mov	r8,	r6	;
    7238:	06 5c       	add	r12,	r6	;
    723a:	05 49       	mov	r9,	r5	;
    723c:	05 6d       	addc	r13,	r5	;
    723e:	0c 46       	mov	r6,	r12	;
    7240:	0d 45       	mov	r5,	r13	;
    7242:	3e 40 10 00 	mov	#16,	r14	;#0x0010
    7246:	b0 12 28 ca 	call	#51752		;#0xca28
    724a:	09 4c       	mov	r12,	r9	;
    724c:	08 4d       	mov	r13,	r8	;
    724e:	0c 46       	mov	r6,	r12	;
    7250:	0d 45       	mov	r5,	r13	;
    7252:	3e 40 10 00 	mov	#16,	r14	;#0x0010
    7256:	b0 12 b4 c9 	call	#51636		;#0xc9b4
    725a:	1e 41 02 00 	mov	2(r1),	r14	;
    725e:	0c de       	bis	r14,	r12	;
    7260:	8a 4c 00 00 	mov	r12,	0(r10)	;
    7264:	8a 4d 02 00 	mov	r13,	2(r10)	;
    7268:	2a 52       	add	#4,	r10	;r2 As==10
    726a:	27 52       	add	#4,	r7	;r2 As==10
    726c:	81 97 14 00 	cmp	r7,	20(r1)	; 0x0014
    7270:	af 2f       	jc	$-160    	;abs 0x71d0
    7272:	0c 44       	mov	r4,	r12	;
    7274:	0c 54       	add	r4,	r12	;
    7276:	0c 5c       	rla	r12		;
    7278:	1c 51 0e 00 	add	14(r1),	r12	;0x0000e
    727c:	2d 4c       	mov	@r12,	r13	;
    727e:	1d dc 02 00 	bis	2(r12),	r13	;
    7282:	0d 93       	cmp	#0,	r13	;r3 As==00
    7284:	13 20       	jnz	$+40     	;abs 0x72ac
    7286:	3c 50 fc ff 	add	#65532,	r12	;#0xfffc
    728a:	81 9c 0e 00 	cmp	r12,	14(r1)	; 0x000e
    728e:	06 28       	jnc	$+14     	;abs 0x729c
    7290:	19 41 16 00 	mov	22(r1),	r9	;0x00016
    7294:	89 44 08 00 	mov	r4,	8(r9)	;
    7298:	30 40 ac 72 	br	#0x72ac		;
    729c:	2d 4c       	mov	@r12,	r13	;
    729e:	1d dc 02 00 	bis	2(r12),	r13	;
    72a2:	0d 93       	cmp	#0,	r13	;r3 As==00
    72a4:	f5 23       	jnz	$-20     	;abs 0x7290
    72a6:	34 53       	add	#-1,	r4	;r3 As==11
    72a8:	30 40 86 72 	br	#0x7286		;
    72ac:	1c 41 06 00 	mov	6(r1),	r12	;
    72b0:	30 40 b6 72 	br	#0x72b6		;
    72b4:	0c 43       	clr	r12		;
    72b6:	31 50 30 00 	add	#48,	r1	;#0x0030
    72ba:	30 40 a4 51 	br	#0x51a4		;

000072be <_dtoa_r>:
    72be:	0a 12       	push	r10		;
    72c0:	09 12       	push	r9		;
    72c2:	08 12       	push	r8		;
    72c4:	07 12       	push	r7		;
    72c6:	06 12       	push	r6		;
    72c8:	05 12       	push	r5		;
    72ca:	04 12       	push	r4		;
    72cc:	31 80 56 00 	sub	#86,	r1	;#0x0056
    72d0:	81 4c 1e 00 	mov	r12,	30(r1)	; 0x001e
    72d4:	91 41 66 00 	mov	102(r1),40(r1)	;0x00066, 0x0028
    72d8:	28 00 
    72da:	91 41 68 00 	mov	104(r1),48(r1)	;0x00068, 0x0030
    72de:	30 00 
    72e0:	19 41 6a 00 	mov	106(r1),r9	;0x0006a
    72e4:	17 41 6c 00 	mov	108(r1),r7	;0x0006c
    72e8:	81 4d 26 00 	mov	r13,	38(r1)	; 0x0026
    72ec:	81 4e 3e 00 	mov	r14,	62(r1)	; 0x003e
    72f0:	81 4f 48 00 	mov	r15,	72(r1)	; 0x0048
    72f4:	1a 41 6e 00 	mov	110(r1),r10	;0x0006e
    72f8:	91 41 28 00 	mov	40(r1),	44(r1)	;0x00028, 0x002c
    72fc:	2c 00 
    72fe:	91 41 30 00 	mov	48(r1),	46(r1)	;0x00030, 0x002e
    7302:	2e 00 
    7304:	81 49 1c 00 	mov	r9,	28(r1)	; 0x001c
    7308:	04 47       	mov	r7,	r4	;
    730a:	8c 93 12 00 	cmp	#0,	18(r12)	;r3 As==00, 0x0012
    730e:	0f 20       	jnz	$+32     	;abs 0x732e
    7310:	3c 42       	mov	#8,	r12	;r2 As==11
    7312:	b0 12 00 54 	call	#21504		;#0x5400
    7316:	1d 41 1e 00 	mov	30(r1),	r13	;0x0001e
    731a:	8d 4c 12 00 	mov	r12,	18(r13)	; 0x0012
    731e:	8c 43 02 00 	mov	#0,	2(r12)	;r3 As==00
    7322:	8c 43 04 00 	mov	#0,	4(r12)	;r3 As==00
    7326:	8c 43 00 00 	mov	#0,	0(r12)	;r3 As==00
    732a:	8c 43 06 00 	mov	#0,	6(r12)	;r3 As==00
    732e:	1e 41 1e 00 	mov	30(r1),	r14	;0x0001e
    7332:	1c 4e 12 00 	mov	18(r14),r12	;0x00012
    7336:	28 4c       	mov	@r12,	r8	;
    7338:	08 93       	cmp	#0,	r8	;r3 As==00
    733a:	14 24       	jz	$+42     	;abs 0x7364
    733c:	1d 4c 02 00 	mov	2(r12),	r13	;
    7340:	88 4d 02 00 	mov	r13,	2(r8)	;
    7344:	1c 43       	mov	#1,	r12	;r3 As==01
    7346:	b0 12 6a c9 	call	#51562		;#0xc96a
    734a:	88 4c 04 00 	mov	r12,	4(r8)	;
    734e:	1c 41 1e 00 	mov	30(r1),	r12	;0x0001e
    7352:	0d 48       	mov	r8,	r13	;
    7354:	b0 12 fe 90 	call	#37118		;#0x90fe
    7358:	1d 41 1e 00 	mov	30(r1),	r13	;0x0001e
    735c:	1c 4d 12 00 	mov	18(r13),r12	;0x00012
    7360:	8c 43 00 00 	mov	#0,	0(r12)	;r3 As==00
    7364:	07 93       	cmp	#0,	r7	;r3 As==00
    7366:	09 34       	jge	$+20     	;abs 0x737a
    7368:	9a 43 00 00 	mov	#1,	0(r10)	;r3 As==01
    736c:	37 f0 ff 7f 	and	#32767,	r7	;#0x7fff
    7370:	81 49 1c 00 	mov	r9,	28(r1)	; 0x001c
    7374:	04 47       	mov	r7,	r4	;
    7376:	30 40 7e 73 	br	#0x737e		;
    737a:	8a 43 00 00 	mov	#0,	0(r10)	;r3 As==00
    737e:	16 41 1c 00 	mov	28(r1),	r6	;0x0001c
    7382:	0c 44       	mov	r4,	r12	;
    7384:	3c f0 f0 7f 	and	#32752,	r12	;#0x7ff0
    7388:	3c 90 f0 7f 	cmp	#32752,	r12	;#0x7ff0
    738c:	2b 20       	jnz	$+88     	;abs 0x73e4
    738e:	17 41 48 00 	mov	72(r1),	r7	;0x00048
    7392:	b7 40 0f 27 	mov	#9999,	0(r7)	;#0x270f
    7396:	00 00 
    7398:	15 41 28 00 	mov	40(r1),	r5	;0x00028
    739c:	15 d1 30 00 	bis	48(r1),	r5	;0x00030
    73a0:	05 93       	cmp	#0,	r5	;r3 As==00
    73a2:	0a 20       	jnz	$+22     	;abs 0x73b8
    73a4:	07 44       	mov	r4,	r7	;
    73a6:	37 f0 0f 00 	and	#15,	r7	;#0x000f
    73aa:	07 d6       	bis	r6,	r7	;
    73ac:	07 93       	cmp	#0,	r7	;r3 As==00
    73ae:	04 20       	jnz	$+10     	;abs 0x73b8
    73b0:	3c 40 60 44 	mov	#17504,	r12	;#0x4460
    73b4:	30 40 bc 73 	br	#0x73bc		;
    73b8:	3c 40 69 44 	mov	#17513,	r12	;#0x4469
    73bc:	81 93 70 00 	cmp	#0,	112(r1)	;r3 As==00, 0x0070
    73c0:	02 20       	jnz	$+6      	;abs 0x73c6
    73c2:	30 40 ce 85 	br	#0x85ce		;
    73c6:	0d 4c       	mov	r12,	r13	;
    73c8:	cc 93 03 00 	cmp.b	#0,	3(r12)	;r3 As==00
    73cc:	03 24       	jz	$+8      	;abs 0x73d4
    73ce:	3d 52       	add	#8,	r13	;r2 As==11
    73d0:	30 40 d8 73 	br	#0x73d8		;
    73d4:	3d 50 03 00 	add	#3,	r13	;
    73d8:	17 41 70 00 	mov	112(r1),r7	;0x00070
    73dc:	87 4d 00 00 	mov	r13,	0(r7)	;
    73e0:	30 40 ce 85 	br	#0x85ce		;
    73e4:	81 43 00 00 	mov	#0,	0(r1)	;r3 As==00
    73e8:	81 43 02 00 	mov	#0,	2(r1)	;r3 As==00
    73ec:	81 43 04 00 	mov	#0,	4(r1)	;r3 As==00
    73f0:	81 43 06 00 	mov	#0,	6(r1)	;r3 As==00
    73f4:	1c 41 28 00 	mov	40(r1),	r12	;0x00028
    73f8:	1d 41 30 00 	mov	48(r1),	r13	;0x00030
    73fc:	1e 41 1c 00 	mov	28(r1),	r14	;0x0001c
    7400:	0f 44       	mov	r4,	r15	;
    7402:	b0 12 c2 c3 	call	#50114		;#0xc3c2
    7406:	0c 93       	cmp	#0,	r12	;r3 As==00
    7408:	12 20       	jnz	$+38     	;abs 0x742e
    740a:	17 41 48 00 	mov	72(r1),	r7	;0x00048
    740e:	97 43 00 00 	mov	#1,	0(r7)	;r3 As==01
    7412:	81 93 70 00 	cmp	#0,	112(r1)	;r3 As==00, 0x0070
    7416:	02 20       	jnz	$+6      	;abs 0x741c
    7418:	30 40 9e 85 	br	#0x859e		;
    741c:	17 41 70 00 	mov	112(r1),r7	;0x00070
    7420:	b7 40 6e 44 	mov	#17518,	0(r7)	;#0x446e
    7424:	00 00 
    7426:	3c 40 6d 44 	mov	#17517,	r12	;#0x446d
    742a:	30 40 ce 85 	br	#0x85ce		;
    742e:	91 41 28 00 	mov	40(r1),	0(r1)	;0x00028
    7432:	00 00 
    7434:	91 41 30 00 	mov	48(r1),	2(r1)	;0x00030
    7438:	02 00 
    743a:	91 41 1c 00 	mov	28(r1),	4(r1)	;0x0001c
    743e:	04 00 
    7440:	81 44 06 00 	mov	r4,	6(r1)	;
    7444:	1c 41 1e 00 	mov	30(r1),	r12	;0x0001e
    7448:	0d 41       	mov	r1,	r13	;
    744a:	3d 50 54 00 	add	#84,	r13	;#0x0054
    744e:	0e 41       	mov	r1,	r14	;
    7450:	3e 50 52 00 	add	#82,	r14	;#0x0052
    7454:	b0 12 4c 9d 	call	#40268		;#0x9d4c
    7458:	81 4c 24 00 	mov	r12,	36(r1)	; 0x0024
    745c:	0c 46       	mov	r6,	r12	;
    745e:	0d 44       	mov	r4,	r13	;
    7460:	3e 40 14 00 	mov	#20,	r14	;#0x0014
    7464:	b0 12 62 52 	call	#21090		;#0x5262
    7468:	3c f0 ff 07 	and	#2047,	r12	;#0x07ff
    746c:	0c 93       	cmp	#0,	r12	;r3 As==00
    746e:	17 24       	jz	$+48     	;abs 0x749e
    7470:	91 41 28 00 	mov	40(r1),	12(r1)	;0x00028, 0x000c
    7474:	0c 00 
    7476:	91 41 30 00 	mov	48(r1),	14(r1)	;0x00030, 0x000e
    747a:	0e 00 
    747c:	91 41 1c 00 	mov	28(r1),	16(r1)	;0x0001c, 0x0010
    7480:	10 00 
    7482:	0d 44       	mov	r4,	r13	;
    7484:	3d f0 0f 00 	and	#15,	r13	;#0x000f
    7488:	3d d0 f0 3f 	bis	#16368,	r13	;#0x3ff0
    748c:	81 4d 12 00 	mov	r13,	18(r1)	; 0x0012
    7490:	06 4c       	mov	r12,	r6	;
    7492:	36 50 01 fc 	add	#64513,	r6	;#0xfc01
    7496:	81 43 4a 00 	mov	#0,	74(r1)	;r3 As==00, 0x004a
    749a:	30 40 08 75 	br	#0x7508		;
    749e:	1a 41 52 00 	mov	82(r1),	r10	;0x00052
    74a2:	1a 51 54 00 	add	84(r1),	r10	;0x00054
    74a6:	1c 41 28 00 	mov	40(r1),	r12	;0x00028
    74aa:	1d 41 30 00 	mov	48(r1),	r13	;0x00030
    74ae:	3a 90 ef fb 	cmp	#64495,	r10	;#0xfbef
    74b2:	12 38       	jl	$+38     	;abs 0x74d8
    74b4:	0e 4a       	mov	r10,	r14	;
    74b6:	3e 50 12 04 	add	#1042,	r14	;#0x0412
    74ba:	b0 12 62 52 	call	#21090		;#0x5262
    74be:	08 4c       	mov	r12,	r8	;
    74c0:	09 4d       	mov	r13,	r9	;
    74c2:	0c 46       	mov	r6,	r12	;
    74c4:	0d 44       	mov	r4,	r13	;
    74c6:	3e 40 0e fc 	mov	#64526,	r14	;#0xfc0e
    74ca:	0e 8a       	sub	r10,	r14	;
    74cc:	b0 12 b4 c9 	call	#51636		;#0xc9b4
    74d0:	0c d8       	bis	r8,	r12	;
    74d2:	0d d9       	bis	r9,	r13	;
    74d4:	30 40 e2 74 	br	#0x74e2		;
    74d8:	3e 40 ee fb 	mov	#64494,	r14	;#0xfbee
    74dc:	0e 8a       	sub	r10,	r14	;
    74de:	b0 12 b4 c9 	call	#51636		;#0xc9b4
    74e2:	b0 12 50 c7 	call	#51024		;#0xc750
    74e6:	81 4c 0c 00 	mov	r12,	12(r1)	; 0x000c
    74ea:	81 4d 0e 00 	mov	r13,	14(r1)	; 0x000e
    74ee:	81 4e 10 00 	mov	r14,	16(r1)	; 0x0010
    74f2:	81 4f 12 00 	mov	r15,	18(r1)	; 0x0012
    74f6:	81 53 10 00 	add	#0,	16(r1)	;r3 As==00, 0x0010
    74fa:	b1 60 10 fe 	addc	#65040,	18(r1)	;#0xfe10, 0x0012
    74fe:	12 00 
    7500:	06 4a       	mov	r10,	r6	;
    7502:	36 53       	add	#-1,	r6	;r3 As==11
    7504:	91 43 4a 00 	mov	#1,	74(r1)	;r3 As==01, 0x004a
    7508:	18 41 0c 00 	mov	12(r1),	r8	;0x0000c
    750c:	19 41 0e 00 	mov	14(r1),	r9	;0x0000e
    7510:	1a 41 10 00 	mov	16(r1),	r10	;0x00010
    7514:	1b 41 12 00 	mov	18(r1),	r11	;0x00012
    7518:	0c 43       	clr	r12		;
    751a:	0d 4c       	mov	r12,	r13	;
    751c:	0e 4c       	mov	r12,	r14	;
    751e:	3f 40 f8 3f 	mov	#16376,	r15	;#0x3ff8
    7522:	b0 12 8c bb 	call	#48012		;#0xbb8c
    7526:	35 40 f6 bb 	mov	#48118,	r5	;#0xbbf6
    752a:	08 4c       	mov	r12,	r8	;
    752c:	09 4d       	mov	r13,	r9	;
    752e:	0a 4e       	mov	r14,	r10	;
    7530:	0b 4f       	mov	r15,	r11	;
    7532:	3c 40 61 43 	mov	#17249,	r12	;#0x4361
    7536:	3d 40 6f 63 	mov	#25455,	r13	;#0x636f
    753a:	3e 40 a7 87 	mov	#34727,	r14	;#0x87a7
    753e:	3f 40 d2 3f 	mov	#16338,	r15	;#0x3fd2
    7542:	85 12       	call	r5		;
    7544:	37 40 26 bb 	mov	#47910,	r7	;#0xbb26
    7548:	08 4c       	mov	r12,	r8	;
    754a:	09 4d       	mov	r13,	r9	;
    754c:	0a 4e       	mov	r14,	r10	;
    754e:	0b 4f       	mov	r15,	r11	;
    7550:	3c 40 b3 c8 	mov	#51379,	r12	;#0xc8b3
    7554:	3d 40 60 8b 	mov	#35680,	r13	;#0x8b60
    7558:	3e 40 28 8a 	mov	#35368,	r14	;#0x8a28
    755c:	3f 40 c6 3f 	mov	#16326,	r15	;#0x3fc6
    7560:	87 12       	call	r7		;
    7562:	81 4c 0c 00 	mov	r12,	12(r1)	; 0x000c
    7566:	81 4d 14 00 	mov	r13,	20(r1)	; 0x0014
    756a:	81 4e 20 00 	mov	r14,	32(r1)	; 0x0020
    756e:	81 4f 22 00 	mov	r15,	34(r1)	; 0x0022
    7572:	0c 46       	mov	r6,	r12	;
    7574:	3c b0 00 80 	bit	#32768,	r12	;#0x8000
    7578:	0d 7d       	subc	r13,	r13	;
    757a:	3d e3       	inv	r13		;
    757c:	b0 12 06 c6 	call	#50694		;#0xc606
    7580:	08 4c       	mov	r12,	r8	;
    7582:	09 4d       	mov	r13,	r9	;
    7584:	0a 4e       	mov	r14,	r10	;
    7586:	0b 4f       	mov	r15,	r11	;
    7588:	3c 40 fb 79 	mov	#31227,	r12	;#0x79fb
    758c:	3d 40 9f 50 	mov	#20639,	r13	;#0x509f
    7590:	3e 40 13 44 	mov	#17427,	r14	;#0x4413
    7594:	3f 40 d3 3f 	mov	#16339,	r15	;#0x3fd3
    7598:	85 12       	call	r5		;
    759a:	18 41 0c 00 	mov	12(r1),	r8	;0x0000c
    759e:	19 41 14 00 	mov	20(r1),	r9	;0x00014
    75a2:	1a 41 20 00 	mov	32(r1),	r10	;0x00020
    75a6:	1b 41 22 00 	mov	34(r1),	r11	;0x00022
    75aa:	87 12       	call	r7		;
    75ac:	07 4c       	mov	r12,	r7	;
    75ae:	08 4d       	mov	r13,	r8	;
    75b0:	09 4e       	mov	r14,	r9	;
    75b2:	0a 4f       	mov	r15,	r10	;
    75b4:	b0 12 b4 c6 	call	#50868		;#0xc6b4
    75b8:	05 4c       	mov	r12,	r5	;
    75ba:	81 43 00 00 	mov	#0,	0(r1)	;r3 As==00
    75be:	81 43 02 00 	mov	#0,	2(r1)	;r3 As==00
    75c2:	81 43 04 00 	mov	#0,	4(r1)	;r3 As==00
    75c6:	81 43 06 00 	mov	#0,	6(r1)	;r3 As==00
    75ca:	0c 47       	mov	r7,	r12	;
    75cc:	0d 48       	mov	r8,	r13	;
    75ce:	0e 49       	mov	r9,	r14	;
    75d0:	0f 4a       	mov	r10,	r15	;
    75d2:	b0 12 92 c5 	call	#50578		;#0xc592
    75d6:	0c 93       	cmp	#0,	r12	;r3 As==00
    75d8:	18 34       	jge	$+50     	;abs 0x760a
    75da:	0c 45       	mov	r5,	r12	;
    75dc:	3c b0 00 80 	bit	#32768,	r12	;#0x8000
    75e0:	0d 7d       	subc	r13,	r13	;
    75e2:	3d e3       	inv	r13		;
    75e4:	b0 12 06 c6 	call	#50694		;#0xc606
    75e8:	81 4c 00 00 	mov	r12,	0(r1)	;
    75ec:	81 4d 02 00 	mov	r13,	2(r1)	;
    75f0:	81 4e 04 00 	mov	r14,	4(r1)	;
    75f4:	81 4f 06 00 	mov	r15,	6(r1)	;
    75f8:	0c 47       	mov	r7,	r12	;
    75fa:	0d 48       	mov	r8,	r13	;
    75fc:	0e 49       	mov	r9,	r14	;
    75fe:	0f 4a       	mov	r10,	r15	;
    7600:	b0 12 36 c4 	call	#50230		;#0xc436
    7604:	0c 93       	cmp	#0,	r12	;r3 As==00
    7606:	01 24       	jz	$+4      	;abs 0x760a
    7608:	35 53       	add	#-1,	r5	;r3 As==11
    760a:	39 40 16 00 	mov	#22,	r9	;#0x0016
    760e:	09 95       	cmp	r5,	r9	;
    7610:	22 28       	jnc	$+70     	;abs 0x7656
    7612:	0f 45       	mov	r5,	r15	;
    7614:	0f 55       	add	r5,	r15	;
    7616:	0f 5f       	rla	r15		;
    7618:	0f 5f       	rla	r15		;
    761a:	3f 50 0c 45 	add	#17676,	r15	;#0x450c
    761e:	91 41 28 00 	mov	40(r1),	0(r1)	;0x00028
    7622:	00 00 
    7624:	91 41 30 00 	mov	48(r1),	2(r1)	;0x00030
    7628:	02 00 
    762a:	91 41 1c 00 	mov	28(r1),	4(r1)	;0x0001c
    762e:	04 00 
    7630:	81 44 06 00 	mov	r4,	6(r1)	;
    7634:	2c 4f       	mov	@r15,	r12	;
    7636:	1d 4f 02 00 	mov	2(r15),	r13	;
    763a:	1e 4f 04 00 	mov	4(r15),	r14	;
    763e:	1f 4f 06 00 	mov	6(r15),	r15	;
    7642:	b0 12 aa c4 	call	#50346		;#0xc4aa
    7646:	0a 43       	clr	r10		;
    7648:	0a 9c       	cmp	r12,	r10	;
    764a:	09 34       	jge	$+20     	;abs 0x765e
    764c:	35 53       	add	#-1,	r5	;r3 As==11
    764e:	81 4a 44 00 	mov	r10,	68(r1)	; 0x0044
    7652:	30 40 62 76 	br	#0x7662		;
    7656:	91 43 44 00 	mov	#1,	68(r1)	;r3 As==01, 0x0044
    765a:	30 40 62 76 	br	#0x7662		;
    765e:	81 43 44 00 	mov	#0,	68(r1)	;r3 As==00, 0x0044
    7662:	1c 41 52 00 	mov	82(r1),	r12	;0x00052
    7666:	0c 86       	sub	r6,	r12	;
    7668:	3c 53       	add	#-1,	r12	;r3 As==11
    766a:	81 4c 20 00 	mov	r12,	32(r1)	; 0x0020
    766e:	0c 93       	cmp	#0,	r12	;r3 As==00
    7670:	08 34       	jge	$+18     	;abs 0x7682
    7672:	07 43       	clr	r7		;
    7674:	07 8c       	sub	r12,	r7	;
    7676:	81 47 22 00 	mov	r7,	34(r1)	; 0x0022
    767a:	81 43 20 00 	mov	#0,	32(r1)	;r3 As==00, 0x0020
    767e:	30 40 86 76 	br	#0x7686		;
    7682:	81 43 22 00 	mov	#0,	34(r1)	;r3 As==00, 0x0022
    7686:	05 93       	cmp	#0,	r5	;r3 As==00
    7688:	08 38       	jl	$+18     	;abs 0x769a
    768a:	81 55 20 00 	add	r5,	32(r1)	; 0x0020
    768e:	81 45 42 00 	mov	r5,	66(r1)	; 0x0042
    7692:	81 43 34 00 	mov	#0,	52(r1)	;r3 As==00, 0x0034
    7696:	30 40 aa 76 	br	#0x76aa		;
    769a:	81 85 22 00 	sub	r5,	34(r1)	; 0x0022
    769e:	07 43       	clr	r7		;
    76a0:	07 85       	sub	r5,	r7	;
    76a2:	81 47 34 00 	mov	r7,	52(r1)	; 0x0034
    76a6:	81 43 42 00 	mov	#0,	66(r1)	;r3 As==00, 0x0042
    76aa:	39 40 09 00 	mov	#9,	r9	;
    76ae:	19 91 26 00 	cmp	38(r1),	r9	;0x00026
    76b2:	45 28       	jnc	$+140    	;abs 0x773e
    76b4:	3a 40 05 00 	mov	#5,	r10	;
    76b8:	1a 91 26 00 	cmp	38(r1),	r10	;0x00026
    76bc:	06 34       	jge	$+14     	;abs 0x76ca
    76be:	b1 50 fc ff 	add	#65532,	38(r1)	;#0xfffc, 0x0026
    76c2:	26 00 
    76c4:	09 43       	clr	r9		;
    76c6:	30 40 cc 76 	br	#0x76cc		;
    76ca:	19 43       	mov	#1,	r9	;r3 As==01
    76cc:	b1 90 03 00 	cmp	#3,	38(r1)	; 0x0026
    76d0:	26 00 
    76d2:	26 24       	jz	$+78     	;abs 0x7720
    76d4:	3c 40 03 00 	mov	#3,	r12	;
    76d8:	1c 91 26 00 	cmp	38(r1),	r12	;0x00026
    76dc:	07 38       	jl	$+16     	;abs 0x76ec
    76de:	a1 93 26 00 	cmp	#2,	38(r1)	;r3 As==10, 0x0026
    76e2:	3d 20       	jnz	$+124    	;abs 0x775e
    76e4:	81 43 36 00 	mov	#0,	54(r1)	;r3 As==00, 0x0036
    76e8:	30 40 06 77 	br	#0x7706		;
    76ec:	a1 92 26 00 	cmp	#4,	38(r1)	;r2 As==10, 0x0026
    76f0:	08 24       	jz	$+18     	;abs 0x7702
    76f2:	b1 90 05 00 	cmp	#5,	38(r1)	; 0x0026
    76f6:	26 00 
    76f8:	32 20       	jnz	$+102    	;abs 0x775e
    76fa:	91 43 36 00 	mov	#1,	54(r1)	;r3 As==01, 0x0036
    76fe:	30 40 24 77 	br	#0x7724		;
    7702:	91 43 36 00 	mov	#1,	54(r1)	;r3 As==01, 0x0036
    7706:	0d 43       	clr	r13		;
    7708:	1d 91 3e 00 	cmp	62(r1),	r13	;0x0003e
    770c:	34 38       	jl	$+106    	;abs 0x7776
    770e:	91 43 0c 00 	mov	#1,	12(r1)	;r3 As==01, 0x000c
    7712:	16 41 0c 00 	mov	12(r1),	r6	;0x0000c
    7716:	0c 46       	mov	r6,	r12	;
    7718:	81 46 3e 00 	mov	r6,	62(r1)	; 0x003e
    771c:	30 40 88 77 	br	#0x7788		;
    7720:	81 43 36 00 	mov	#0,	54(r1)	;r3 As==00, 0x0036
    7724:	17 41 3e 00 	mov	62(r1),	r7	;0x0003e
    7728:	07 55       	add	r5,	r7	;
    772a:	81 47 0c 00 	mov	r7,	12(r1)	; 0x000c
    772e:	06 47       	mov	r7,	r6	;
    7730:	16 53       	inc	r6		;
    7732:	0a 43       	clr	r10		;
    7734:	0a 96       	cmp	r6,	r10	;
    7736:	27 38       	jl	$+80     	;abs 0x7786
    7738:	1c 43       	mov	#1,	r12	;r3 As==01
    773a:	30 40 88 77 	br	#0x7788		;
    773e:	19 43       	mov	#1,	r9	;r3 As==01
    7740:	81 43 26 00 	mov	#0,	38(r1)	;r3 As==00, 0x0026
    7744:	81 49 36 00 	mov	r9,	54(r1)	; 0x0036
    7748:	b1 43 0c 00 	mov	#-1,	12(r1)	;r3 As==11, 0x000c
    774c:	16 41 0c 00 	mov	12(r1),	r6	;0x0000c
    7750:	3c 40 12 00 	mov	#18,	r12	;#0x0012
    7754:	91 41 26 00 	mov	38(r1),	62(r1)	;0x00026, 0x003e
    7758:	3e 00 
    775a:	30 40 88 77 	br	#0x7788		;
    775e:	91 43 36 00 	mov	#1,	54(r1)	;r3 As==01, 0x0036
    7762:	b1 43 0c 00 	mov	#-1,	12(r1)	;r3 As==11, 0x000c
    7766:	16 41 0c 00 	mov	12(r1),	r6	;0x0000c
    776a:	3c 40 12 00 	mov	#18,	r12	;#0x0012
    776e:	81 43 3e 00 	mov	#0,	62(r1)	;r3 As==00, 0x003e
    7772:	30 40 88 77 	br	#0x7788		;
    7776:	91 41 3e 00 	mov	62(r1),	12(r1)	;0x0003e, 0x000c
    777a:	0c 00 
    777c:	16 41 3e 00 	mov	62(r1),	r6	;0x0003e
    7780:	0c 46       	mov	r6,	r12	;
    7782:	30 40 88 77 	br	#0x7788		;
    7786:	0c 46       	mov	r6,	r12	;
    7788:	1d 41 1e 00 	mov	30(r1),	r13	;0x0001e
    778c:	1a 4d 12 00 	mov	18(r13),r10	;0x00012
    7790:	8a 43 02 00 	mov	#0,	2(r10)	;r3 As==00
    7794:	2d 42       	mov	#4,	r13	;r2 As==10
    7796:	0e 4d       	mov	r13,	r14	;
    7798:	3e 50 0a 00 	add	#10,	r14	;#0x000a
    779c:	0c 9e       	cmp	r14,	r12	;
    779e:	05 28       	jnc	$+12     	;abs 0x77aa
    77a0:	9a 53 02 00 	inc	2(r10)		;
    77a4:	0d 5d       	rla	r13		;
    77a6:	30 40 96 77 	br	#0x7796		;
    77aa:	1c 41 1e 00 	mov	30(r1),	r12	;0x0001e
    77ae:	1d 4a 02 00 	mov	2(r10),	r13	;
    77b2:	b0 12 56 90 	call	#36950		;#0x9056
    77b6:	8a 4c 00 00 	mov	r12,	0(r10)	;
    77ba:	1e 41 1e 00 	mov	30(r1),	r14	;0x0001e
    77be:	1c 4e 12 00 	mov	18(r14),r12	;0x00012
    77c2:	a1 4c 2a 00 	mov	@r12,	42(r1)	; 0x002a
    77c6:	37 40 0e 00 	mov	#14,	r7	;#0x000e
    77ca:	07 96       	cmp	r6,	r7	;
    77cc:	02 2c       	jc	$+6      	;abs 0x77d2
    77ce:	30 40 ae 7d 	br	#0x7dae		;
    77d2:	09 93       	cmp	#0,	r9	;r3 As==00
    77d4:	02 20       	jnz	$+6      	;abs 0x77da
    77d6:	30 40 ae 7d 	br	#0x7dae		;
    77da:	91 41 1c 00 	mov	28(r1),	76(r1)	;0x0001c, 0x004c
    77de:	4c 00 
    77e0:	81 44 4e 00 	mov	r4,	78(r1)	; 0x004e
    77e4:	09 43       	clr	r9		;
    77e6:	09 95       	cmp	r5,	r9	;
    77e8:	80 34       	jge	$+258    	;abs 0x78ea
    77ea:	0c 45       	mov	r5,	r12	;
    77ec:	3c f0 0f 00 	and	#15,	r12	;#0x000f
    77f0:	0c 5c       	rla	r12		;
    77f2:	0c 5c       	rla	r12		;
    77f4:	0c 5c       	rla	r12		;
    77f6:	3c 50 0c 45 	add	#17676,	r12	;#0x450c
    77fa:	a1 4c 38 00 	mov	@r12,	56(r1)	; 0x0038
    77fe:	91 4c 02 00 	mov	2(r12),	58(r1)	; 0x003a
    7802:	3a 00 
    7804:	91 4c 04 00 	mov	4(r12),	60(r1)	; 0x003c
    7808:	3c 00 
    780a:	91 4c 06 00 	mov	6(r12),	64(r1)	; 0x0040
    780e:	40 00 
    7810:	0c 45       	mov	r5,	r12	;
    7812:	b0 12 d0 c9 	call	#51664		;#0xc9d0
    7816:	81 4c 32 00 	mov	r12,	50(r1)	; 0x0032
    781a:	3c b0 10 00 	bit	#16,	r12	;#0x0010
    781e:	21 24       	jz	$+68     	;abs 0x7862
    7820:	3c f0 0f 00 	and	#15,	r12	;#0x000f
    7824:	81 4c 32 00 	mov	r12,	50(r1)	; 0x0032
    7828:	18 41 28 00 	mov	40(r1),	r8	;0x00028
    782c:	19 41 30 00 	mov	48(r1),	r9	;0x00030
    7830:	1a 41 1c 00 	mov	28(r1),	r10	;0x0001c
    7834:	0b 44       	mov	r4,	r11	;
    7836:	1c 42 04 45 	mov	&0x4504,r12	;0x4504
    783a:	1d 42 06 45 	mov	&0x4506,r13	;0x4506
    783e:	1e 42 08 45 	mov	&0x4508,r14	;0x4508
    7842:	1f 42 0a 45 	mov	&0x450a,r15	;0x450a
    7846:	b0 12 dc c0 	call	#49372		;#0xc0dc
    784a:	81 4c 2c 00 	mov	r12,	44(r1)	; 0x002c
    784e:	81 4d 2e 00 	mov	r13,	46(r1)	; 0x002e
    7852:	81 4e 1c 00 	mov	r14,	28(r1)	; 0x001c
    7856:	04 4f       	mov	r15,	r4	;
    7858:	b1 40 03 00 	mov	#3,	20(r1)	; 0x0014
    785c:	14 00 
    785e:	30 40 66 78 	br	#0x7866		;
    7862:	a1 43 14 00 	mov	#2,	20(r1)	;r3 As==10, 0x0014
    7866:	37 40 e4 44 	mov	#17636,	r7	;#0x44e4
    786a:	81 93 32 00 	cmp	#0,	50(r1)	;r3 As==00, 0x0032
    786e:	23 24       	jz	$+72     	;abs 0x78b6
    7870:	91 b3 32 00 	bit	#1,	50(r1)	;r3 As==01, 0x0032
    7874:	1b 24       	jz	$+56     	;abs 0x78ac
    7876:	91 53 14 00 	inc	20(r1)		;
    787a:	18 41 38 00 	mov	56(r1),	r8	;0x00038
    787e:	19 41 3a 00 	mov	58(r1),	r9	;0x0003a
    7882:	1a 41 3c 00 	mov	60(r1),	r10	;0x0003c
    7886:	1b 41 40 00 	mov	64(r1),	r11	;0x00040
    788a:	2c 47       	mov	@r7,	r12	;
    788c:	1d 47 02 00 	mov	2(r7),	r13	;
    7890:	1e 47 04 00 	mov	4(r7),	r14	;
    7894:	1f 47 06 00 	mov	6(r7),	r15	;
    7898:	b0 12 f6 bb 	call	#48118		;#0xbbf6
    789c:	81 4c 38 00 	mov	r12,	56(r1)	; 0x0038
    78a0:	81 4d 3a 00 	mov	r13,	58(r1)	; 0x003a
    78a4:	81 4e 3c 00 	mov	r14,	60(r1)	; 0x003c
    78a8:	81 4f 40 00 	mov	r15,	64(r1)	; 0x0040
    78ac:	11 11 32 00 	rra	50(r1)		;00032
    78b0:	37 52       	add	#8,	r7	;r2 As==11
    78b2:	30 40 6a 78 	br	#0x786a		;
    78b6:	18 41 2c 00 	mov	44(r1),	r8	;0x0002c
    78ba:	19 41 2e 00 	mov	46(r1),	r9	;0x0002e
    78be:	1a 41 1c 00 	mov	28(r1),	r10	;0x0001c
    78c2:	0b 44       	mov	r4,	r11	;
    78c4:	1c 41 38 00 	mov	56(r1),	r12	;0x00038
    78c8:	1d 41 3a 00 	mov	58(r1),	r13	;0x0003a
    78cc:	1e 41 3c 00 	mov	60(r1),	r14	;0x0003c
    78d0:	1f 41 40 00 	mov	64(r1),	r15	;0x00040
    78d4:	b0 12 dc c0 	call	#49372		;#0xc0dc
    78d8:	81 4c 2c 00 	mov	r12,	44(r1)	; 0x002c
    78dc:	81 4d 2e 00 	mov	r13,	46(r1)	; 0x002e
    78e0:	81 4e 1c 00 	mov	r14,	28(r1)	; 0x001c
    78e4:	04 4f       	mov	r15,	r4	;
    78e6:	30 40 90 79 	br	#0x7990		;
    78ea:	07 43       	clr	r7		;
    78ec:	07 85       	sub	r5,	r7	;
    78ee:	07 93       	cmp	#0,	r7	;r3 As==00
    78f0:	4d 24       	jz	$+156    	;abs 0x798c
    78f2:	0f 47       	mov	r7,	r15	;
    78f4:	3f f0 0f 00 	and	#15,	r15	;#0x000f
    78f8:	0f 5f       	rla	r15		;
    78fa:	0f 5f       	rla	r15		;
    78fc:	0f 5f       	rla	r15		;
    78fe:	3f 50 0c 45 	add	#17676,	r15	;#0x450c
    7902:	18 41 28 00 	mov	40(r1),	r8	;0x00028
    7906:	19 41 30 00 	mov	48(r1),	r9	;0x00030
    790a:	1a 41 4c 00 	mov	76(r1),	r10	;0x0004c
    790e:	1b 41 4e 00 	mov	78(r1),	r11	;0x0004e
    7912:	2c 4f       	mov	@r15,	r12	;
    7914:	1d 4f 02 00 	mov	2(r15),	r13	;
    7918:	1e 4f 04 00 	mov	4(r15),	r14	;
    791c:	1f 4f 06 00 	mov	6(r15),	r15	;
    7920:	b0 12 f6 bb 	call	#48118		;#0xbbf6
    7924:	08 4c       	mov	r12,	r8	;
    7926:	09 4d       	mov	r13,	r9	;
    7928:	0a 4e       	mov	r14,	r10	;
    792a:	0c 47       	mov	r7,	r12	;
    792c:	81 4f 08 00 	mov	r15,	8(r1)	;
    7930:	b0 12 d0 c9 	call	#51664		;#0xc9d0
    7934:	81 4c 1c 00 	mov	r12,	28(r1)	; 0x001c
    7938:	34 40 e4 44 	mov	#17636,	r4	;#0x44e4
    793c:	a1 43 14 00 	mov	#2,	20(r1)	;r3 As==10, 0x0014
    7940:	37 40 f6 bb 	mov	#48118,	r7	;#0xbbf6
    7944:	1f 41 08 00 	mov	8(r1),	r15	;
    7948:	81 93 1c 00 	cmp	#0,	28(r1)	;r3 As==00, 0x001c
    794c:	16 24       	jz	$+46     	;abs 0x797a
    794e:	91 b3 1c 00 	bit	#1,	28(r1)	;r3 As==01, 0x001c
    7952:	0e 24       	jz	$+30     	;abs 0x7970
    7954:	91 53 14 00 	inc	20(r1)		;
    7958:	0b 4f       	mov	r15,	r11	;
    795a:	2c 44       	mov	@r4,	r12	;
    795c:	1d 44 02 00 	mov	2(r4),	r13	;
    7960:	1e 44 04 00 	mov	4(r4),	r14	;
    7964:	1f 44 06 00 	mov	6(r4),	r15	;
    7968:	87 12       	call	r7		;
    796a:	08 4c       	mov	r12,	r8	;
    796c:	09 4d       	mov	r13,	r9	;
    796e:	0a 4e       	mov	r14,	r10	;
    7970:	11 11 1c 00 	rra	28(r1)		;0001c
    7974:	34 52       	add	#8,	r4	;r2 As==11
    7976:	30 40 48 79 	br	#0x7948		;
    797a:	81 48 2c 00 	mov	r8,	44(r1)	; 0x002c
    797e:	81 49 2e 00 	mov	r9,	46(r1)	; 0x002e
    7982:	81 4a 1c 00 	mov	r10,	28(r1)	; 0x001c
    7986:	04 4f       	mov	r15,	r4	;
    7988:	30 40 90 79 	br	#0x7990		;
    798c:	a1 43 14 00 	mov	#2,	20(r1)	;r3 As==10, 0x0014
    7990:	81 93 44 00 	cmp	#0,	68(r1)	;r3 As==00, 0x0044
    7994:	39 24       	jz	$+116    	;abs 0x7a08
    7996:	81 43 00 00 	mov	#0,	0(r1)	;r3 As==00
    799a:	81 43 02 00 	mov	#0,	2(r1)	;r3 As==00
    799e:	81 43 04 00 	mov	#0,	4(r1)	;r3 As==00
    79a2:	b1 40 f0 3f 	mov	#16368,	6(r1)	;#0x3ff0
    79a6:	06 00 
    79a8:	1c 41 2c 00 	mov	44(r1),	r12	;0x0002c
    79ac:	1d 41 2e 00 	mov	46(r1),	r13	;0x0002e
    79b0:	1e 41 1c 00 	mov	28(r1),	r14	;0x0001c
    79b4:	0f 44       	mov	r4,	r15	;
    79b6:	b0 12 92 c5 	call	#50578		;#0xc592
    79ba:	0c 93       	cmp	#0,	r12	;r3 As==00
    79bc:	25 34       	jge	$+76     	;abs 0x7a08
    79be:	06 93       	cmp	#0,	r6	;r3 As==00
    79c0:	23 24       	jz	$+72     	;abs 0x7a08
    79c2:	0a 43       	clr	r10		;
    79c4:	1a 91 0c 00 	cmp	12(r1),	r10	;0x0000c
    79c8:	ed 35       	jge	$+988    	;abs 0x7da4
    79ca:	07 45       	mov	r5,	r7	;
    79cc:	37 53       	add	#-1,	r7	;r3 As==11
    79ce:	81 47 32 00 	mov	r7,	50(r1)	; 0x0032
    79d2:	18 41 2c 00 	mov	44(r1),	r8	;0x0002c
    79d6:	19 41 2e 00 	mov	46(r1),	r9	;0x0002e
    79da:	1a 41 1c 00 	mov	28(r1),	r10	;0x0001c
    79de:	0b 44       	mov	r4,	r11	;
    79e0:	0c 43       	clr	r12		;
    79e2:	0d 4c       	mov	r12,	r13	;
    79e4:	0e 4c       	mov	r12,	r14	;
    79e6:	3f 40 24 40 	mov	#16420,	r15	;#0x4024
    79ea:	b0 12 f6 bb 	call	#48118		;#0xbbf6
    79ee:	81 4c 2c 00 	mov	r12,	44(r1)	; 0x002c
    79f2:	81 4d 2e 00 	mov	r13,	46(r1)	; 0x002e
    79f6:	81 4e 1c 00 	mov	r14,	28(r1)	; 0x001c
    79fa:	04 4f       	mov	r15,	r4	;
    79fc:	91 53 14 00 	inc	20(r1)		;
    7a00:	17 41 0c 00 	mov	12(r1),	r7	;0x0000c
    7a04:	30 40 0e 7a 	br	#0x7a0e		;
    7a08:	81 45 32 00 	mov	r5,	50(r1)	; 0x0032
    7a0c:	07 46       	mov	r6,	r7	;
    7a0e:	19 41 14 00 	mov	20(r1),	r9	;0x00014
    7a12:	0c 49       	mov	r9,	r12	;
    7a14:	3c b0 00 80 	bit	#32768,	r12	;#0x8000
    7a18:	0d 7d       	subc	r13,	r13	;
    7a1a:	3d e3       	inv	r13		;
    7a1c:	b0 12 06 c6 	call	#50694		;#0xc606
    7a20:	08 4c       	mov	r12,	r8	;
    7a22:	09 4d       	mov	r13,	r9	;
    7a24:	0a 4e       	mov	r14,	r10	;
    7a26:	0b 4f       	mov	r15,	r11	;
    7a28:	1c 41 2c 00 	mov	44(r1),	r12	;0x0002c
    7a2c:	1d 41 2e 00 	mov	46(r1),	r13	;0x0002e
    7a30:	1e 41 1c 00 	mov	28(r1),	r14	;0x0001c
    7a34:	0f 44       	mov	r4,	r15	;
    7a36:	b0 12 f6 bb 	call	#48118		;#0xbbf6
    7a3a:	08 4c       	mov	r12,	r8	;
    7a3c:	09 4d       	mov	r13,	r9	;
    7a3e:	0a 4e       	mov	r14,	r10	;
    7a40:	0b 4f       	mov	r15,	r11	;
    7a42:	0c 43       	clr	r12		;
    7a44:	0d 4c       	mov	r12,	r13	;
    7a46:	0e 4c       	mov	r12,	r14	;
    7a48:	3f 40 1c 40 	mov	#16412,	r15	;#0x401c
    7a4c:	b0 12 26 bb 	call	#47910		;#0xbb26
    7a50:	81 4c 14 00 	mov	r12,	20(r1)	; 0x0014
    7a54:	81 4d 16 00 	mov	r13,	22(r1)	; 0x0016
    7a58:	81 4e 18 00 	mov	r14,	24(r1)	; 0x0018
    7a5c:	81 4f 1a 00 	mov	r15,	26(r1)	; 0x001a
    7a60:	81 53 18 00 	add	#0,	24(r1)	;r3 As==00, 0x0018
    7a64:	b1 60 c0 fc 	addc	#64704,	26(r1)	;#0xfcc0, 0x001a
    7a68:	1a 00 
    7a6a:	07 93       	cmp	#0,	r7	;r3 As==00
    7a6c:	37 20       	jnz	$+112    	;abs 0x7adc
    7a6e:	18 41 2c 00 	mov	44(r1),	r8	;0x0002c
    7a72:	19 41 2e 00 	mov	46(r1),	r9	;0x0002e
    7a76:	1a 41 1c 00 	mov	28(r1),	r10	;0x0001c
    7a7a:	0b 44       	mov	r4,	r11	;
    7a7c:	0c 47       	mov	r7,	r12	;
    7a7e:	0d 47       	mov	r7,	r13	;
    7a80:	0e 47       	mov	r7,	r14	;
    7a82:	3f 40 14 40 	mov	#16404,	r15	;#0x4014
    7a86:	b0 12 8c bb 	call	#48012		;#0xbb8c
    7a8a:	04 4c       	mov	r12,	r4	;
    7a8c:	08 4d       	mov	r13,	r8	;
    7a8e:	09 4e       	mov	r14,	r9	;
    7a90:	0a 4f       	mov	r15,	r10	;
    7a92:	91 41 14 00 	mov	20(r1),	0(r1)	;0x00014
    7a96:	00 00 
    7a98:	91 41 16 00 	mov	22(r1),	2(r1)	;0x00016
    7a9c:	02 00 
    7a9e:	91 41 18 00 	mov	24(r1),	4(r1)	;0x00018
    7aa2:	04 00 
    7aa4:	91 41 1a 00 	mov	26(r1),	6(r1)	;0x0001a
    7aa8:	06 00 
    7aaa:	b0 12 aa c4 	call	#50346		;#0xc4aa
    7aae:	0d 43       	clr	r13		;
    7ab0:	0d 9c       	cmp	r12,	r13	;
    7ab2:	02 34       	jge	$+6      	;abs 0x7ab8
    7ab4:	30 40 56 82 	br	#0x8256		;
    7ab8:	1e 41 1a 00 	mov	26(r1),	r14	;0x0001a
    7abc:	3e 50 00 80 	add	#32768,	r14	;#0x8000
    7ac0:	81 4e 06 00 	mov	r14,	6(r1)	;
    7ac4:	0c 44       	mov	r4,	r12	;
    7ac6:	0d 48       	mov	r8,	r13	;
    7ac8:	0e 49       	mov	r9,	r14	;
    7aca:	0f 4a       	mov	r10,	r15	;
    7acc:	b0 12 92 c5 	call	#50578		;#0xc592
    7ad0:	0c 93       	cmp	#0,	r12	;r3 As==00
    7ad2:	02 34       	jge	$+6      	;abs 0x7ad8
    7ad4:	30 40 38 82 	br	#0x8238		;
    7ad8:	30 40 a4 7d 	br	#0x7da4		;
    7adc:	0c 47       	mov	r7,	r12	;
    7ade:	3c 53       	add	#-1,	r12	;r3 As==11
    7ae0:	0c 5c       	rla	r12		;
    7ae2:	0c 5c       	rla	r12		;
    7ae4:	0c 5c       	rla	r12		;
    7ae6:	81 93 36 00 	cmp	#0,	54(r1)	;r3 As==00, 0x0036
    7aea:	ac 24       	jz	$+346    	;abs 0x7c44
    7aec:	0f 4c       	mov	r12,	r15	;
    7aee:	3f 50 0c 45 	add	#17676,	r15	;#0x450c
    7af2:	08 43       	clr	r8		;
    7af4:	09 48       	mov	r8,	r9	;
    7af6:	0a 48       	mov	r8,	r10	;
    7af8:	3b 40 e0 3f 	mov	#16352,	r11	;#0x3fe0
    7afc:	2c 4f       	mov	@r15,	r12	;
    7afe:	1d 4f 02 00 	mov	2(r15),	r13	;
    7b02:	1e 4f 04 00 	mov	4(r15),	r14	;
    7b06:	1f 4f 06 00 	mov	6(r15),	r15	;
    7b0a:	b0 12 dc c0 	call	#49372		;#0xc0dc
    7b0e:	08 4c       	mov	r12,	r8	;
    7b10:	09 4d       	mov	r13,	r9	;
    7b12:	0a 4e       	mov	r14,	r10	;
    7b14:	0b 4f       	mov	r15,	r11	;
    7b16:	1c 41 14 00 	mov	20(r1),	r12	;0x00014
    7b1a:	1d 41 16 00 	mov	22(r1),	r13	;0x00016
    7b1e:	1e 41 18 00 	mov	24(r1),	r14	;0x00018
    7b22:	1f 41 1a 00 	mov	26(r1),	r15	;0x0001a
    7b26:	b0 12 8c bb 	call	#48012		;#0xbb8c
    7b2a:	81 4c 14 00 	mov	r12,	20(r1)	; 0x0014
    7b2e:	81 4d 38 00 	mov	r13,	56(r1)	; 0x0038
    7b32:	81 4e 3a 00 	mov	r14,	58(r1)	; 0x003a
    7b36:	81 4f 3c 00 	mov	r15,	60(r1)	; 0x003c
    7b3a:	18 41 2c 00 	mov	44(r1),	r8	;0x0002c
    7b3e:	19 41 2e 00 	mov	46(r1),	r9	;0x0002e
    7b42:	1a 41 1c 00 	mov	28(r1),	r10	;0x0001c
    7b46:	0b 44       	mov	r4,	r11	;
    7b48:	91 41 2a 00 	mov	42(r1),	28(r1)	;0x0002a, 0x001c
    7b4c:	1c 00 
    7b4e:	0c 48       	mov	r8,	r12	;
    7b50:	0d 49       	mov	r9,	r13	;
    7b52:	0e 4a       	mov	r10,	r14	;
    7b54:	0f 4b       	mov	r11,	r15	;
    7b56:	81 4b 0a 00 	mov	r11,	10(r1)	; 0x000a
    7b5a:	b0 12 b4 c6 	call	#50868		;#0xc6b4
    7b5e:	81 4c 50 00 	mov	r12,	80(r1)	; 0x0050
    7b62:	b0 12 06 c6 	call	#50694		;#0xc606
    7b66:	1b 41 0a 00 	mov	10(r1),	r11	;0x0000a
    7b6a:	b0 12 8c bb 	call	#48012		;#0xbb8c
    7b6e:	81 4c 2c 00 	mov	r12,	44(r1)	; 0x002c
    7b72:	81 4d 2e 00 	mov	r13,	46(r1)	; 0x002e
    7b76:	81 4e 40 00 	mov	r14,	64(r1)	; 0x0040
    7b7a:	81 4f 46 00 	mov	r15,	70(r1)	; 0x0046
    7b7e:	14 41 1c 00 	mov	28(r1),	r4	;0x0001c
    7b82:	14 53       	inc	r4		;
    7b84:	5a 41 50 00 	mov.b	80(r1),	r10	;0x00050
    7b88:	7a 50 30 00 	add.b	#48,	r10	;#0x0030
    7b8c:	19 41 1c 00 	mov	28(r1),	r9	;0x0001c
    7b90:	c9 4a 00 00 	mov.b	r10,	0(r9)	;
    7b94:	91 41 14 00 	mov	20(r1),	0(r1)	;0x00014
    7b98:	00 00 
    7b9a:	91 41 38 00 	mov	56(r1),	2(r1)	;0x00038
    7b9e:	02 00 
    7ba0:	91 41 3a 00 	mov	58(r1),	4(r1)	;0x0003a
    7ba4:	04 00 
    7ba6:	91 41 3c 00 	mov	60(r1),	6(r1)	;0x0003c
    7baa:	06 00 
    7bac:	b0 12 92 c5 	call	#50578		;#0xc592
    7bb0:	0c 93       	cmp	#0,	r12	;r3 As==00
    7bb2:	02 34       	jge	$+6      	;abs 0x7bb8
    7bb4:	30 40 6a 85 	br	#0x856a		;
    7bb8:	08 43       	clr	r8		;
    7bba:	09 48       	mov	r8,	r9	;
    7bbc:	0a 48       	mov	r8,	r10	;
    7bbe:	3b 40 f0 3f 	mov	#16368,	r11	;#0x3ff0
    7bc2:	1c 41 2c 00 	mov	44(r1),	r12	;0x0002c
    7bc6:	1d 41 2e 00 	mov	46(r1),	r13	;0x0002e
    7bca:	1e 41 40 00 	mov	64(r1),	r14	;0x00040
    7bce:	1f 41 46 00 	mov	70(r1),	r15	;0x00046
    7bd2:	b0 12 8c bb 	call	#48012		;#0xbb8c
    7bd6:	b0 12 92 c5 	call	#50578		;#0xc592
    7bda:	0c 98       	cmp	r8,	r12	;
    7bdc:	96 39       	jl	$+814    	;abs 0x7f0a
    7bde:	0c 44       	mov	r4,	r12	;
    7be0:	1c 81 2a 00 	sub	42(r1),	r12	;0x0002a
    7be4:	0c 97       	cmp	r7,	r12	;
    7be6:	de 34       	jge	$+446    	;abs 0x7da4
    7be8:	18 41 14 00 	mov	20(r1),	r8	;0x00014
    7bec:	19 41 38 00 	mov	56(r1),	r9	;0x00038
    7bf0:	1a 41 3a 00 	mov	58(r1),	r10	;0x0003a
    7bf4:	1b 41 3c 00 	mov	60(r1),	r11	;0x0003c
    7bf8:	0c 43       	clr	r12		;
    7bfa:	0d 4c       	mov	r12,	r13	;
    7bfc:	0e 4c       	mov	r12,	r14	;
    7bfe:	3f 40 24 40 	mov	#16420,	r15	;#0x4024
    7c02:	b0 12 f6 bb 	call	#48118		;#0xbbf6
    7c06:	81 4c 14 00 	mov	r12,	20(r1)	; 0x0014
    7c0a:	81 4d 38 00 	mov	r13,	56(r1)	; 0x0038
    7c0e:	81 4e 3a 00 	mov	r14,	58(r1)	; 0x003a
    7c12:	81 4f 3c 00 	mov	r15,	60(r1)	; 0x003c
    7c16:	18 41 2c 00 	mov	44(r1),	r8	;0x0002c
    7c1a:	19 41 2e 00 	mov	46(r1),	r9	;0x0002e
    7c1e:	1a 41 40 00 	mov	64(r1),	r10	;0x00040
    7c22:	1b 41 46 00 	mov	70(r1),	r11	;0x00046
    7c26:	0c 43       	clr	r12		;
    7c28:	0d 4c       	mov	r12,	r13	;
    7c2a:	0e 4c       	mov	r12,	r14	;
    7c2c:	3f 40 24 40 	mov	#16420,	r15	;#0x4024
    7c30:	b0 12 f6 bb 	call	#48118		;#0xbbf6
    7c34:	08 4c       	mov	r12,	r8	;
    7c36:	09 4d       	mov	r13,	r9	;
    7c38:	0a 4e       	mov	r14,	r10	;
    7c3a:	0b 4f       	mov	r15,	r11	;
    7c3c:	81 44 1c 00 	mov	r4,	28(r1)	; 0x001c
    7c40:	30 40 4e 7b 	br	#0x7b4e		;
    7c44:	3c 50 0c 45 	add	#17676,	r12	;#0x450c
    7c48:	28 4c       	mov	@r12,	r8	;
    7c4a:	19 4c 02 00 	mov	2(r12),	r9	;
    7c4e:	1a 4c 04 00 	mov	4(r12),	r10	;
    7c52:	1b 4c 06 00 	mov	6(r12),	r11	;
    7c56:	1c 41 14 00 	mov	20(r1),	r12	;0x00014
    7c5a:	1d 41 16 00 	mov	22(r1),	r13	;0x00016
    7c5e:	1e 41 18 00 	mov	24(r1),	r14	;0x00018
    7c62:	1f 41 1a 00 	mov	26(r1),	r15	;0x0001a
    7c66:	b0 12 f6 bb 	call	#48118		;#0xbbf6
    7c6a:	81 4c 38 00 	mov	r12,	56(r1)	; 0x0038
    7c6e:	81 4d 3a 00 	mov	r13,	58(r1)	; 0x003a
    7c72:	81 4e 3c 00 	mov	r14,	60(r1)	; 0x003c
    7c76:	81 4f 40 00 	mov	r15,	64(r1)	; 0x0040
    7c7a:	18 41 2c 00 	mov	44(r1),	r8	;0x0002c
    7c7e:	19 41 2e 00 	mov	46(r1),	r9	;0x0002e
    7c82:	1a 41 1c 00 	mov	28(r1),	r10	;0x0001c
    7c86:	0b 44       	mov	r4,	r11	;
    7c88:	91 41 2a 00 	mov	42(r1),	28(r1)	;0x0002a, 0x001c
    7c8c:	1c 00 
    7c8e:	14 41 2a 00 	mov	42(r1),	r4	;0x0002a
    7c92:	04 57       	add	r7,	r4	;
    7c94:	0c 48       	mov	r8,	r12	;
    7c96:	0d 49       	mov	r9,	r13	;
    7c98:	0e 4a       	mov	r10,	r14	;
    7c9a:	0f 4b       	mov	r11,	r15	;
    7c9c:	81 4b 0a 00 	mov	r11,	10(r1)	; 0x000a
    7ca0:	b0 12 b4 c6 	call	#50868		;#0xc6b4
    7ca4:	81 4c 46 00 	mov	r12,	70(r1)	; 0x0046
    7ca8:	b0 12 06 c6 	call	#50694		;#0xc606
    7cac:	1b 41 0a 00 	mov	10(r1),	r11	;0x0000a
    7cb0:	b0 12 8c bb 	call	#48012		;#0xbb8c
    7cb4:	81 4c 14 00 	mov	r12,	20(r1)	; 0x0014
    7cb8:	81 4d 2c 00 	mov	r13,	44(r1)	; 0x002c
    7cbc:	81 4e 2e 00 	mov	r14,	46(r1)	; 0x002e
    7cc0:	07 4f       	mov	r15,	r7	;
    7cc2:	5d 41 46 00 	mov.b	70(r1),	r13	;0x00046
    7cc6:	7d 50 30 00 	add.b	#48,	r13	;#0x0030
    7cca:	1c 41 1c 00 	mov	28(r1),	r12	;0x0001c
    7cce:	cc 4d 00 00 	mov.b	r13,	0(r12)	;
    7cd2:	1c 53       	inc	r12		;
    7cd4:	81 4c 1c 00 	mov	r12,	28(r1)	; 0x001c
    7cd8:	04 9c       	cmp	r12,	r4	;
    7cda:	50 20       	jnz	$+162    	;abs 0x7d7c
    7cdc:	18 41 38 00 	mov	56(r1),	r8	;0x00038
    7ce0:	19 41 3a 00 	mov	58(r1),	r9	;0x0003a
    7ce4:	1a 41 3c 00 	mov	60(r1),	r10	;0x0003c
    7ce8:	1b 41 40 00 	mov	64(r1),	r11	;0x00040
    7cec:	0c 43       	clr	r12		;
    7cee:	0d 4c       	mov	r12,	r13	;
    7cf0:	0e 4c       	mov	r12,	r14	;
    7cf2:	3f 40 e0 3f 	mov	#16352,	r15	;#0x3fe0
    7cf6:	b0 12 26 bb 	call	#47910		;#0xbb26
    7cfa:	81 4c 00 00 	mov	r12,	0(r1)	;
    7cfe:	81 4d 02 00 	mov	r13,	2(r1)	;
    7d02:	81 4e 04 00 	mov	r14,	4(r1)	;
    7d06:	81 4f 06 00 	mov	r15,	6(r1)	;
    7d0a:	1c 41 14 00 	mov	20(r1),	r12	;0x00014
    7d0e:	1d 41 2c 00 	mov	44(r1),	r13	;0x0002c
    7d12:	1e 41 2e 00 	mov	46(r1),	r14	;0x0002e
    7d16:	0f 47       	mov	r7,	r15	;
    7d18:	b0 12 aa c4 	call	#50346		;#0xc4aa
    7d1c:	0e 43       	clr	r14		;
    7d1e:	0e 9c       	cmp	r12,	r14	;
    7d20:	f4 38       	jl	$+490    	;abs 0x7f0a
    7d22:	08 4e       	mov	r14,	r8	;
    7d24:	09 4e       	mov	r14,	r9	;
    7d26:	0a 4e       	mov	r14,	r10	;
    7d28:	3b 40 e0 3f 	mov	#16352,	r11	;#0x3fe0
    7d2c:	1c 41 38 00 	mov	56(r1),	r12	;0x00038
    7d30:	1d 41 3a 00 	mov	58(r1),	r13	;0x0003a
    7d34:	1e 41 3c 00 	mov	60(r1),	r14	;0x0003c
    7d38:	1f 41 40 00 	mov	64(r1),	r15	;0x00040
    7d3c:	b0 12 8c bb 	call	#48012		;#0xbb8c
    7d40:	81 4c 00 00 	mov	r12,	0(r1)	;
    7d44:	81 4d 02 00 	mov	r13,	2(r1)	;
    7d48:	81 4e 04 00 	mov	r14,	4(r1)	;
    7d4c:	81 4f 06 00 	mov	r15,	6(r1)	;
    7d50:	1c 41 14 00 	mov	20(r1),	r12	;0x00014
    7d54:	1d 41 2c 00 	mov	44(r1),	r13	;0x0002c
    7d58:	1e 41 2e 00 	mov	46(r1),	r14	;0x0002e
    7d5c:	0f 47       	mov	r7,	r15	;
    7d5e:	b0 12 92 c5 	call	#50578		;#0xc592
    7d62:	0c 98       	cmp	r8,	r12	;
    7d64:	1f 34       	jge	$+64     	;abs 0x7da4
    7d66:	0c 44       	mov	r4,	r12	;
    7d68:	3c 53       	add	#-1,	r12	;r3 As==11
    7d6a:	fc 90 30 00 	cmp.b	#48,	0(r12)	;#0x0030
    7d6e:	00 00 
    7d70:	02 24       	jz	$+6      	;abs 0x7d76
    7d72:	30 40 6a 85 	br	#0x856a		;
    7d76:	04 4c       	mov	r12,	r4	;
    7d78:	30 40 66 7d 	br	#0x7d66		;
    7d7c:	18 41 14 00 	mov	20(r1),	r8	;0x00014
    7d80:	19 41 2c 00 	mov	44(r1),	r9	;0x0002c
    7d84:	1a 41 2e 00 	mov	46(r1),	r10	;0x0002e
    7d88:	0b 47       	mov	r7,	r11	;
    7d8a:	0c 43       	clr	r12		;
    7d8c:	0d 4c       	mov	r12,	r13	;
    7d8e:	0e 4c       	mov	r12,	r14	;
    7d90:	3f 40 24 40 	mov	#16420,	r15	;#0x4024
    7d94:	b0 12 f6 bb 	call	#48118		;#0xbbf6
    7d98:	08 4c       	mov	r12,	r8	;
    7d9a:	09 4d       	mov	r13,	r9	;
    7d9c:	0a 4e       	mov	r14,	r10	;
    7d9e:	0b 4f       	mov	r15,	r11	;
    7da0:	30 40 94 7c 	br	#0x7c94		;
    7da4:	91 41 4c 00 	mov	76(r1),	28(r1)	;0x0004c, 0x001c
    7da8:	1c 00 
    7daa:	14 41 4e 00 	mov	78(r1),	r4	;0x0004e
    7dae:	1c 41 54 00 	mov	84(r1),	r12	;0x00054
    7db2:	0c 93       	cmp	#0,	r12	;r3 As==00
    7db4:	df 38       	jl	$+448    	;abs 0x7f74
    7db6:	37 40 0e 00 	mov	#14,	r7	;#0x000e
    7dba:	07 95       	cmp	r5,	r7	;
    7dbc:	db 38       	jl	$+440    	;abs 0x7f74
    7dbe:	0c 45       	mov	r5,	r12	;
    7dc0:	0c 55       	add	r5,	r12	;
    7dc2:	0c 5c       	rla	r12		;
    7dc4:	0c 5c       	rla	r12		;
    7dc6:	3c 50 0c 45 	add	#17676,	r12	;#0x450c
    7dca:	a1 4c 0c 00 	mov	@r12,	12(r1)	; 0x000c
    7dce:	91 4c 02 00 	mov	2(r12),	20(r1)	; 0x0014
    7dd2:	14 00 
    7dd4:	91 4c 04 00 	mov	4(r12),	32(r1)	; 0x0020
    7dd8:	20 00 
    7dda:	91 4c 06 00 	mov	6(r12),	34(r1)	; 0x0022
    7dde:	22 00 
    7de0:	81 93 3e 00 	cmp	#0,	62(r1)	;r3 As==00, 0x003e
    7de4:	2b 34       	jge	$+88     	;abs 0x7e3c
    7de6:	09 43       	clr	r9		;
    7de8:	09 96       	cmp	r6,	r9	;
    7dea:	28 38       	jl	$+82     	;abs 0x7e3c
    7dec:	06 99       	cmp	r9,	r6	;
    7dee:	02 24       	jz	$+6      	;abs 0x7df4
    7df0:	30 40 40 82 	br	#0x8240		;
    7df4:	18 41 0c 00 	mov	12(r1),	r8	;0x0000c
    7df8:	19 41 14 00 	mov	20(r1),	r9	;0x00014
    7dfc:	1a 41 20 00 	mov	32(r1),	r10	;0x00020
    7e00:	1b 41 22 00 	mov	34(r1),	r11	;0x00022
    7e04:	0c 46       	mov	r6,	r12	;
    7e06:	0d 46       	mov	r6,	r13	;
    7e08:	0e 46       	mov	r6,	r14	;
    7e0a:	3f 40 14 40 	mov	#16404,	r15	;#0x4014
    7e0e:	b0 12 f6 bb 	call	#48118		;#0xbbf6
    7e12:	91 41 28 00 	mov	40(r1),	0(r1)	;0x00028
    7e16:	00 00 
    7e18:	91 41 30 00 	mov	48(r1),	2(r1)	;0x00030
    7e1c:	02 00 
    7e1e:	91 41 1c 00 	mov	28(r1),	4(r1)	;0x0001c
    7e22:	04 00 
    7e24:	81 44 06 00 	mov	r4,	6(r1)	;
    7e28:	b0 12 1e c5 	call	#50462		;#0xc51e
    7e2c:	09 46       	mov	r6,	r9	;
    7e2e:	0a 46       	mov	r6,	r10	;
    7e30:	0c 93       	cmp	#0,	r12	;r3 As==00
    7e32:	02 38       	jl	$+6      	;abs 0x7e38
    7e34:	30 40 44 82 	br	#0x8244		;
    7e38:	30 40 5e 82 	br	#0x825e		;
    7e3c:	07 44       	mov	r4,	r7	;
    7e3e:	14 41 2a 00 	mov	42(r1),	r4	;0x0002a
    7e42:	18 41 28 00 	mov	40(r1),	r8	;0x00028
    7e46:	19 41 30 00 	mov	48(r1),	r9	;0x00030
    7e4a:	1a 41 1c 00 	mov	28(r1),	r10	;0x0001c
    7e4e:	0b 47       	mov	r7,	r11	;
    7e50:	1c 41 0c 00 	mov	12(r1),	r12	;0x0000c
    7e54:	1d 41 14 00 	mov	20(r1),	r13	;0x00014
    7e58:	1e 41 20 00 	mov	32(r1),	r14	;0x00020
    7e5c:	1f 41 22 00 	mov	34(r1),	r15	;0x00022
    7e60:	b0 12 dc c0 	call	#49372		;#0xc0dc
    7e64:	b0 12 b4 c6 	call	#50868		;#0xc6b4
    7e68:	81 4c 26 00 	mov	r12,	38(r1)	; 0x0026
    7e6c:	b0 12 06 c6 	call	#50694		;#0xc606
    7e70:	08 4c       	mov	r12,	r8	;
    7e72:	09 4d       	mov	r13,	r9	;
    7e74:	0a 4e       	mov	r14,	r10	;
    7e76:	0b 4f       	mov	r15,	r11	;
    7e78:	1c 41 0c 00 	mov	12(r1),	r12	;0x0000c
    7e7c:	1d 41 14 00 	mov	20(r1),	r13	;0x00014
    7e80:	1e 41 20 00 	mov	32(r1),	r14	;0x00020
    7e84:	1f 41 22 00 	mov	34(r1),	r15	;0x00022
    7e88:	b0 12 f6 bb 	call	#48118		;#0xbbf6
    7e8c:	18 41 28 00 	mov	40(r1),	r8	;0x00028
    7e90:	19 41 30 00 	mov	48(r1),	r9	;0x00030
    7e94:	1a 41 1c 00 	mov	28(r1),	r10	;0x0001c
    7e98:	0b 47       	mov	r7,	r11	;
    7e9a:	b0 12 8c bb 	call	#48012		;#0xbb8c
    7e9e:	08 4c       	mov	r12,	r8	;
    7ea0:	09 4d       	mov	r13,	r9	;
    7ea2:	0a 4e       	mov	r14,	r10	;
    7ea4:	0b 4f       	mov	r15,	r11	;
    7ea6:	14 53       	inc	r4		;
    7ea8:	57 41 26 00 	mov.b	38(r1),	r7	;0x00026
    7eac:	77 50 30 00 	add.b	#48,	r7	;#0x0030
    7eb0:	c4 47 ff ff 	mov.b	r7,	-1(r4)	; 0xffff
    7eb4:	07 44       	mov	r4,	r7	;
    7eb6:	17 81 2a 00 	sub	42(r1),	r7	;0x0002a
    7eba:	07 96       	cmp	r6,	r7	;
    7ebc:	3f 20       	jnz	$+128    	;abs 0x7f3c
    7ebe:	b0 12 26 bb 	call	#47910		;#0xbb26
    7ec2:	07 4c       	mov	r12,	r7	;
    7ec4:	08 4d       	mov	r13,	r8	;
    7ec6:	09 4e       	mov	r14,	r9	;
    7ec8:	0a 4f       	mov	r15,	r10	;
    7eca:	91 41 0c 00 	mov	12(r1),	0(r1)	;0x0000c
    7ece:	00 00 
    7ed0:	91 41 14 00 	mov	20(r1),	2(r1)	;0x00014
    7ed4:	02 00 
    7ed6:	91 41 20 00 	mov	32(r1),	4(r1)	;0x00020
    7eda:	04 00 
    7edc:	91 41 22 00 	mov	34(r1),	6(r1)	;0x00022
    7ee0:	06 00 
    7ee2:	b0 12 aa c4 	call	#50346		;#0xc4aa
    7ee6:	0d 43       	clr	r13		;
    7ee8:	0d 9c       	cmp	r12,	r13	;
    7eea:	14 38       	jl	$+42     	;abs 0x7f14
    7eec:	0c 47       	mov	r7,	r12	;
    7eee:	0d 48       	mov	r8,	r13	;
    7ef0:	0e 49       	mov	r9,	r14	;
    7ef2:	0f 4a       	mov	r10,	r15	;
    7ef4:	b0 12 c2 c3 	call	#50114		;#0xc3c2
    7ef8:	0c 93       	cmp	#0,	r12	;r3 As==00
    7efa:	02 24       	jz	$+6      	;abs 0x7f00
    7efc:	30 40 6e 85 	br	#0x856e		;
    7f00:	91 b3 26 00 	bit	#1,	38(r1)	;r3 As==01, 0x0026
    7f04:	07 20       	jnz	$+16     	;abs 0x7f14
    7f06:	30 40 6e 85 	br	#0x856e		;
    7f0a:	15 41 32 00 	mov	50(r1),	r5	;0x00032
    7f0e:	30 40 14 7f 	br	#0x7f14		;
    7f12:	04 4c       	mov	r12,	r4	;
    7f14:	0c 44       	mov	r4,	r12	;
    7f16:	3c 53       	add	#-1,	r12	;r3 As==11
    7f18:	fc 90 39 00 	cmp.b	#57,	0(r12)	;#0x0039
    7f1c:	00 00 
    7f1e:	0a 20       	jnz	$+22     	;abs 0x7f34
    7f20:	1c 91 2a 00 	cmp	42(r1),	r12	;0x0002a
    7f24:	f6 23       	jnz	$-18     	;abs 0x7f12
    7f26:	15 53       	inc	r5		;
    7f28:	17 41 2a 00 	mov	42(r1),	r7	;0x0002a
    7f2c:	f7 40 30 00 	mov.b	#48,	0(r7)	;#0x0030
    7f30:	00 00 
    7f32:	0c 47       	mov	r7,	r12	;
    7f34:	dc 53 00 00 	inc.b	0(r12)		;
    7f38:	30 40 6e 85 	br	#0x856e		;
    7f3c:	0c 43       	clr	r12		;
    7f3e:	0d 4c       	mov	r12,	r13	;
    7f40:	0e 4c       	mov	r12,	r14	;
    7f42:	3f 40 24 40 	mov	#16420,	r15	;#0x4024
    7f46:	b0 12 f6 bb 	call	#48118		;#0xbbf6
    7f4a:	81 4c 28 00 	mov	r12,	40(r1)	; 0x0028
    7f4e:	81 4d 30 00 	mov	r13,	48(r1)	; 0x0030
    7f52:	81 4e 1c 00 	mov	r14,	28(r1)	; 0x001c
    7f56:	07 4f       	mov	r15,	r7	;
    7f58:	81 43 00 00 	mov	#0,	0(r1)	;r3 As==00
    7f5c:	81 43 02 00 	mov	#0,	2(r1)	;r3 As==00
    7f60:	81 43 04 00 	mov	#0,	4(r1)	;r3 As==00
    7f64:	81 43 06 00 	mov	#0,	6(r1)	;r3 As==00
    7f68:	b0 12 c2 c3 	call	#50114		;#0xc3c2
    7f6c:	0c 93       	cmp	#0,	r12	;r3 As==00
    7f6e:	69 23       	jnz	$-300    	;abs 0x7e42
    7f70:	30 40 6e 85 	br	#0x856e		;
    7f74:	81 93 36 00 	cmp	#0,	54(r1)	;r3 As==00, 0x0036
    7f78:	40 24       	jz	$+130    	;abs 0x7ffa
    7f7a:	19 43       	mov	#1,	r9	;r3 As==01
    7f7c:	19 91 26 00 	cmp	38(r1),	r9	;0x00026
    7f80:	15 38       	jl	$+44     	;abs 0x7fac
    7f82:	81 93 4a 00 	cmp	#0,	74(r1)	;r3 As==00, 0x004a
    7f86:	08 24       	jz	$+18     	;abs 0x7f98
    7f88:	3c 50 33 04 	add	#1075,	r12	;#0x0433
    7f8c:	17 41 34 00 	mov	52(r1),	r7	;0x00034
    7f90:	18 41 22 00 	mov	34(r1),	r8	;0x00022
    7f94:	30 40 e2 7f 	br	#0x7fe2		;
    7f98:	3c 40 36 00 	mov	#54,	r12	;#0x0036
    7f9c:	1c 81 52 00 	sub	82(r1),	r12	;0x00052
    7fa0:	17 41 34 00 	mov	52(r1),	r7	;0x00034
    7fa4:	18 41 22 00 	mov	34(r1),	r8	;0x00022
    7fa8:	30 40 e2 7f 	br	#0x7fe2		;
    7fac:	0c 46       	mov	r6,	r12	;
    7fae:	3c 53       	add	#-1,	r12	;r3 As==11
    7fb0:	81 9c 34 00 	cmp	r12,	52(r1)	; 0x0034
    7fb4:	05 38       	jl	$+12     	;abs 0x7fc0
    7fb6:	17 41 34 00 	mov	52(r1),	r7	;0x00034
    7fba:	07 8c       	sub	r12,	r7	;
    7fbc:	30 40 d0 7f 	br	#0x7fd0		;
    7fc0:	0d 4c       	mov	r12,	r13	;
    7fc2:	1d 81 34 00 	sub	52(r1),	r13	;0x00034
    7fc6:	81 5d 42 00 	add	r13,	66(r1)	; 0x0042
    7fca:	81 4c 34 00 	mov	r12,	52(r1)	; 0x0034
    7fce:	07 43       	clr	r7		;
    7fd0:	18 41 22 00 	mov	34(r1),	r8	;0x00022
    7fd4:	06 93       	cmp	#0,	r6	;r3 As==00
    7fd6:	04 34       	jge	$+10     	;abs 0x7fe0
    7fd8:	08 86       	sub	r6,	r8	;
    7fda:	0c 43       	clr	r12		;
    7fdc:	30 40 e2 7f 	br	#0x7fe2		;
    7fe0:	0c 46       	mov	r6,	r12	;
    7fe2:	81 5c 22 00 	add	r12,	34(r1)	; 0x0022
    7fe6:	81 5c 20 00 	add	r12,	32(r1)	; 0x0020
    7fea:	1c 41 1e 00 	mov	30(r1),	r12	;0x0001e
    7fee:	1d 43       	mov	#1,	r13	;r3 As==01
    7ff0:	b0 12 82 94 	call	#38018		;#0x9482
    7ff4:	0a 4c       	mov	r12,	r10	;
    7ff6:	30 40 06 80 	br	#0x8006		;
    7ffa:	17 41 34 00 	mov	52(r1),	r7	;0x00034
    7ffe:	18 41 22 00 	mov	34(r1),	r8	;0x00022
    8002:	1a 41 36 00 	mov	54(r1),	r10	;0x00036
    8006:	08 93       	cmp	#0,	r8	;r3 As==00
    8008:	0e 24       	jz	$+30     	;abs 0x8026
    800a:	0c 43       	clr	r12		;
    800c:	1c 91 20 00 	cmp	32(r1),	r12	;0x00020
    8010:	0a 34       	jge	$+22     	;abs 0x8026
    8012:	1c 41 20 00 	mov	32(r1),	r12	;0x00020
    8016:	08 9c       	cmp	r12,	r8	;
    8018:	01 34       	jge	$+4      	;abs 0x801c
    801a:	0c 48       	mov	r8,	r12	;
    801c:	81 8c 22 00 	sub	r12,	34(r1)	; 0x0022
    8020:	08 8c       	sub	r12,	r8	;
    8022:	81 8c 20 00 	sub	r12,	32(r1)	; 0x0020
    8026:	0d 43       	clr	r13		;
    8028:	1d 91 34 00 	cmp	52(r1),	r13	;0x00034
    802c:	35 34       	jge	$+108    	;abs 0x8098
    802e:	81 9d 36 00 	cmp	r13,	54(r1)	; 0x0036
    8032:	28 24       	jz	$+82     	;abs 0x8084
    8034:	0d 97       	cmp	r7,	r13	;
    8036:	17 34       	jge	$+48     	;abs 0x8066
    8038:	1c 41 1e 00 	mov	30(r1),	r12	;0x0001e
    803c:	0d 4a       	mov	r10,	r13	;
    803e:	0e 47       	mov	r7,	r14	;
    8040:	b0 12 1e 97 	call	#38686		;#0x971e
    8044:	0a 4c       	mov	r12,	r10	;
    8046:	1c 41 1e 00 	mov	30(r1),	r12	;0x0001e
    804a:	0d 4a       	mov	r10,	r13	;
    804c:	1e 41 24 00 	mov	36(r1),	r14	;0x00024
    8050:	b0 12 aa 94 	call	#38058		;#0x94aa
    8054:	09 4c       	mov	r12,	r9	;
    8056:	1c 41 1e 00 	mov	30(r1),	r12	;0x0001e
    805a:	1d 41 24 00 	mov	36(r1),	r13	;0x00024
    805e:	b0 12 fe 90 	call	#37118		;#0x90fe
    8062:	81 49 24 00 	mov	r9,	36(r1)	; 0x0024
    8066:	1e 41 34 00 	mov	52(r1),	r14	;0x00034
    806a:	0e 87       	sub	r7,	r14	;
    806c:	0e 93       	cmp	#0,	r14	;r3 As==00
    806e:	14 24       	jz	$+42     	;abs 0x8098
    8070:	1c 41 1e 00 	mov	30(r1),	r12	;0x0001e
    8074:	1d 41 24 00 	mov	36(r1),	r13	;0x00024
    8078:	b0 12 1e 97 	call	#38686		;#0x971e
    807c:	81 4c 24 00 	mov	r12,	36(r1)	; 0x0024
    8080:	30 40 98 80 	br	#0x8098		;
    8084:	1c 41 1e 00 	mov	30(r1),	r12	;0x0001e
    8088:	1d 41 24 00 	mov	36(r1),	r13	;0x00024
    808c:	1e 41 34 00 	mov	52(r1),	r14	;0x00034
    8090:	b0 12 1e 97 	call	#38686		;#0x971e
    8094:	81 4c 24 00 	mov	r12,	36(r1)	; 0x0024
    8098:	1c 41 1e 00 	mov	30(r1),	r12	;0x0001e
    809c:	1d 43       	mov	#1,	r13	;r3 As==01
    809e:	b0 12 82 94 	call	#38018		;#0x9482
    80a2:	09 4c       	mov	r12,	r9	;
    80a4:	0e 43       	clr	r14		;
    80a6:	1e 91 42 00 	cmp	66(r1),	r14	;0x00042
    80aa:	0f 34       	jge	$+32     	;abs 0x80ca
    80ac:	1c 41 1e 00 	mov	30(r1),	r12	;0x0001e
    80b0:	0d 49       	mov	r9,	r13	;
    80b2:	1e 41 42 00 	mov	66(r1),	r14	;0x00042
    80b6:	b0 12 1e 97 	call	#38686		;#0x971e
    80ba:	09 4c       	mov	r12,	r9	;
    80bc:	17 43       	mov	#1,	r7	;r3 As==01
    80be:	17 91 26 00 	cmp	38(r1),	r7	;0x00026
    80c2:	07 34       	jge	$+16     	;abs 0x80d2
    80c4:	07 43       	clr	r7		;
    80c6:	30 40 0e 81 	br	#0x810e		;
    80ca:	1c 43       	mov	#1,	r12	;r3 As==01
    80cc:	1c 91 26 00 	cmp	38(r1),	r12	;0x00026
    80d0:	1a 38       	jl	$+54     	;abs 0x8106
    80d2:	17 41 28 00 	mov	40(r1),	r7	;0x00028
    80d6:	17 d1 30 00 	bis	48(r1),	r7	;0x00030
    80da:	07 93       	cmp	#0,	r7	;r3 As==00
    80dc:	14 20       	jnz	$+42     	;abs 0x8106
    80de:	1c 41 1c 00 	mov	28(r1),	r12	;0x0001c
    80e2:	0d 44       	mov	r4,	r13	;
    80e4:	3d f0 0f 00 	and	#15,	r13	;#0x000f
    80e8:	0c dd       	bis	r13,	r12	;
    80ea:	0c 93       	cmp	#0,	r12	;r3 As==00
    80ec:	0d 20       	jnz	$+28     	;abs 0x8108
    80ee:	07 44       	mov	r4,	r7	;
    80f0:	37 f0 f0 7f 	and	#32752,	r7	;#0x7ff0
    80f4:	07 93       	cmp	#0,	r7	;r3 As==00
    80f6:	08 24       	jz	$+18     	;abs 0x8108
    80f8:	91 53 22 00 	inc	34(r1)		;
    80fc:	91 53 20 00 	inc	32(r1)		;
    8100:	17 43       	mov	#1,	r7	;r3 As==01
    8102:	30 40 08 81 	br	#0x8108		;
    8106:	07 43       	clr	r7		;
    8108:	81 93 42 00 	cmp	#0,	66(r1)	;r3 As==00, 0x0042
    810c:	12 24       	jz	$+38     	;abs 0x8132
    810e:	1c 49 08 00 	mov	8(r9),	r12	;
    8112:	3c 53       	add	#-1,	r12	;r3 As==11
    8114:	0c 5c       	rla	r12		;
    8116:	0c 5c       	rla	r12		;
    8118:	0c 59       	add	r9,	r12	;
    811a:	1d 4c 0c 00 	mov	12(r12),r13	;0x0000c
    811e:	1c 4c 0a 00 	mov	10(r12),r12	;0x0000a
    8122:	b0 12 40 93 	call	#37696		;#0x9340
    8126:	3d 40 20 00 	mov	#32,	r13	;#0x0020
    812a:	0d 8c       	sub	r12,	r13	;
    812c:	0c 4d       	mov	r13,	r12	;
    812e:	30 40 34 81 	br	#0x8134		;
    8132:	1c 43       	mov	#1,	r12	;r3 As==01
    8134:	1c 51 20 00 	add	32(r1),	r12	;0x00020
    8138:	3c f0 1f 00 	and	#31,	r12	;#0x001f
    813c:	0c 93       	cmp	#0,	r12	;r3 As==00
    813e:	13 24       	jz	$+40     	;abs 0x8166
    8140:	3d 40 20 00 	mov	#32,	r13	;#0x0020
    8144:	0d 8c       	sub	r12,	r13	;
    8146:	2e 42       	mov	#4,	r14	;r2 As==10
    8148:	0e 9d       	cmp	r13,	r14	;
    814a:	0a 34       	jge	$+22     	;abs 0x8160
    814c:	3d 40 1c 00 	mov	#28,	r13	;#0x001c
    8150:	0d 8c       	sub	r12,	r13	;
    8152:	81 5d 22 00 	add	r13,	34(r1)	; 0x0022
    8156:	08 5d       	add	r13,	r8	;
    8158:	81 5d 20 00 	add	r13,	32(r1)	; 0x0020
    815c:	30 40 74 81 	br	#0x8174		;
    8160:	2d 92       	cmp	#4,	r13	;r2 As==10
    8162:	08 24       	jz	$+18     	;abs 0x8174
    8164:	0c 4d       	mov	r13,	r12	;
    8166:	3c 50 1c 00 	add	#28,	r12	;#0x001c
    816a:	81 5c 22 00 	add	r12,	34(r1)	; 0x0022
    816e:	08 5c       	add	r12,	r8	;
    8170:	81 5c 20 00 	add	r12,	32(r1)	; 0x0020
    8174:	0c 43       	clr	r12		;
    8176:	1c 91 22 00 	cmp	34(r1),	r12	;0x00022
    817a:	0a 34       	jge	$+22     	;abs 0x8190
    817c:	1c 41 1e 00 	mov	30(r1),	r12	;0x0001e
    8180:	1d 41 24 00 	mov	36(r1),	r13	;0x00024
    8184:	1e 41 22 00 	mov	34(r1),	r14	;0x00022
    8188:	b0 12 e2 97 	call	#38882		;#0x97e2
    818c:	81 4c 24 00 	mov	r12,	36(r1)	; 0x0024
    8190:	0d 43       	clr	r13		;
    8192:	1d 91 20 00 	cmp	32(r1),	r13	;0x00020
    8196:	08 34       	jge	$+18     	;abs 0x81a8
    8198:	1c 41 1e 00 	mov	30(r1),	r12	;0x0001e
    819c:	0d 49       	mov	r9,	r13	;
    819e:	1e 41 20 00 	mov	32(r1),	r14	;0x00020
    81a2:	b0 12 e2 97 	call	#38882		;#0x97e2
    81a6:	09 4c       	mov	r12,	r9	;
    81a8:	81 93 44 00 	cmp	#0,	68(r1)	;r3 As==00, 0x0044
    81ac:	25 24       	jz	$+76     	;abs 0x81f8
    81ae:	1c 41 24 00 	mov	36(r1),	r12	;0x00024
    81b2:	0d 49       	mov	r9,	r13	;
    81b4:	b0 12 0c 99 	call	#39180		;#0x990c
    81b8:	0c 93       	cmp	#0,	r12	;r3 As==00
    81ba:	1e 34       	jge	$+62     	;abs 0x81f8
    81bc:	35 53       	add	#-1,	r5	;r3 As==11
    81be:	36 40 44 91 	mov	#37188,	r6	;#0x9144
    81c2:	1c 41 1e 00 	mov	30(r1),	r12	;0x0001e
    81c6:	1d 41 24 00 	mov	36(r1),	r13	;0x00024
    81ca:	3e 40 0a 00 	mov	#10,	r14	;#0x000a
    81ce:	0f 43       	clr	r15		;
    81d0:	86 12       	call	r6		;
    81d2:	81 4c 24 00 	mov	r12,	36(r1)	; 0x0024
    81d6:	81 93 36 00 	cmp	#0,	54(r1)	;r3 As==00, 0x0036
    81da:	e9 25       	jz	$+980    	;abs 0x85ae
    81dc:	1c 41 1e 00 	mov	30(r1),	r12	;0x0001e
    81e0:	0d 4a       	mov	r10,	r13	;
    81e2:	3e 40 0a 00 	mov	#10,	r14	;#0x000a
    81e6:	0f 43       	clr	r15		;
    81e8:	86 12       	call	r6		;
    81ea:	0a 4c       	mov	r12,	r10	;
    81ec:	0e 43       	clr	r14		;
    81ee:	1e 91 0c 00 	cmp	12(r1),	r14	;0x0000c
    81f2:	50 38       	jl	$+162    	;abs 0x8294
    81f4:	30 40 c2 85 	br	#0x85c2		;
    81f8:	0c 43       	clr	r12		;
    81fa:	0c 96       	cmp	r6,	r12	;
    81fc:	3d 38       	jl	$+124    	;abs 0x8278
    81fe:	2d 43       	mov	#2,	r13	;r3 As==10
    8200:	1d 91 26 00 	cmp	38(r1),	r13	;0x00026
    8204:	39 34       	jge	$+116    	;abs 0x8278
    8206:	81 46 0c 00 	mov	r6,	12(r1)	; 0x000c
    820a:	81 93 0c 00 	cmp	#0,	12(r1)	;r3 As==00, 0x000c
    820e:	1a 20       	jnz	$+54     	;abs 0x8244
    8210:	1c 41 1e 00 	mov	30(r1),	r12	;0x0001e
    8214:	0d 49       	mov	r9,	r13	;
    8216:	3e 40 05 00 	mov	#5,	r14	;
    821a:	1f 41 0c 00 	mov	12(r1),	r15	;0x0000c
    821e:	b0 12 44 91 	call	#37188		;#0x9144
    8222:	09 4c       	mov	r12,	r9	;
    8224:	1c 41 24 00 	mov	36(r1),	r12	;0x00024
    8228:	0d 49       	mov	r9,	r13	;
    822a:	b0 12 0c 99 	call	#39180		;#0x990c
    822e:	0e 43       	clr	r14		;
    8230:	0e 9c       	cmp	r12,	r14	;
    8232:	15 38       	jl	$+44     	;abs 0x825e
    8234:	30 40 44 82 	br	#0x8244		;
    8238:	09 47       	mov	r7,	r9	;
    823a:	0a 47       	mov	r7,	r10	;
    823c:	30 40 44 82 	br	#0x8244		;
    8240:	09 43       	clr	r9		;
    8242:	0a 49       	mov	r9,	r10	;
    8244:	15 41 3e 00 	mov	62(r1),	r5	;0x0003e
    8248:	35 e3       	inv	r5		;
    824a:	14 41 2a 00 	mov	42(r1),	r4	;0x0002a
    824e:	06 4a       	mov	r10,	r6	;
    8250:	0a 43       	clr	r10		;
    8252:	30 40 3c 85 	br	#0x853c		;
    8256:	15 41 32 00 	mov	50(r1),	r5	;0x00032
    825a:	09 47       	mov	r7,	r9	;
    825c:	0a 47       	mov	r7,	r10	;
    825e:	14 41 2a 00 	mov	42(r1),	r4	;0x0002a
    8262:	14 53       	inc	r4		;
    8264:	17 41 2a 00 	mov	42(r1),	r7	;0x0002a
    8268:	f7 40 31 00 	mov.b	#49,	0(r7)	;#0x0031
    826c:	00 00 
    826e:	15 53       	inc	r5		;
    8270:	06 4a       	mov	r10,	r6	;
    8272:	0a 43       	clr	r10		;
    8274:	30 40 3c 85 	br	#0x853c		;
    8278:	81 93 36 00 	cmp	#0,	54(r1)	;r3 As==00, 0x0036
    827c:	09 20       	jnz	$+20     	;abs 0x8290
    827e:	81 46 0c 00 	mov	r6,	12(r1)	; 0x000c
    8282:	17 41 24 00 	mov	36(r1),	r7	;0x00024
    8286:	06 43       	clr	r6		;
    8288:	34 40 e6 6f 	mov	#28646,	r4	;#0x6fe6
    828c:	30 40 a0 84 	br	#0x84a0		;
    8290:	81 46 0c 00 	mov	r6,	12(r1)	; 0x000c
    8294:	0c 43       	clr	r12		;
    8296:	0c 98       	cmp	r8,	r12	;
    8298:	07 34       	jge	$+16     	;abs 0x82a8
    829a:	1c 41 1e 00 	mov	30(r1),	r12	;0x0001e
    829e:	0d 4a       	mov	r10,	r13	;
    82a0:	0e 48       	mov	r8,	r14	;
    82a2:	b0 12 e2 97 	call	#38882		;#0x97e2
    82a6:	0a 4c       	mov	r12,	r10	;
    82a8:	07 93       	cmp	#0,	r7	;r3 As==00
    82aa:	1c 24       	jz	$+58     	;abs 0x82e4
    82ac:	1c 41 1e 00 	mov	30(r1),	r12	;0x0001e
    82b0:	1d 4a 02 00 	mov	2(r10),	r13	;
    82b4:	b0 12 56 90 	call	#36950		;#0x9056
    82b8:	08 4c       	mov	r12,	r8	;
    82ba:	1e 4a 08 00 	mov	8(r10),	r14	;
    82be:	1e 53       	inc	r14		;
    82c0:	0e 5e       	rla	r14		;
    82c2:	3c 50 06 00 	add	#6,	r12	;
    82c6:	0d 4a       	mov	r10,	r13	;
    82c8:	3d 50 06 00 	add	#6,	r13	;
    82cc:	0e 5e       	rla	r14		;
    82ce:	b0 12 18 54 	call	#21528		;#0x5418
    82d2:	1c 41 1e 00 	mov	30(r1),	r12	;0x0001e
    82d6:	0d 48       	mov	r8,	r13	;
    82d8:	1e 43       	mov	#1,	r14	;r3 As==01
    82da:	b0 12 e2 97 	call	#38882		;#0x97e2
    82de:	06 4c       	mov	r12,	r6	;
    82e0:	30 40 e6 82 	br	#0x82e6		;
    82e4:	06 4a       	mov	r10,	r6	;
    82e6:	1f 41 2a 00 	mov	42(r1),	r15	;0x0002a
    82ea:	1c 41 0c 00 	mov	12(r1),	r12	;0x0000c
    82ee:	3c 53       	add	#-1,	r12	;r3 As==11
    82f0:	0c 5f       	add	r15,	r12	;
    82f2:	81 4c 0c 00 	mov	r12,	12(r1)	; 0x000c
    82f6:	17 41 24 00 	mov	36(r1),	r7	;0x00024
    82fa:	1d 41 28 00 	mov	40(r1),	r13	;0x00028
    82fe:	1d f3       	and	#1,	r13	;r3 As==01
    8300:	81 4d 28 00 	mov	r13,	40(r1)	; 0x0028
    8304:	0c 47       	mov	r7,	r12	;
    8306:	0d 49       	mov	r9,	r13	;
    8308:	81 4f 08 00 	mov	r15,	8(r1)	;
    830c:	b0 12 e6 6f 	call	#28646		;#0x6fe6
    8310:	81 4c 1c 00 	mov	r12,	28(r1)	; 0x001c
    8314:	08 4c       	mov	r12,	r8	;
    8316:	38 50 30 00 	add	#48,	r8	;#0x0030
    831a:	0c 47       	mov	r7,	r12	;
    831c:	0d 4a       	mov	r10,	r13	;
    831e:	b0 12 0c 99 	call	#39180		;#0x990c
    8322:	04 4c       	mov	r12,	r4	;
    8324:	1c 41 1e 00 	mov	30(r1),	r12	;0x0001e
    8328:	0d 49       	mov	r9,	r13	;
    832a:	0e 46       	mov	r6,	r14	;
    832c:	b0 12 74 99 	call	#39284		;#0x9974
    8330:	0b 4c       	mov	r12,	r11	;
    8332:	1f 41 08 00 	mov	8(r1),	r15	;
    8336:	8c 93 06 00 	cmp	#0,	6(r12)	;r3 As==00
    833a:	0d 20       	jnz	$+28     	;abs 0x8356
    833c:	0c 47       	mov	r7,	r12	;
    833e:	0d 4b       	mov	r11,	r13	;
    8340:	81 4b 0a 00 	mov	r11,	10(r1)	; 0x000a
    8344:	b0 12 0c 99 	call	#39180		;#0x990c
    8348:	0e 4c       	mov	r12,	r14	;
    834a:	1b 41 0a 00 	mov	10(r1),	r11	;0x0000a
    834e:	1f 41 08 00 	mov	8(r1),	r15	;
    8352:	30 40 58 83 	br	#0x8358		;
    8356:	1e 43       	mov	#1,	r14	;r3 As==01
    8358:	1c 41 1e 00 	mov	30(r1),	r12	;0x0001e
    835c:	0d 4b       	mov	r11,	r13	;
    835e:	81 4e 0a 00 	mov	r14,	10(r1)	; 0x000a
    8362:	81 4f 08 00 	mov	r15,	8(r1)	;
    8366:	b0 12 fe 90 	call	#37118		;#0x90fe
    836a:	1e 41 0a 00 	mov	10(r1),	r14	;0x0000a
    836e:	1f 41 08 00 	mov	8(r1),	r15	;
    8372:	0e 93       	cmp	#0,	r14	;r3 As==00
    8374:	13 20       	jnz	$+40     	;abs 0x839c
    8376:	81 93 26 00 	cmp	#0,	38(r1)	;r3 As==00, 0x0026
    837a:	10 20       	jnz	$+34     	;abs 0x839c
    837c:	81 93 28 00 	cmp	#0,	40(r1)	;r3 As==00, 0x0028
    8380:	0d 20       	jnz	$+28     	;abs 0x839c
    8382:	81 47 24 00 	mov	r7,	36(r1)	; 0x0024
    8386:	38 90 39 00 	cmp	#57,	r8	;#0x0039
    838a:	47 24       	jz	$+144    	;abs 0x841a
    838c:	0e 94       	cmp	r4,	r14	;
    838e:	33 34       	jge	$+104    	;abs 0x83f6
    8390:	18 41 1c 00 	mov	28(r1),	r8	;0x0001c
    8394:	38 50 31 00 	add	#49,	r8	;#0x0031
    8398:	30 40 f6 83 	br	#0x83f6		;
    839c:	04 93       	cmp	#0,	r4	;r3 As==00
    839e:	07 34       	jge	$+16     	;abs 0x83ae
    83a0:	81 47 24 00 	mov	r7,	36(r1)	; 0x0024
    83a4:	0c 43       	clr	r12		;
    83a6:	0c 9e       	cmp	r14,	r12	;
    83a8:	0c 38       	jl	$+26     	;abs 0x83c2
    83aa:	30 40 f6 83 	br	#0x83f6		;
    83ae:	04 93       	cmp	#0,	r4	;r3 As==00
    83b0:	28 20       	jnz	$+82     	;abs 0x8402
    83b2:	81 93 26 00 	cmp	#0,	38(r1)	;r3 As==00, 0x0026
    83b6:	25 20       	jnz	$+76     	;abs 0x8402
    83b8:	81 93 28 00 	cmp	#0,	40(r1)	;r3 As==00, 0x0028
    83bc:	22 20       	jnz	$+70     	;abs 0x8402
    83be:	30 40 a0 83 	br	#0x83a0		;
    83c2:	1c 41 1e 00 	mov	30(r1),	r12	;0x0001e
    83c6:	0d 47       	mov	r7,	r13	;
    83c8:	1e 43       	mov	#1,	r14	;r3 As==01
    83ca:	81 4f 08 00 	mov	r15,	8(r1)	;
    83ce:	b0 12 e2 97 	call	#38882		;#0x97e2
    83d2:	81 4c 24 00 	mov	r12,	36(r1)	; 0x0024
    83d6:	0d 49       	mov	r9,	r13	;
    83d8:	b0 12 0c 99 	call	#39180		;#0x990c
    83dc:	1f 41 08 00 	mov	8(r1),	r15	;
    83e0:	0d 43       	clr	r13		;
    83e2:	0d 9c       	cmp	r12,	r13	;
    83e4:	04 38       	jl	$+10     	;abs 0x83ee
    83e6:	0c 9d       	cmp	r13,	r12	;
    83e8:	06 20       	jnz	$+14     	;abs 0x83f6
    83ea:	18 b3       	bit	#1,	r8	;r3 As==01
    83ec:	04 24       	jz	$+10     	;abs 0x83f6
    83ee:	38 90 39 00 	cmp	#57,	r8	;#0x0039
    83f2:	13 24       	jz	$+40     	;abs 0x841a
    83f4:	18 53       	inc	r8		;
    83f6:	04 4f       	mov	r15,	r4	;
    83f8:	14 53       	inc	r4		;
    83fa:	cf 48 00 00 	mov.b	r8,	0(r15)	;
    83fe:	30 40 3c 85 	br	#0x853c		;
    8402:	0c 4f       	mov	r15,	r12	;
    8404:	1c 53       	inc	r12		;
    8406:	81 4c 1c 00 	mov	r12,	28(r1)	; 0x001c
    840a:	0d 43       	clr	r13		;
    840c:	0d 9e       	cmp	r14,	r13	;
    840e:	13 34       	jge	$+40     	;abs 0x8436
    8410:	81 47 24 00 	mov	r7,	36(r1)	; 0x0024
    8414:	38 90 39 00 	cmp	#57,	r8	;#0x0039
    8418:	07 20       	jnz	$+16     	;abs 0x8428
    841a:	04 4f       	mov	r15,	r4	;
    841c:	14 53       	inc	r4		;
    841e:	ff 40 39 00 	mov.b	#57,	0(r15)	;#0x0039
    8422:	00 00 
    8424:	30 40 fe 84 	br	#0x84fe		;
    8428:	14 41 1c 00 	mov	28(r1),	r4	;0x0001c
    842c:	58 53       	inc.b	r8		;
    842e:	cf 48 00 00 	mov.b	r8,	0(r15)	;
    8432:	30 40 3c 85 	br	#0x853c		;
    8436:	14 41 1c 00 	mov	28(r1),	r4	;0x0001c
    843a:	cf 48 00 00 	mov.b	r8,	0(r15)	;
    843e:	1f 91 0c 00 	cmp	12(r1),	r15	;0x0000c
    8442:	48 24       	jz	$+146    	;abs 0x84d4
    8444:	38 40 44 91 	mov	#37188,	r8	;#0x9144
    8448:	1c 41 1e 00 	mov	30(r1),	r12	;0x0001e
    844c:	0d 47       	mov	r7,	r13	;
    844e:	3e 40 0a 00 	mov	#10,	r14	;#0x000a
    8452:	0f 43       	clr	r15		;
    8454:	88 12       	call	r8		;
    8456:	07 4c       	mov	r12,	r7	;
    8458:	1c 41 1e 00 	mov	30(r1),	r12	;0x0001e
    845c:	0d 4a       	mov	r10,	r13	;
    845e:	3e 40 0a 00 	mov	#10,	r14	;#0x000a
    8462:	0f 43       	clr	r15		;
    8464:	0a 96       	cmp	r6,	r10	;
    8466:	05 20       	jnz	$+12     	;abs 0x8472
    8468:	88 12       	call	r8		;
    846a:	0a 4c       	mov	r12,	r10	;
    846c:	06 4c       	mov	r12,	r6	;
    846e:	30 40 86 84 	br	#0x8486		;
    8472:	88 12       	call	r8		;
    8474:	0a 4c       	mov	r12,	r10	;
    8476:	1c 41 1e 00 	mov	30(r1),	r12	;0x0001e
    847a:	0d 46       	mov	r6,	r13	;
    847c:	3e 40 0a 00 	mov	#10,	r14	;#0x000a
    8480:	0f 43       	clr	r15		;
    8482:	88 12       	call	r8		;
    8484:	06 4c       	mov	r12,	r6	;
    8486:	1f 41 1c 00 	mov	28(r1),	r15	;0x0001c
    848a:	30 40 04 83 	br	#0x8304		;
    848e:	1c 41 1e 00 	mov	30(r1),	r12	;0x0001e
    8492:	0d 47       	mov	r7,	r13	;
    8494:	3e 40 0a 00 	mov	#10,	r14	;#0x000a
    8498:	0f 43       	clr	r15		;
    849a:	b0 12 44 91 	call	#37188		;#0x9144
    849e:	07 4c       	mov	r12,	r7	;
    84a0:	0c 47       	mov	r7,	r12	;
    84a2:	0d 49       	mov	r9,	r13	;
    84a4:	84 12       	call	r4		;
    84a6:	08 4c       	mov	r12,	r8	;
    84a8:	38 50 30 00 	add	#48,	r8	;#0x0030
    84ac:	1c 41 2a 00 	mov	42(r1),	r12	;0x0002a
    84b0:	0c 56       	add	r6,	r12	;
    84b2:	cc 48 00 00 	mov.b	r8,	0(r12)	;
    84b6:	16 53       	inc	r6		;
    84b8:	16 91 0c 00 	cmp	12(r1),	r6	;0x0000c
    84bc:	e8 3b       	jl	$-46     	;abs 0x848e
    84be:	1c 41 0c 00 	mov	12(r1),	r12	;0x0000c
    84c2:	0e 43       	clr	r14		;
    84c4:	0e 9c       	cmp	r12,	r14	;
    84c6:	01 38       	jl	$+4      	;abs 0x84ca
    84c8:	1c 43       	mov	#1,	r12	;r3 As==01
    84ca:	14 41 2a 00 	mov	42(r1),	r4	;0x0002a
    84ce:	04 5c       	add	r12,	r4	;
    84d0:	06 4a       	mov	r10,	r6	;
    84d2:	0a 43       	clr	r10		;
    84d4:	1c 41 1e 00 	mov	30(r1),	r12	;0x0001e
    84d8:	0d 47       	mov	r7,	r13	;
    84da:	1e 43       	mov	#1,	r14	;r3 As==01
    84dc:	b0 12 e2 97 	call	#38882		;#0x97e2
    84e0:	81 4c 24 00 	mov	r12,	36(r1)	; 0x0024
    84e4:	0d 49       	mov	r9,	r13	;
    84e6:	b0 12 0c 99 	call	#39180		;#0x990c
    84ea:	07 43       	clr	r7		;
    84ec:	07 9c       	cmp	r12,	r7	;
    84ee:	07 38       	jl	$+16     	;abs 0x84fe
    84f0:	0c 97       	cmp	r7,	r12	;
    84f2:	1b 20       	jnz	$+56     	;abs 0x852a
    84f4:	18 b3       	bit	#1,	r8	;r3 As==01
    84f6:	03 20       	jnz	$+8      	;abs 0x84fe
    84f8:	30 40 2a 85 	br	#0x852a		;
    84fc:	04 4c       	mov	r12,	r4	;
    84fe:	0c 44       	mov	r4,	r12	;
    8500:	3c 53       	add	#-1,	r12	;r3 As==11
    8502:	6d 4c       	mov.b	@r12,	r13	;
    8504:	3d 90 39 00 	cmp	#57,	r13	;#0x0039
    8508:	0b 20       	jnz	$+24     	;abs 0x8520
    850a:	1c 91 2a 00 	cmp	42(r1),	r12	;0x0002a
    850e:	f6 23       	jnz	$-18     	;abs 0x84fc
    8510:	15 53       	inc	r5		;
    8512:	17 41 2a 00 	mov	42(r1),	r7	;0x0002a
    8516:	f7 40 31 00 	mov.b	#49,	0(r7)	;#0x0031
    851a:	00 00 
    851c:	30 40 3c 85 	br	#0x853c		;
    8520:	5d 53       	inc.b	r13		;
    8522:	cc 4d 00 00 	mov.b	r13,	0(r12)	;
    8526:	30 40 3c 85 	br	#0x853c		;
    852a:	0c 44       	mov	r4,	r12	;
    852c:	3c 53       	add	#-1,	r12	;r3 As==11
    852e:	fc 90 30 00 	cmp.b	#48,	0(r12)	;#0x0030
    8532:	00 00 
    8534:	03 20       	jnz	$+8      	;abs 0x853c
    8536:	04 4c       	mov	r12,	r4	;
    8538:	30 40 2a 85 	br	#0x852a		;
    853c:	38 40 fe 90 	mov	#37118,	r8	;#0x90fe
    8540:	1c 41 1e 00 	mov	30(r1),	r12	;0x0001e
    8544:	0d 49       	mov	r9,	r13	;
    8546:	88 12       	call	r8		;
    8548:	09 48       	mov	r8,	r9	;
    854a:	06 93       	cmp	#0,	r6	;r3 As==00
    854c:	10 24       	jz	$+34     	;abs 0x856e
    854e:	0a 93       	cmp	#0,	r10	;r3 As==00
    8550:	06 24       	jz	$+14     	;abs 0x855e
    8552:	0a 96       	cmp	r6,	r10	;
    8554:	04 24       	jz	$+10     	;abs 0x855e
    8556:	1c 41 1e 00 	mov	30(r1),	r12	;0x0001e
    855a:	0d 4a       	mov	r10,	r13	;
    855c:	88 12       	call	r8		;
    855e:	1c 41 1e 00 	mov	30(r1),	r12	;0x0001e
    8562:	0d 46       	mov	r6,	r13	;
    8564:	89 12       	call	r9		;
    8566:	30 40 6e 85 	br	#0x856e		;
    856a:	15 41 32 00 	mov	50(r1),	r5	;0x00032
    856e:	1c 41 1e 00 	mov	30(r1),	r12	;0x0001e
    8572:	1d 41 24 00 	mov	36(r1),	r13	;0x00024
    8576:	b0 12 fe 90 	call	#37118		;#0x90fe
    857a:	c4 43 00 00 	mov.b	#0,	0(r4)	;r3 As==00
    857e:	15 53       	inc	r5		;
    8580:	17 41 48 00 	mov	72(r1),	r7	;0x00048
    8584:	87 45 00 00 	mov	r5,	0(r7)	;
    8588:	81 93 70 00 	cmp	#0,	112(r1)	;r3 As==00, 0x0070
    858c:	0c 24       	jz	$+26     	;abs 0x85a6
    858e:	17 41 70 00 	mov	112(r1),r7	;0x00070
    8592:	87 44 00 00 	mov	r4,	0(r7)	;
    8596:	1c 41 2a 00 	mov	42(r1),	r12	;0x0002a
    859a:	30 40 ce 85 	br	#0x85ce		;
    859e:	3c 40 6d 44 	mov	#17517,	r12	;#0x446d
    85a2:	30 40 ce 85 	br	#0x85ce		;
    85a6:	1c 41 2a 00 	mov	42(r1),	r12	;0x0002a
    85aa:	30 40 ce 85 	br	#0x85ce		;
    85ae:	0c 43       	clr	r12		;
    85b0:	1c 91 0c 00 	cmp	12(r1),	r12	;0x0000c
    85b4:	66 3a       	jl	$-818    	;abs 0x8282
    85b6:	2d 43       	mov	#2,	r13	;r3 As==10
    85b8:	1d 91 26 00 	cmp	38(r1),	r13	;0x00026
    85bc:	26 3a       	jl	$-946    	;abs 0x820a
    85be:	30 40 82 82 	br	#0x8282		;
    85c2:	2e 43       	mov	#2,	r14	;r3 As==10
    85c4:	1e 91 26 00 	cmp	38(r1),	r14	;0x00026
    85c8:	20 3a       	jl	$-958    	;abs 0x820a
    85ca:	30 40 94 82 	br	#0x8294		;
    85ce:	31 50 56 00 	add	#86,	r1	;#0x0056
    85d2:	30 40 a4 51 	br	#0x51a4		;

000085d6 <__sflush_r>:
    85d6:	0a 12       	push	r10		;
    85d8:	09 12       	push	r9		;
    85da:	08 12       	push	r8		;
    85dc:	07 12       	push	r7		;
    85de:	06 12       	push	r6		;
    85e0:	21 83       	decd	r1		;
    85e2:	09 4c       	mov	r12,	r9	;
    85e4:	0a 4d       	mov	r13,	r10	;
    85e6:	1d 4d 06 00 	mov	6(r13),	r13	;
    85ea:	08 4d       	mov	r13,	r8	;
    85ec:	38 f2       	and	#8,	r8	;r2 As==11
    85ee:	08 93       	cmp	#0,	r8	;r3 As==00
    85f0:	97 20       	jnz	$+304    	;abs 0x8720
    85f2:	06 4d       	mov	r13,	r6	;
    85f4:	36 d0 00 08 	bis	#2048,	r6	;#0x0800
    85f8:	8a 46 06 00 	mov	r6,	6(r10)	;
    85fc:	0c 43       	clr	r12		;
    85fe:	1c 9a 02 00 	cmp	2(r10),	r12	;
    8602:	03 38       	jl	$+8      	;abs 0x860a
    8604:	1c 9a 22 00 	cmp	34(r10),r12	;0x00022
    8608:	29 34       	jge	$+84     	;abs 0x865c
    860a:	1b 4a 18 00 	mov	24(r10),r11	;0x00018
    860e:	0b 93       	cmp	#0,	r11	;r3 As==00
    8610:	25 24       	jz	$+76     	;abs 0x865c
    8612:	27 49       	mov	@r9,	r7	;
    8614:	89 43 00 00 	mov	#0,	0(r9)	;r3 As==00
    8618:	3d b0 00 10 	bit	#4096,	r13	;#0x1000
    861c:	06 24       	jz	$+14     	;abs 0x862a
    861e:	1e 4a 2e 00 	mov	46(r10),r14	;0x0002e
    8622:	1f 4a 30 00 	mov	48(r10),r15	;0x00030
    8626:	30 40 62 86 	br	#0x8662		;
    862a:	1d 4a 12 00 	mov	18(r10),r13	;0x00012
    862e:	91 43 00 00 	mov	#1,	0(r1)	;r3 As==01
    8632:	0c 49       	mov	r9,	r12	;
    8634:	0e 43       	clr	r14		;
    8636:	0f 43       	clr	r15		;
    8638:	8b 12       	call	r11		;
    863a:	0e 4c       	mov	r12,	r14	;
    863c:	0f 4d       	mov	r13,	r15	;
    863e:	3c 93       	cmp	#-1,	r12	;r3 As==11
    8640:	10 20       	jnz	$+34     	;abs 0x8662
    8642:	3d 93       	cmp	#-1,	r13	;r3 As==11
    8644:	0e 20       	jnz	$+30     	;abs 0x8662
    8646:	2c 49       	mov	@r9,	r12	;
    8648:	0c 93       	cmp	#0,	r12	;r3 As==00
    864a:	0b 24       	jz	$+24     	;abs 0x8662
    864c:	3c 90 1d 00 	cmp	#29,	r12	;#0x001d
    8650:	03 24       	jz	$+8      	;abs 0x8658
    8652:	3c 90 16 00 	cmp	#22,	r12	;#0x0016
    8656:	5e 20       	jnz	$+190    	;abs 0x8714
    8658:	89 47 00 00 	mov	r7,	0(r9)	;
    865c:	08 43       	clr	r8		;
    865e:	30 40 76 87 	br	#0x8776		;
    8662:	ea b2 06 00 	bit.b	#4,	6(r10)	;r2 As==10
    8666:	15 24       	jz	$+44     	;abs 0x8692
    8668:	16 4a 02 00 	mov	2(r10),	r6	;
    866c:	0c 46       	mov	r6,	r12	;
    866e:	3c b0 00 80 	bit	#32768,	r12	;#0x8000
    8672:	0d 7d       	subc	r13,	r13	;
    8674:	3d e3       	inv	r13		;
    8676:	0e 8c       	sub	r12,	r14	;
    8678:	0f 7d       	subc	r13,	r15	;
    867a:	8a 93 1c 00 	cmp	#0,	28(r10)	;r3 As==00, 0x001c
    867e:	09 24       	jz	$+20     	;abs 0x8692
    8680:	16 4a 22 00 	mov	34(r10),r6	;0x00022
    8684:	0c 46       	mov	r6,	r12	;
    8686:	3c b0 00 80 	bit	#32768,	r12	;#0x8000
    868a:	0d 7d       	subc	r13,	r13	;
    868c:	3d e3       	inv	r13		;
    868e:	0e 8c       	sub	r12,	r14	;
    8690:	0f 7d       	subc	r13,	r15	;
    8692:	1d 4a 12 00 	mov	18(r10),r13	;0x00012
    8696:	81 43 00 00 	mov	#0,	0(r1)	;r3 As==00
    869a:	0c 49       	mov	r9,	r12	;
    869c:	16 4a 18 00 	mov	24(r10),r6	;0x00018
    86a0:	86 12       	call	r6		;
    86a2:	3c 93       	cmp	#-1,	r12	;r3 As==11
    86a4:	0b 20       	jnz	$+24     	;abs 0x86bc
    86a6:	3d 93       	cmp	#-1,	r13	;r3 As==11
    86a8:	09 20       	jnz	$+20     	;abs 0x86bc
    86aa:	2e 49       	mov	@r9,	r14	;
    86ac:	0e 93       	cmp	#0,	r14	;r3 As==00
    86ae:	06 24       	jz	$+14     	;abs 0x86bc
    86b0:	3e 90 1d 00 	cmp	#29,	r14	;#0x001d
    86b4:	03 24       	jz	$+8      	;abs 0x86bc
    86b6:	3e 90 16 00 	cmp	#22,	r14	;#0x0016
    86ba:	2c 20       	jnz	$+90     	;abs 0x8714
    86bc:	1e 4a 06 00 	mov	6(r10),	r14	;
    86c0:	0f 4e       	mov	r14,	r15	;
    86c2:	3f f0 ff f7 	and	#63487,	r15	;#0xf7ff
    86c6:	8a 4f 06 00 	mov	r15,	6(r10)	;
    86ca:	8a 43 02 00 	mov	#0,	2(r10)	;r3 As==00
    86ce:	9a 4a 0a 00 	mov	10(r10),0(r10)	;0x0000a
    86d2:	00 00 
    86d4:	3e b0 00 10 	bit	#4096,	r14	;#0x1000
    86d8:	0b 24       	jz	$+24     	;abs 0x86f0
    86da:	3c 93       	cmp	#-1,	r12	;r3 As==11
    86dc:	05 20       	jnz	$+12     	;abs 0x86e8
    86de:	3d 93       	cmp	#-1,	r13	;r3 As==11
    86e0:	03 20       	jnz	$+8      	;abs 0x86e8
    86e2:	89 93 00 00 	cmp	#0,	0(r9)	;r3 As==00
    86e6:	04 20       	jnz	$+10     	;abs 0x86f0
    86e8:	8a 4c 2e 00 	mov	r12,	46(r10)	; 0x002e
    86ec:	8a 4d 30 00 	mov	r13,	48(r10)	; 0x0030
    86f0:	89 47 00 00 	mov	r7,	0(r9)	;
    86f4:	1d 4a 1c 00 	mov	28(r10),r13	;0x0001c
    86f8:	0d 93       	cmp	#0,	r13	;r3 As==00
    86fa:	b0 27       	jz	$-158    	;abs 0x865c
    86fc:	0c 4a       	mov	r10,	r12	;
    86fe:	3c 50 24 00 	add	#36,	r12	;#0x0024
    8702:	0d 9c       	cmp	r12,	r13	;
    8704:	03 24       	jz	$+8      	;abs 0x870c
    8706:	0c 49       	mov	r9,	r12	;
    8708:	b0 12 36 54 	call	#21558		;#0x5436
    870c:	8a 43 1c 00 	mov	#0,	28(r10)	;r3 As==00, 0x001c
    8710:	30 40 76 87 	br	#0x8776		;
    8714:	ba d0 40 00 	bis	#64,	6(r10)	;#0x0040
    8718:	06 00 
    871a:	08 4d       	mov	r13,	r8	;
    871c:	30 40 76 87 	br	#0x8776		;
    8720:	18 4a 0a 00 	mov	10(r10),r8	;0x0000a
    8724:	08 93       	cmp	#0,	r8	;r3 As==00
    8726:	9a 27       	jz	$-202    	;abs 0x865c
    8728:	27 4a       	mov	@r10,	r7	;
    872a:	07 88       	sub	r8,	r7	;
    872c:	8a 48 00 00 	mov	r8,	0(r10)	;
    8730:	3d f0 03 00 	and	#3,	r13	;
    8734:	0d 93       	cmp	#0,	r13	;r3 As==00
    8736:	04 20       	jnz	$+10     	;abs 0x8740
    8738:	1c 4a 0c 00 	mov	12(r10),r12	;0x0000c
    873c:	30 40 42 87 	br	#0x8742		;
    8740:	0c 43       	clr	r12		;
    8742:	8a 4c 04 00 	mov	r12,	4(r10)	;
    8746:	0f 43       	clr	r15		;
    8748:	0f 97       	cmp	r7,	r15	;
    874a:	88 37       	jge	$-238    	;abs 0x865c
    874c:	0c 49       	mov	r9,	r12	;
    874e:	1d 4a 12 00 	mov	18(r10),r13	;0x00012
    8752:	0e 48       	mov	r8,	r14	;
    8754:	0f 47       	mov	r7,	r15	;
    8756:	16 4a 16 00 	mov	22(r10),r6	;0x00016
    875a:	86 12       	call	r6		;
    875c:	0d 43       	clr	r13		;
    875e:	0d 9c       	cmp	r12,	r13	;
    8760:	06 38       	jl	$+14     	;abs 0x876e
    8762:	ba d0 40 00 	bis	#64,	6(r10)	;#0x0040
    8766:	06 00 
    8768:	38 43       	mov	#-1,	r8	;r3 As==11
    876a:	30 40 76 87 	br	#0x8776		;
    876e:	08 5c       	add	r12,	r8	;
    8770:	07 8c       	sub	r12,	r7	;
    8772:	30 40 46 87 	br	#0x8746		;
    8776:	0c 48       	mov	r8,	r12	;
    8778:	21 53       	incd	r1		;
    877a:	30 40 a8 51 	br	#0x51a8		;

0000877e <_fflush_r>:
    877e:	0a 12       	push	r10		;
    8780:	21 83       	decd	r1		;
    8782:	0a 4c       	mov	r12,	r10	;
    8784:	8d 93 0a 00 	cmp	#0,	10(r13)	;r3 As==00, 0x000a
    8788:	03 20       	jnz	$+8      	;abs 0x8790
    878a:	0c 43       	clr	r12		;
    878c:	30 40 d6 87 	br	#0x87d6		;
    8790:	0c 93       	cmp	#0,	r12	;r3 As==00
    8792:	08 24       	jz	$+18     	;abs 0x87a4
    8794:	8c 93 0c 00 	cmp	#0,	12(r12)	;r3 As==00, 0x000c
    8798:	05 20       	jnz	$+12     	;abs 0x87a4
    879a:	81 4d 00 00 	mov	r13,	0(r1)	;
    879e:	b0 12 64 88 	call	#34916		;#0x8864
    87a2:	2d 41       	mov	@r1,	r13	;
    87a4:	3d 90 94 44 	cmp	#17556,	r13	;#0x4494
    87a8:	04 20       	jnz	$+10     	;abs 0x87b2
    87aa:	1d 4a 02 00 	mov	2(r10),	r13	;
    87ae:	30 40 ca 87 	br	#0x87ca		;
    87b2:	3d 90 82 44 	cmp	#17538,	r13	;#0x4482
    87b6:	04 20       	jnz	$+10     	;abs 0x87c0
    87b8:	1d 4a 04 00 	mov	4(r10),	r13	;
    87bc:	30 40 ca 87 	br	#0x87ca		;
    87c0:	3d 90 70 44 	cmp	#17520,	r13	;#0x4470
    87c4:	02 20       	jnz	$+6      	;abs 0x87ca
    87c6:	1d 4a 06 00 	mov	6(r10),	r13	;
    87ca:	8d 93 06 00 	cmp	#0,	6(r13)	;r3 As==00
    87ce:	dd 27       	jz	$-68     	;abs 0x878a
    87d0:	0c 4a       	mov	r10,	r12	;
    87d2:	b0 12 d6 85 	call	#34262		;#0x85d6
    87d6:	21 53       	incd	r1		;
    87d8:	3a 41       	pop	r10		;
    87da:	30 41       	ret			

000087dc <fflush>:
    87dc:	0d 4c       	mov	r12,	r13	;
    87de:	0c 93       	cmp	#0,	r12	;r3 As==00
    87e0:	08 20       	jnz	$+18     	;abs 0x87f2
    87e2:	1c 42 a6 44 	mov	&0x44a6,r12	;0x44a6
    87e6:	3d 40 7e 87 	mov	#34686,	r13	;#0x877e
    87ea:	b0 12 08 8e 	call	#36360		;#0x8e08
    87ee:	30 40 fa 87 	br	#0x87fa		;
    87f2:	1c 42 20 02 	mov	&0x0220,r12	;0x0220
    87f6:	b0 12 7e 87 	call	#34686		;#0x877e
    87fa:	30 41       	ret			

000087fc <__fp_lock>:
    87fc:	0c 43       	clr	r12		;
    87fe:	30 41       	ret			

00008800 <__fp_unlock>:
    8800:	0c 43       	clr	r12		;
    8802:	30 41       	ret			

00008804 <_cleanup_r>:
    8804:	3d 40 2c b1 	mov	#45356,	r13	;#0xb12c
    8808:	b0 12 b4 8d 	call	#36276		;#0x8db4
    880c:	30 41       	ret			

0000880e <__sfmoreglue>:
    880e:	0a 12       	push	r10		;
    8810:	09 12       	push	r9		;
    8812:	08 12       	push	r8		;
    8814:	0a 4c       	mov	r12,	r10	;
    8816:	08 4d       	mov	r13,	r8	;
    8818:	0c 4d       	mov	r13,	r12	;
    881a:	3c 53       	add	#-1,	r12	;r3 As==11
    881c:	3d 40 3c 00 	mov	#60,	r13	;#0x003c
    8820:	b0 12 68 52 	call	#21096		;#0x5268
    8824:	09 4c       	mov	r12,	r9	;
    8826:	0c 4a       	mov	r10,	r12	;
    8828:	0d 49       	mov	r9,	r13	;
    882a:	3d 50 42 00 	add	#66,	r13	;#0x0042
    882e:	b0 12 30 55 	call	#21808		;#0x5530
    8832:	0a 4c       	mov	r12,	r10	;
    8834:	0c 93       	cmp	#0,	r12	;r3 As==00
    8836:	0e 24       	jz	$+30     	;abs 0x8854
    8838:	8c 43 00 00 	mov	#0,	0(r12)	;r3 As==00
    883c:	8c 48 02 00 	mov	r8,	2(r12)	;
    8840:	3c 50 06 00 	add	#6,	r12	;
    8844:	8a 4c 04 00 	mov	r12,	4(r10)	;
    8848:	0d 43       	clr	r13		;
    884a:	0e 49       	mov	r9,	r14	;
    884c:	3e 50 3c 00 	add	#60,	r14	;#0x003c
    8850:	b0 12 42 90 	call	#36930		;#0x9042
    8854:	0c 4a       	mov	r10,	r12	;
    8856:	30 40 ac 51 	br	#0x51ac		;

0000885a <_cleanup>:
    885a:	1c 42 a6 44 	mov	&0x44a6,r12	;0x44a6
    885e:	b0 12 04 88 	call	#34820		;#0x8804
    8862:	30 41       	ret			

00008864 <__sinit>:
    8864:	0a 12       	push	r10		;
    8866:	09 12       	push	r9		;
    8868:	08 12       	push	r8		;
    886a:	8c 93 0c 00 	cmp	#0,	12(r12)	;r3 As==00, 0x000c
    886e:	9d 20       	jnz	$+316    	;abs 0x89aa
    8870:	bc 40 04 88 	mov	#34820,	20(r12)	;#0x8804, 0x0014
    8874:	14 00 
    8876:	8c 43 6c 00 	mov	#0,	108(r12);r3 As==00, 0x006c
    887a:	8c 43 6e 00 	mov	#0,	110(r12);r3 As==00, 0x006e
    887e:	8c 43 70 00 	mov	#0,	112(r12);r3 As==00, 0x0070
    8882:	1c 92 a6 44 	cmp	&0x44a6,r12	;0x44a6
    8886:	02 20       	jnz	$+6      	;abs 0x888c
    8888:	9c 43 0c 00 	mov	#1,	12(r12)	;r3 As==01, 0x000c
    888c:	0a 4c       	mov	r12,	r10	;
    888e:	39 40 ae 89 	mov	#35246,	r9	;#0x89ae
    8892:	89 12       	call	r9		;
    8894:	8a 4c 02 00 	mov	r12,	2(r10)	;
    8898:	0c 4a       	mov	r10,	r12	;
    889a:	89 12       	call	r9		;
    889c:	8a 4c 04 00 	mov	r12,	4(r10)	;
    88a0:	0c 4a       	mov	r10,	r12	;
    88a2:	89 12       	call	r9		;
    88a4:	8a 4c 06 00 	mov	r12,	6(r10)	;
    88a8:	19 4a 02 00 	mov	2(r10),	r9	;
    88ac:	89 43 00 00 	mov	#0,	0(r9)	;r3 As==00
    88b0:	89 43 02 00 	mov	#0,	2(r9)	;r3 As==00
    88b4:	89 43 04 00 	mov	#0,	4(r9)	;r3 As==00
    88b8:	a9 42 06 00 	mov	#4,	6(r9)	;r2 As==10
    88bc:	89 43 3a 00 	mov	#0,	58(r9)	;r3 As==00, 0x003a
    88c0:	89 43 08 00 	mov	#0,	8(r9)	;r3 As==00
    88c4:	89 43 0a 00 	mov	#0,	10(r9)	;r3 As==00, 0x000a
    88c8:	89 43 0c 00 	mov	#0,	12(r9)	;r3 As==00, 0x000c
    88cc:	89 43 0e 00 	mov	#0,	14(r9)	;r3 As==00, 0x000e
    88d0:	38 40 42 90 	mov	#36930,	r8	;#0x9042
    88d4:	0c 49       	mov	r9,	r12	;
    88d6:	3c 50 34 00 	add	#52,	r12	;#0x0034
    88da:	0d 43       	clr	r13		;
    88dc:	3e 40 06 00 	mov	#6,	r14	;
    88e0:	88 12       	call	r8		;
    88e2:	89 49 12 00 	mov	r9,	18(r9)	; 0x0012
    88e6:	b9 40 f8 a2 	mov	#41720,	20(r9)	;#0xa2f8, 0x0014
    88ea:	14 00 
    88ec:	b9 40 3c a3 	mov	#41788,	22(r9)	;#0xa33c, 0x0016
    88f0:	16 00 
    88f2:	b9 40 7e a3 	mov	#41854,	24(r9)	;#0xa37e, 0x0018
    88f6:	18 00 
    88f8:	b9 40 b8 a3 	mov	#41912,	26(r9)	;#0xa3b8, 0x001a
    88fc:	1a 00 
    88fe:	19 4a 04 00 	mov	4(r10),	r9	;
    8902:	89 43 00 00 	mov	#0,	0(r9)	;r3 As==00
    8906:	89 43 02 00 	mov	#0,	2(r9)	;r3 As==00
    890a:	89 43 04 00 	mov	#0,	4(r9)	;r3 As==00
    890e:	b9 40 09 00 	mov	#9,	6(r9)	;
    8912:	06 00 
    8914:	89 43 3a 00 	mov	#0,	58(r9)	;r3 As==00, 0x003a
    8918:	99 43 08 00 	mov	#1,	8(r9)	;r3 As==01
    891c:	89 43 0a 00 	mov	#0,	10(r9)	;r3 As==00, 0x000a
    8920:	89 43 0c 00 	mov	#0,	12(r9)	;r3 As==00, 0x000c
    8924:	89 43 0e 00 	mov	#0,	14(r9)	;r3 As==00, 0x000e
    8928:	0c 49       	mov	r9,	r12	;
    892a:	3c 50 34 00 	add	#52,	r12	;#0x0034
    892e:	0d 43       	clr	r13		;
    8930:	3e 40 06 00 	mov	#6,	r14	;
    8934:	88 12       	call	r8		;
    8936:	89 49 12 00 	mov	r9,	18(r9)	; 0x0012
    893a:	b9 40 f8 a2 	mov	#41720,	20(r9)	;#0xa2f8, 0x0014
    893e:	14 00 
    8940:	b9 40 3c a3 	mov	#41788,	22(r9)	;#0xa33c, 0x0016
    8944:	16 00 
    8946:	b9 40 7e a3 	mov	#41854,	24(r9)	;#0xa37e, 0x0018
    894a:	18 00 
    894c:	b9 40 b8 a3 	mov	#41912,	26(r9)	;#0xa3b8, 0x001a
    8950:	1a 00 
    8952:	19 4a 06 00 	mov	6(r10),	r9	;
    8956:	89 43 00 00 	mov	#0,	0(r9)	;r3 As==00
    895a:	89 43 02 00 	mov	#0,	2(r9)	;r3 As==00
    895e:	89 43 04 00 	mov	#0,	4(r9)	;r3 As==00
    8962:	b9 40 12 00 	mov	#18,	6(r9)	;#0x0012
    8966:	06 00 
    8968:	89 43 3a 00 	mov	#0,	58(r9)	;r3 As==00, 0x003a
    896c:	a9 43 08 00 	mov	#2,	8(r9)	;r3 As==10
    8970:	89 43 0a 00 	mov	#0,	10(r9)	;r3 As==00, 0x000a
    8974:	89 43 0c 00 	mov	#0,	12(r9)	;r3 As==00, 0x000c
    8978:	89 43 0e 00 	mov	#0,	14(r9)	;r3 As==00, 0x000e
    897c:	0c 49       	mov	r9,	r12	;
    897e:	3c 50 34 00 	add	#52,	r12	;#0x0034
    8982:	0d 43       	clr	r13		;
    8984:	3e 40 06 00 	mov	#6,	r14	;
    8988:	88 12       	call	r8		;
    898a:	89 49 12 00 	mov	r9,	18(r9)	; 0x0012
    898e:	b9 40 f8 a2 	mov	#41720,	20(r9)	;#0xa2f8, 0x0014
    8992:	14 00 
    8994:	b9 40 3c a3 	mov	#41788,	22(r9)	;#0xa33c, 0x0016
    8998:	16 00 
    899a:	b9 40 7e a3 	mov	#41854,	24(r9)	;#0xa37e, 0x0018
    899e:	18 00 
    89a0:	b9 40 b8 a3 	mov	#41912,	26(r9)	;#0xa3b8, 0x001a
    89a4:	1a 00 
    89a6:	9a 43 0c 00 	mov	#1,	12(r10)	;r3 As==01, 0x000c
    89aa:	30 40 ac 51 	br	#0x51ac		;

000089ae <__sfp>:
    89ae:	0a 12       	push	r10		;
    89b0:	09 12       	push	r9		;
    89b2:	08 12       	push	r8		;
    89b4:	07 12       	push	r7		;
    89b6:	08 4c       	mov	r12,	r8	;
    89b8:	19 42 a6 44 	mov	&0x44a6,r9	;0x44a6
    89bc:	89 93 0c 00 	cmp	#0,	12(r9)	;r3 As==00, 0x000c
    89c0:	03 20       	jnz	$+8      	;abs 0x89c8
    89c2:	0c 49       	mov	r9,	r12	;
    89c4:	b0 12 64 88 	call	#34916		;#0x8864
    89c8:	39 50 6c 00 	add	#108,	r9	;#0x006c
    89cc:	37 40 0e 88 	mov	#34830,	r7	;#0x880e
    89d0:	1e 49 02 00 	mov	2(r9),	r14	;
    89d4:	1d 49 04 00 	mov	4(r9),	r13	;
    89d8:	3d 50 06 00 	add	#6,	r13	;
    89dc:	0a 4d       	mov	r13,	r10	;
    89de:	3a 50 fa ff 	add	#65530,	r10	;#0xfffa
    89e2:	3e 53       	add	#-1,	r14	;r3 As==11
    89e4:	0e 93       	cmp	#0,	r14	;r3 As==00
    89e6:	2a 38       	jl	$+86     	;abs 0x8a3c
    89e8:	3d 50 3c 00 	add	#60,	r13	;#0x003c
    89ec:	8d 93 c4 ff 	cmp	#0,	-60(r13);r3 As==00, 0xffc4
    89f0:	f5 23       	jnz	$-20     	;abs 0x89dc
    89f2:	ba 43 08 00 	mov	#-1,	8(r10)	;r3 As==11
    89f6:	9a 43 06 00 	mov	#1,	6(r10)	;r3 As==01
    89fa:	8a 43 3a 00 	mov	#0,	58(r10)	;r3 As==00, 0x003a
    89fe:	8a 43 00 00 	mov	#0,	0(r10)	;r3 As==00
    8a02:	8a 43 04 00 	mov	#0,	4(r10)	;r3 As==00
    8a06:	8a 43 02 00 	mov	#0,	2(r10)	;r3 As==00
    8a0a:	8a 43 0a 00 	mov	#0,	10(r10)	;r3 As==00, 0x000a
    8a0e:	8a 43 0c 00 	mov	#0,	12(r10)	;r3 As==00, 0x000c
    8a12:	8a 43 0e 00 	mov	#0,	14(r10)	;r3 As==00, 0x000e
    8a16:	0c 4a       	mov	r10,	r12	;
    8a18:	3c 50 34 00 	add	#52,	r12	;#0x0034
    8a1c:	0d 43       	clr	r13		;
    8a1e:	3e 40 06 00 	mov	#6,	r14	;
    8a22:	b0 12 42 90 	call	#36930		;#0x9042
    8a26:	8a 43 1c 00 	mov	#0,	28(r10)	;r3 As==00, 0x001c
    8a2a:	8a 43 1e 00 	mov	#0,	30(r10)	;r3 As==00, 0x001e
    8a2e:	8a 43 28 00 	mov	#0,	40(r10)	;r3 As==00, 0x0028
    8a32:	8a 43 2a 00 	mov	#0,	42(r10)	;r3 As==00, 0x002a
    8a36:	0c 4a       	mov	r10,	r12	;
    8a38:	30 40 5c 8a 	br	#0x8a5c		;
    8a3c:	89 93 00 00 	cmp	#0,	0(r9)	;r3 As==00
    8a40:	07 20       	jnz	$+16     	;abs 0x8a50
    8a42:	0c 48       	mov	r8,	r12	;
    8a44:	2d 42       	mov	#4,	r13	;r2 As==10
    8a46:	87 12       	call	r7		;
    8a48:	89 4c 00 00 	mov	r12,	0(r9)	;
    8a4c:	0c 93       	cmp	#0,	r12	;r3 As==00
    8a4e:	03 24       	jz	$+8      	;abs 0x8a56
    8a50:	29 49       	mov	@r9,	r9	;
    8a52:	30 40 d0 89 	br	#0x89d0		;
    8a56:	b8 40 0c 00 	mov	#12,	0(r8)	;#0x000c
    8a5a:	00 00 
    8a5c:	30 40 aa 51 	br	#0x51aa		;

00008a60 <__sfp_lock_acquire>:
    8a60:	30 41       	ret			

00008a62 <__sfp_lock_release>:
    8a62:	30 41       	ret			

00008a64 <__sinit_lock_acquire>:
    8a64:	30 41       	ret			

00008a66 <__sinit_lock_release>:
    8a66:	30 41       	ret			

00008a68 <__fp_lock_all>:
    8a68:	1c 42 20 02 	mov	&0x0220,r12	;0x0220
    8a6c:	3d 40 fc 87 	mov	#34812,	r13	;#0x87fc
    8a70:	b0 12 b4 8d 	call	#36276		;#0x8db4
    8a74:	30 41       	ret			

00008a76 <__fp_unlock_all>:
    8a76:	1c 42 20 02 	mov	&0x0220,r12	;0x0220
    8a7a:	3d 40 00 88 	mov	#34816,	r13	;#0x8800
    8a7e:	b0 12 b4 8d 	call	#36276		;#0x8db4
    8a82:	30 41       	ret			

00008a84 <__sfvwrite_r>:
    8a84:	0a 12       	push	r10		;
    8a86:	09 12       	push	r9		;
    8a88:	08 12       	push	r8		;
    8a8a:	07 12       	push	r7		;
    8a8c:	06 12       	push	r6		;
    8a8e:	05 12       	push	r5		;
    8a90:	04 12       	push	r4		;
    8a92:	31 82       	sub	#8,	r1	;r2 As==11
    8a94:	8e 93 04 00 	cmp	#0,	4(r14)	;r3 As==00
    8a98:	03 20       	jnz	$+8      	;abs 0x8aa0
    8a9a:	0c 43       	clr	r12		;
    8a9c:	30 40 ae 8d 	br	#0x8dae		;
    8aa0:	81 4e 04 00 	mov	r14,	4(r1)	;
    8aa4:	0a 4d       	mov	r13,	r10	;
    8aa6:	04 4c       	mov	r12,	r4	;
    8aa8:	fd b2 06 00 	bit.b	#8,	6(r13)	;r2 As==11
    8aac:	10 24       	jz	$+34     	;abs 0x8ace
    8aae:	8d 93 0a 00 	cmp	#0,	10(r13)	;r3 As==00, 0x000a
    8ab2:	0d 24       	jz	$+28     	;abs 0x8ace
    8ab4:	16 41 04 00 	mov	4(r1),	r6	;
    8ab8:	27 46       	mov	@r6,	r7	;
    8aba:	16 4a 06 00 	mov	6(r10),	r6	;
    8abe:	09 46       	mov	r6,	r9	;
    8ac0:	29 f3       	and	#2,	r9	;r3 As==10
    8ac2:	09 93       	cmp	#0,	r9	;r3 As==00
    8ac4:	30 24       	jz	$+98     	;abs 0x8b26
    8ac6:	08 43       	clr	r8		;
    8ac8:	09 48       	mov	r8,	r9	;
    8aca:	30 40 16 8b 	br	#0x8b16		;
    8ace:	0c 44       	mov	r4,	r12	;
    8ad0:	0d 4a       	mov	r10,	r13	;
    8ad2:	b0 12 de 6e 	call	#28382		;#0x6ede
    8ad6:	0c 93       	cmp	#0,	r12	;r3 As==00
    8ad8:	ed 27       	jz	$-36     	;abs 0x8ab4
    8ada:	3c 43       	mov	#-1,	r12	;r3 As==11
    8adc:	30 40 ae 8d 	br	#0x8dae		;
    8ae0:	1d 4a 12 00 	mov	18(r10),r13	;0x00012
    8ae4:	0f 49       	mov	r9,	r15	;
    8ae6:	3c 40 00 7c 	mov	#31744,	r12	;#0x7c00
    8aea:	0c 99       	cmp	r9,	r12	;
    8aec:	01 2c       	jc	$+4      	;abs 0x8af0
    8aee:	0f 4c       	mov	r12,	r15	;
    8af0:	0c 44       	mov	r4,	r12	;
    8af2:	0e 48       	mov	r8,	r14	;
    8af4:	16 4a 16 00 	mov	22(r10),r6	;0x00016
    8af8:	86 12       	call	r6		;
    8afa:	0d 43       	clr	r13		;
    8afc:	0d 9c       	cmp	r12,	r13	;
    8afe:	53 35       	jge	$+680    	;abs 0x8da6
    8b00:	08 5c       	add	r12,	r8	;
    8b02:	09 8c       	sub	r12,	r9	;
    8b04:	16 41 04 00 	mov	4(r1),	r6	;
    8b08:	1d 46 04 00 	mov	4(r6),	r13	;
    8b0c:	0d 8c       	sub	r12,	r13	;
    8b0e:	86 4d 04 00 	mov	r13,	4(r6)	;
    8b12:	0d 93       	cmp	#0,	r13	;r3 As==00
    8b14:	c2 27       	jz	$-122    	;abs 0x8a9a
    8b16:	09 93       	cmp	#0,	r9	;r3 As==00
    8b18:	e3 23       	jnz	$-56     	;abs 0x8ae0
    8b1a:	28 47       	mov	@r7,	r8	;
    8b1c:	19 47 02 00 	mov	2(r7),	r9	;
    8b20:	27 52       	add	#4,	r7	;r2 As==10
    8b22:	30 40 16 8b 	br	#0x8b16		;
    8b26:	16 f3       	and	#1,	r6	;r3 As==01
    8b28:	06 93       	cmp	#0,	r6	;r3 As==00
    8b2a:	06 24       	jz	$+14     	;abs 0x8b38
    8b2c:	81 49 06 00 	mov	r9,	6(r1)	;
    8b30:	05 49       	mov	r9,	r5	;
    8b32:	06 49       	mov	r9,	r6	;
    8b34:	30 40 18 8d 	br	#0x8d18		;
    8b38:	09 46       	mov	r6,	r9	;
    8b3a:	09 93       	cmp	#0,	r9	;r3 As==00
    8b3c:	06 20       	jnz	$+14     	;abs 0x8b4a
    8b3e:	26 47       	mov	@r7,	r6	;
    8b40:	19 47 02 00 	mov	2(r7),	r9	;
    8b44:	27 52       	add	#4,	r7	;r2 As==10
    8b46:	30 40 3a 8b 	br	#0x8b3a		;
    8b4a:	1f 4a 04 00 	mov	4(r10),	r15	;
    8b4e:	1e 4a 06 00 	mov	6(r10),	r14	;
    8b52:	3e b0 00 02 	bit	#512,	r14	;#0x0200
    8b56:	6e 24       	jz	$+222    	;abs 0x8c34
    8b58:	09 9f       	cmp	r15,	r9	;
    8b5a:	5b 28       	jnc	$+184    	;abs 0x8c12
    8b5c:	3e b0 80 04 	bit	#1152,	r14	;#0x0480
    8b60:	56 24       	jz	$+174    	;abs 0x8c0e
    8b62:	1d 4a 0a 00 	mov	10(r10),r13	;0x0000a
    8b66:	25 4a       	mov	@r10,	r5	;
    8b68:	05 8d       	sub	r13,	r5	;
    8b6a:	1c 4a 0c 00 	mov	12(r10),r12	;0x0000c
    8b6e:	08 4c       	mov	r12,	r8	;
    8b70:	08 5c       	add	r12,	r8	;
    8b72:	08 5c       	add	r12,	r8	;
    8b74:	0c 48       	mov	r8,	r12	;
    8b76:	81 4d 00 00 	mov	r13,	0(r1)	;
    8b7a:	81 4e 02 00 	mov	r14,	2(r1)	;
    8b7e:	b0 12 b4 51 	call	#20916		;#0x51b4
    8b82:	0c 58       	add	r8,	r12	;
    8b84:	08 4c       	mov	r12,	r8	;
    8b86:	08 11       	rra	r8		;
    8b88:	0c 45       	mov	r5,	r12	;
    8b8a:	1c 53       	inc	r12		;
    8b8c:	0c 59       	add	r9,	r12	;
    8b8e:	2d 41       	mov	@r1,	r13	;
    8b90:	1e 41 02 00 	mov	2(r1),	r14	;
    8b94:	08 9c       	cmp	r12,	r8	;
    8b96:	01 2c       	jc	$+4      	;abs 0x8b9a
    8b98:	08 4c       	mov	r12,	r8	;
    8b9a:	0c 44       	mov	r4,	r12	;
    8b9c:	3e b0 00 04 	bit	#1024,	r14	;#0x0400
    8ba0:	18 24       	jz	$+50     	;abs 0x8bd2
    8ba2:	0d 48       	mov	r8,	r13	;
    8ba4:	b0 12 30 55 	call	#21808		;#0x5530
    8ba8:	0c 93       	cmp	#0,	r12	;r3 As==00
    8baa:	21 24       	jz	$+68     	;abs 0x8bee
    8bac:	1d 4a 0a 00 	mov	10(r10),r13	;0x0000a
    8bb0:	0e 45       	mov	r5,	r14	;
    8bb2:	81 4c 02 00 	mov	r12,	2(r1)	;
    8bb6:	b0 12 18 54 	call	#21528		;#0x5418
    8bba:	1c 4a 06 00 	mov	6(r10),	r12	;
    8bbe:	3c f0 7f fb 	and	#64383,	r12	;#0xfb7f
    8bc2:	3c d0 80 00 	bis	#128,	r12	;#0x0080
    8bc6:	8a 4c 06 00 	mov	r12,	6(r10)	;
    8bca:	1f 41 02 00 	mov	2(r1),	r15	;
    8bce:	30 40 f8 8b 	br	#0x8bf8		;
    8bd2:	0e 48       	mov	r8,	r14	;
    8bd4:	b0 12 f4 a0 	call	#41204		;#0xa0f4
    8bd8:	0f 4c       	mov	r12,	r15	;
    8bda:	0c 93       	cmp	#0,	r12	;r3 As==00
    8bdc:	0d 20       	jnz	$+28     	;abs 0x8bf8
    8bde:	0c 44       	mov	r4,	r12	;
    8be0:	1d 4a 0a 00 	mov	10(r10),r13	;0x0000a
    8be4:	b0 12 36 54 	call	#21558		;#0x5436
    8be8:	ba f0 7f ff 	and	#65407,	6(r10)	;#0xff7f
    8bec:	06 00 
    8bee:	b4 40 0c 00 	mov	#12,	0(r4)	;#0x000c
    8bf2:	00 00 
    8bf4:	30 40 a6 8d 	br	#0x8da6		;
    8bf8:	8a 4f 0a 00 	mov	r15,	10(r10)	; 0x000a
    8bfc:	0f 55       	add	r5,	r15	;
    8bfe:	8a 4f 00 00 	mov	r15,	0(r10)	;
    8c02:	8a 48 0c 00 	mov	r8,	12(r10)	; 0x000c
    8c06:	0f 49       	mov	r9,	r15	;
    8c08:	08 85       	sub	r5,	r8	;
    8c0a:	8a 48 04 00 	mov	r8,	4(r10)	;
    8c0e:	09 9f       	cmp	r15,	r9	;
    8c10:	01 2c       	jc	$+4      	;abs 0x8c14
    8c12:	0f 49       	mov	r9,	r15	;
    8c14:	2c 4a       	mov	@r10,	r12	;
    8c16:	0d 46       	mov	r6,	r13	;
    8c18:	0e 4f       	mov	r15,	r14	;
    8c1a:	81 4f 02 00 	mov	r15,	2(r1)	;
    8c1e:	b0 12 fe 8f 	call	#36862		;#0x8ffe
    8c22:	1f 41 02 00 	mov	2(r1),	r15	;
    8c26:	8a 8f 04 00 	sub	r15,	4(r10)	;
    8c2a:	8a 5f 00 00 	add	r15,	0(r10)	;
    8c2e:	08 49       	mov	r9,	r8	;
    8c30:	30 40 a6 8c 	br	#0x8ca6		;
    8c34:	2c 4a       	mov	@r10,	r12	;
    8c36:	8a 9c 0a 00 	cmp	r12,	10(r10)	; 0x000a
    8c3a:	04 28       	jnc	$+10     	;abs 0x8c44
    8c3c:	18 4a 0c 00 	mov	12(r10),r8	;0x0000c
    8c40:	09 98       	cmp	r8,	r9	;
    8c42:	19 2c       	jc	$+52     	;abs 0x8c76
    8c44:	08 49       	mov	r9,	r8	;
    8c46:	0f 99       	cmp	r9,	r15	;
    8c48:	01 2c       	jc	$+4      	;abs 0x8c4c
    8c4a:	08 4f       	mov	r15,	r8	;
    8c4c:	0d 46       	mov	r6,	r13	;
    8c4e:	0e 48       	mov	r8,	r14	;
    8c50:	b0 12 fe 8f 	call	#36862		;#0x8ffe
    8c54:	1c 4a 04 00 	mov	4(r10),	r12	;
    8c58:	0c 88       	sub	r8,	r12	;
    8c5a:	8a 4c 04 00 	mov	r12,	4(r10)	;
    8c5e:	8a 58 00 00 	add	r8,	0(r10)	;
    8c62:	0c 93       	cmp	#0,	r12	;r3 As==00
    8c64:	20 20       	jnz	$+66     	;abs 0x8ca6
    8c66:	0c 44       	mov	r4,	r12	;
    8c68:	0d 4a       	mov	r10,	r13	;
    8c6a:	b0 12 7e 87 	call	#34686		;#0x877e
    8c6e:	0c 93       	cmp	#0,	r12	;r3 As==00
    8c70:	1a 24       	jz	$+54     	;abs 0x8ca6
    8c72:	30 40 a6 8d 	br	#0x8da6		;
    8c76:	0c 49       	mov	r9,	r12	;
    8c78:	3d 40 ff 7f 	mov	#32767,	r13	;#0x7fff
    8c7c:	0d 99       	cmp	r9,	r13	;
    8c7e:	01 2c       	jc	$+4      	;abs 0x8c82
    8c80:	0c 4d       	mov	r13,	r12	;
    8c82:	0d 48       	mov	r8,	r13	;
    8c84:	b0 12 16 51 	call	#20758		;#0x5116
    8c88:	0d 48       	mov	r8,	r13	;
    8c8a:	b0 12 68 52 	call	#21096		;#0x5268
    8c8e:	0f 4c       	mov	r12,	r15	;
    8c90:	0c 44       	mov	r4,	r12	;
    8c92:	1d 4a 12 00 	mov	18(r10),r13	;0x00012
    8c96:	0e 46       	mov	r6,	r14	;
    8c98:	18 4a 16 00 	mov	22(r10),r8	;0x00016
    8c9c:	88 12       	call	r8		;
    8c9e:	08 4c       	mov	r12,	r8	;
    8ca0:	0c 43       	clr	r12		;
    8ca2:	0c 98       	cmp	r8,	r12	;
    8ca4:	80 34       	jge	$+258    	;abs 0x8da6
    8ca6:	06 58       	add	r8,	r6	;
    8ca8:	09 88       	sub	r8,	r9	;
    8caa:	1d 41 04 00 	mov	4(r1),	r13	;
    8cae:	1c 4d 04 00 	mov	4(r13),	r12	;
    8cb2:	0c 88       	sub	r8,	r12	;
    8cb4:	8d 4c 04 00 	mov	r12,	4(r13)	;
    8cb8:	0c 93       	cmp	#0,	r12	;r3 As==00
    8cba:	3f 23       	jnz	$-384    	;abs 0x8b3a
    8cbc:	30 40 9a 8a 	br	#0x8a9a		;
    8cc0:	81 93 06 00 	cmp	#0,	6(r1)	;r3 As==00
    8cc4:	33 24       	jz	$+104    	;abs 0x8d2c
    8cc6:	0b 49       	mov	r9,	r11	;
    8cc8:	06 99       	cmp	r9,	r6	;
    8cca:	01 2c       	jc	$+4      	;abs 0x8cce
    8ccc:	0b 46       	mov	r6,	r11	;
    8cce:	18 4a 04 00 	mov	4(r10),	r8	;
    8cd2:	1f 4a 0c 00 	mov	12(r10),r15	;0x0000c
    8cd6:	2c 4a       	mov	@r10,	r12	;
    8cd8:	8a 9c 0a 00 	cmp	r12,	10(r10)	; 0x000a
    8cdc:	3c 2c       	jc	$+122    	;abs 0x8d56
    8cde:	08 5f       	add	r15,	r8	;
    8ce0:	08 9b       	cmp	r11,	r8	;
    8ce2:	39 34       	jge	$+116    	;abs 0x8d56
    8ce4:	0d 45       	mov	r5,	r13	;
    8ce6:	0e 48       	mov	r8,	r14	;
    8ce8:	b0 12 fe 8f 	call	#36862		;#0x8ffe
    8cec:	8a 58 00 00 	add	r8,	0(r10)	;
    8cf0:	0c 44       	mov	r4,	r12	;
    8cf2:	0d 4a       	mov	r10,	r13	;
    8cf4:	b0 12 7e 87 	call	#34686		;#0x877e
    8cf8:	0c 93       	cmp	#0,	r12	;r3 As==00
    8cfa:	55 20       	jnz	$+172    	;abs 0x8da6
    8cfc:	09 88       	sub	r8,	r9	;
    8cfe:	09 93       	cmp	#0,	r9	;r3 As==00
    8d00:	48 24       	jz	$+146    	;abs 0x8d92
    8d02:	05 58       	add	r8,	r5	;
    8d04:	06 88       	sub	r8,	r6	;
    8d06:	1d 41 04 00 	mov	4(r1),	r13	;
    8d0a:	1c 4d 04 00 	mov	4(r13),	r12	;
    8d0e:	0c 88       	sub	r8,	r12	;
    8d10:	8d 4c 04 00 	mov	r12,	4(r13)	;
    8d14:	0c 93       	cmp	#0,	r12	;r3 As==00
    8d16:	c1 26       	jz	$-636    	;abs 0x8a9a
    8d18:	06 93       	cmp	#0,	r6	;r3 As==00
    8d1a:	d2 23       	jnz	$-90     	;abs 0x8cc0
    8d1c:	25 47       	mov	@r7,	r5	;
    8d1e:	16 47 02 00 	mov	2(r7),	r6	;
    8d22:	27 52       	add	#4,	r7	;r2 As==10
    8d24:	81 43 06 00 	mov	#0,	6(r1)	;r3 As==00
    8d28:	30 40 18 8d 	br	#0x8d18		;
    8d2c:	0c 45       	mov	r5,	r12	;
    8d2e:	3d 40 0a 00 	mov	#10,	r13	;#0x000a
    8d32:	0e 46       	mov	r6,	r14	;
    8d34:	b0 12 e4 8f 	call	#36836		;#0x8fe4
    8d38:	0c 93       	cmp	#0,	r12	;r3 As==00
    8d3a:	07 24       	jz	$+16     	;abs 0x8d4a
    8d3c:	1c 53       	inc	r12		;
    8d3e:	09 4c       	mov	r12,	r9	;
    8d40:	09 85       	sub	r5,	r9	;
    8d42:	91 43 06 00 	mov	#1,	6(r1)	;r3 As==01
    8d46:	30 40 c6 8c 	br	#0x8cc6		;
    8d4a:	09 46       	mov	r6,	r9	;
    8d4c:	19 53       	inc	r9		;
    8d4e:	91 43 06 00 	mov	#1,	6(r1)	;r3 As==01
    8d52:	30 40 c6 8c 	br	#0x8cc6		;
    8d56:	0b 9f       	cmp	r15,	r11	;
    8d58:	0d 38       	jl	$+28     	;abs 0x8d74
    8d5a:	0c 44       	mov	r4,	r12	;
    8d5c:	1d 4a 12 00 	mov	18(r10),r13	;0x00012
    8d60:	0e 45       	mov	r5,	r14	;
    8d62:	18 4a 16 00 	mov	22(r10),r8	;0x00016
    8d66:	88 12       	call	r8		;
    8d68:	08 4c       	mov	r12,	r8	;
    8d6a:	0c 43       	clr	r12		;
    8d6c:	0c 98       	cmp	r8,	r12	;
    8d6e:	c6 3b       	jl	$-114    	;abs 0x8cfc
    8d70:	30 40 a6 8d 	br	#0x8da6		;
    8d74:	0d 45       	mov	r5,	r13	;
    8d76:	0e 4b       	mov	r11,	r14	;
    8d78:	81 4b 02 00 	mov	r11,	2(r1)	;
    8d7c:	b0 12 fe 8f 	call	#36862		;#0x8ffe
    8d80:	1b 41 02 00 	mov	2(r1),	r11	;
    8d84:	8a 8b 04 00 	sub	r11,	4(r10)	;
    8d88:	8a 5b 00 00 	add	r11,	0(r10)	;
    8d8c:	08 4b       	mov	r11,	r8	;
    8d8e:	30 40 fc 8c 	br	#0x8cfc		;
    8d92:	0c 44       	mov	r4,	r12	;
    8d94:	0d 4a       	mov	r10,	r13	;
    8d96:	b0 12 7e 87 	call	#34686		;#0x877e
    8d9a:	0c 93       	cmp	#0,	r12	;r3 As==00
    8d9c:	04 20       	jnz	$+10     	;abs 0x8da6
    8d9e:	81 49 06 00 	mov	r9,	6(r1)	;
    8da2:	30 40 02 8d 	br	#0x8d02		;
    8da6:	ba d0 40 00 	bis	#64,	6(r10)	;#0x0040
    8daa:	06 00 
    8dac:	3c 43       	mov	#-1,	r12	;r3 As==11
    8dae:	31 52       	add	#8,	r1	;r2 As==11
    8db0:	30 40 a4 51 	br	#0x51a4		;

00008db4 <_fwalk>:
    8db4:	0a 12       	push	r10		;
    8db6:	09 12       	push	r9		;
    8db8:	08 12       	push	r8		;
    8dba:	07 12       	push	r7		;
    8dbc:	06 12       	push	r6		;
    8dbe:	06 4d       	mov	r13,	r6	;
    8dc0:	0a 4c       	mov	r12,	r10	;
    8dc2:	3a 50 6c 00 	add	#108,	r10	;#0x006c
    8dc6:	08 43       	clr	r8		;
    8dc8:	0a 93       	cmp	#0,	r10	;r3 As==00
    8dca:	1b 24       	jz	$+56     	;abs 0x8e02
    8dcc:	17 4a 02 00 	mov	2(r10),	r7	;
    8dd0:	19 4a 04 00 	mov	4(r10),	r9	;
    8dd4:	39 50 06 00 	add	#6,	r9	;
    8dd8:	0c 49       	mov	r9,	r12	;
    8dda:	3c 50 fa ff 	add	#65530,	r12	;#0xfffa
    8dde:	37 53       	add	#-1,	r7	;r3 As==11
    8de0:	07 93       	cmp	#0,	r7	;r3 As==00
    8de2:	0c 38       	jl	$+26     	;abs 0x8dfc
    8de4:	1d 43       	mov	#1,	r13	;r3 As==01
    8de6:	2d 99       	cmp	@r9,	r13	;
    8de8:	05 2c       	jc	$+12     	;abs 0x8df4
    8dea:	b9 93 02 00 	cmp	#-1,	2(r9)	;r3 As==11
    8dee:	02 24       	jz	$+6      	;abs 0x8df4
    8df0:	86 12       	call	r6		;
    8df2:	08 dc       	bis	r12,	r8	;
    8df4:	39 50 3c 00 	add	#60,	r9	;#0x003c
    8df8:	30 40 d8 8d 	br	#0x8dd8		;
    8dfc:	2a 4a       	mov	@r10,	r10	;
    8dfe:	30 40 c8 8d 	br	#0x8dc8		;
    8e02:	0c 48       	mov	r8,	r12	;
    8e04:	30 40 a8 51 	br	#0x51a8		;

00008e08 <_fwalk_reent>:
    8e08:	0a 12       	push	r10		;
    8e0a:	09 12       	push	r9		;
    8e0c:	08 12       	push	r8		;
    8e0e:	07 12       	push	r7		;
    8e10:	06 12       	push	r6		;
    8e12:	05 12       	push	r5		;
    8e14:	06 4c       	mov	r12,	r6	;
    8e16:	05 4d       	mov	r13,	r5	;
    8e18:	0a 4c       	mov	r12,	r10	;
    8e1a:	3a 50 6c 00 	add	#108,	r10	;#0x006c
    8e1e:	08 43       	clr	r8		;
    8e20:	0a 93       	cmp	#0,	r10	;r3 As==00
    8e22:	1c 24       	jz	$+58     	;abs 0x8e5c
    8e24:	17 4a 02 00 	mov	2(r10),	r7	;
    8e28:	19 4a 04 00 	mov	4(r10),	r9	;
    8e2c:	39 50 06 00 	add	#6,	r9	;
    8e30:	0d 49       	mov	r9,	r13	;
    8e32:	3d 50 fa ff 	add	#65530,	r13	;#0xfffa
    8e36:	37 53       	add	#-1,	r7	;r3 As==11
    8e38:	07 93       	cmp	#0,	r7	;r3 As==00
    8e3a:	0d 38       	jl	$+28     	;abs 0x8e56
    8e3c:	1c 43       	mov	#1,	r12	;r3 As==01
    8e3e:	2c 99       	cmp	@r9,	r12	;
    8e40:	06 2c       	jc	$+14     	;abs 0x8e4e
    8e42:	b9 93 02 00 	cmp	#-1,	2(r9)	;r3 As==11
    8e46:	03 24       	jz	$+8      	;abs 0x8e4e
    8e48:	0c 46       	mov	r6,	r12	;
    8e4a:	85 12       	call	r5		;
    8e4c:	08 dc       	bis	r12,	r8	;
    8e4e:	39 50 3c 00 	add	#60,	r9	;#0x003c
    8e52:	30 40 30 8e 	br	#0x8e30		;
    8e56:	2a 4a       	mov	@r10,	r10	;
    8e58:	30 40 20 8e 	br	#0x8e20		;
    8e5c:	0c 48       	mov	r8,	r12	;
    8e5e:	30 40 a6 51 	br	#0x51a6		;

00008e62 <_setlocale_r>:
    8e62:	0a 12       	push	r10		;
    8e64:	09 12       	push	r9		;
    8e66:	0e 93       	cmp	#0,	r14	;r3 As==00
    8e68:	15 24       	jz	$+44     	;abs 0x8e94
    8e6a:	0a 4e       	mov	r14,	r10	;
    8e6c:	39 40 30 57 	mov	#22320,	r9	;#0x5730
    8e70:	0c 4e       	mov	r14,	r12	;
    8e72:	3d 40 ac 44 	mov	#17580,	r13	;#0x44ac
    8e76:	89 12       	call	r9		;
    8e78:	0c 93       	cmp	#0,	r12	;r3 As==00
    8e7a:	0c 24       	jz	$+26     	;abs 0x8e94
    8e7c:	0c 4a       	mov	r10,	r12	;
    8e7e:	3d 40 aa 44 	mov	#17578,	r13	;#0x44aa
    8e82:	89 12       	call	r9		;
    8e84:	0c 93       	cmp	#0,	r12	;r3 As==00
    8e86:	06 24       	jz	$+14     	;abs 0x8e94
    8e88:	0c 4a       	mov	r10,	r12	;
    8e8a:	3d 40 b2 44 	mov	#17586,	r13	;#0x44b2
    8e8e:	89 12       	call	r9		;
    8e90:	0c 93       	cmp	#0,	r12	;r3 As==00
    8e92:	04 20       	jnz	$+10     	;abs 0x8e9c
    8e94:	3c 40 aa 44 	mov	#17578,	r12	;#0x44aa
    8e98:	30 40 9e 8e 	br	#0x8e9e		;
    8e9c:	0c 43       	clr	r12		;
    8e9e:	30 40 ae 51 	br	#0x51ae		;

00008ea2 <__locale_charset>:
    8ea2:	3c 40 ba 02 	mov	#698,	r12	;#0x02ba
    8ea6:	30 41       	ret			

00008ea8 <__locale_mb_cur_max>:
    8ea8:	1c 42 fc 02 	mov	&0x02fc,r12	;0x02fc
    8eac:	30 41       	ret			

00008eae <__locale_msgcharset>:
    8eae:	3c 40 9a 02 	mov	#666,	r12	;#0x029a
    8eb2:	30 41       	ret			

00008eb4 <__locale_cjk_lang>:
    8eb4:	0c 43       	clr	r12		;
    8eb6:	30 41       	ret			

00008eb8 <_localeconv_r>:
    8eb8:	3c 40 da 02 	mov	#730,	r12	;#0x02da
    8ebc:	30 41       	ret			

00008ebe <setlocale>:
    8ebe:	0f 4c       	mov	r12,	r15	;
    8ec0:	0e 4d       	mov	r13,	r14	;
    8ec2:	1c 42 20 02 	mov	&0x0220,r12	;0x0220
    8ec6:	0d 4f       	mov	r15,	r13	;
    8ec8:	b0 12 62 8e 	call	#36450		;#0x8e62
    8ecc:	30 41       	ret			

00008ece <localeconv>:
    8ece:	3c 40 da 02 	mov	#730,	r12	;#0x02da
    8ed2:	30 41       	ret			

00008ed4 <__smakebuf_r>:
    8ed4:	0a 12       	push	r10		;
    8ed6:	09 12       	push	r9		;
    8ed8:	08 12       	push	r8		;
    8eda:	07 12       	push	r7		;
    8edc:	31 80 3c 00 	sub	#60,	r1	;#0x003c
    8ee0:	09 4c       	mov	r12,	r9	;
    8ee2:	17 4d 06 00 	mov	6(r13),	r7	;
    8ee6:	27 f3       	and	#2,	r7	;r3 As==10
    8ee8:	07 93       	cmp	#0,	r7	;r3 As==00
    8eea:	0b 24       	jz	$+24     	;abs 0x8f02
    8eec:	0c 4d       	mov	r13,	r12	;
    8eee:	3c 50 27 00 	add	#39,	r12	;#0x0027
    8ef2:	8d 4c 00 00 	mov	r12,	0(r13)	;
    8ef6:	8d 4c 0a 00 	mov	r12,	10(r13)	; 0x000a
    8efa:	9d 43 0c 00 	mov	#1,	12(r13)	;r3 As==01, 0x000c
    8efe:	30 40 dc 8f 	br	#0x8fdc		;
    8f02:	0a 4d       	mov	r13,	r10	;
    8f04:	1d 4d 08 00 	mov	8(r13),	r13	;
    8f08:	0d 93       	cmp	#0,	r13	;r3 As==00
    8f0a:	09 34       	jge	$+20     	;abs 0x8f1e
    8f0c:	1c 4a 06 00 	mov	6(r10),	r12	;
    8f10:	3c b0 80 00 	bit	#128,	r12	;#0x0080
    8f14:	0b 20       	jnz	$+24     	;abs 0x8f2c
    8f16:	37 40 00 04 	mov	#1024,	r7	;#0x0400
    8f1a:	30 40 30 8f 	br	#0x8f30		;
    8f1e:	0e 41       	mov	r1,	r14	;
    8f20:	b0 12 a2 b2 	call	#45730		;#0xb2a2
    8f24:	0c 93       	cmp	#0,	r12	;r3 As==00
    8f26:	0b 34       	jge	$+24     	;abs 0x8f3e
    8f28:	30 40 0c 8f 	br	#0x8f0c		;
    8f2c:	37 40 40 00 	mov	#64,	r7	;#0x0040
    8f30:	3c d0 00 08 	bis	#2048,	r12	;#0x0800
    8f34:	8a 4c 06 00 	mov	r12,	6(r10)	;
    8f38:	08 43       	clr	r8		;
    8f3a:	30 40 7c 8f 	br	#0x8f7c		;
    8f3e:	1c 41 04 00 	mov	4(r1),	r12	;
    8f42:	3c f0 00 f0 	and	#61440,	r12	;#0xf000
    8f46:	18 43       	mov	#1,	r8	;r3 As==01
    8f48:	3c 90 00 20 	cmp	#8192,	r12	;#0x2000
    8f4c:	01 24       	jz	$+4      	;abs 0x8f50
    8f4e:	08 47       	mov	r7,	r8	;
    8f50:	3c 90 00 80 	cmp	#32768,	r12	;#0x8000
    8f54:	0e 20       	jnz	$+30     	;abs 0x8f72
    8f56:	ba 90 7e a3 	cmp	#41854,	24(r10)	;#0xa37e, 0x0018
    8f5a:	18 00 
    8f5c:	0a 20       	jnz	$+22     	;abs 0x8f72
    8f5e:	ba d0 00 04 	bis	#1024,	6(r10)	;#0x0400
    8f62:	06 00 
    8f64:	ba 40 00 04 	mov	#1024,	44(r10)	;#0x0400, 0x002c
    8f68:	2c 00 
    8f6a:	37 40 00 04 	mov	#1024,	r7	;#0x0400
    8f6e:	30 40 7c 8f 	br	#0x8f7c		;
    8f72:	ba d0 00 08 	bis	#2048,	6(r10)	;#0x0800
    8f76:	06 00 
    8f78:	37 40 00 04 	mov	#1024,	r7	;#0x0400
    8f7c:	0c 49       	mov	r9,	r12	;
    8f7e:	0d 47       	mov	r7,	r13	;
    8f80:	b0 12 30 55 	call	#21808		;#0x5530
    8f84:	0c 93       	cmp	#0,	r12	;r3 As==00
    8f86:	13 20       	jnz	$+40     	;abs 0x8fae
    8f88:	1c 4a 06 00 	mov	6(r10),	r12	;
    8f8c:	3c b0 00 02 	bit	#512,	r12	;#0x0200
    8f90:	25 20       	jnz	$+76     	;abs 0x8fdc
    8f92:	2c d3       	bis	#2,	r12	;r3 As==10
    8f94:	8a 4c 06 00 	mov	r12,	6(r10)	;
    8f98:	0c 4a       	mov	r10,	r12	;
    8f9a:	3c 50 27 00 	add	#39,	r12	;#0x0027
    8f9e:	8a 4c 00 00 	mov	r12,	0(r10)	;
    8fa2:	8a 4c 0a 00 	mov	r12,	10(r10)	; 0x000a
    8fa6:	9a 43 0c 00 	mov	#1,	12(r10)	;r3 As==01, 0x000c
    8faa:	30 40 dc 8f 	br	#0x8fdc		;
    8fae:	b9 40 04 88 	mov	#34820,	20(r9)	;#0x8804, 0x0014
    8fb2:	14 00 
    8fb4:	ba d0 80 00 	bis	#128,	6(r10)	;#0x0080
    8fb8:	06 00 
    8fba:	8a 4c 00 00 	mov	r12,	0(r10)	;
    8fbe:	8a 4c 0a 00 	mov	r12,	10(r10)	; 0x000a
    8fc2:	8a 47 0c 00 	mov	r7,	12(r10)	; 0x000c
    8fc6:	08 93       	cmp	#0,	r8	;r3 As==00
    8fc8:	09 24       	jz	$+20     	;abs 0x8fdc
    8fca:	0c 49       	mov	r9,	r12	;
    8fcc:	1d 4a 08 00 	mov	8(r10),	r13	;
    8fd0:	b0 12 c6 b2 	call	#45766		;#0xb2c6
    8fd4:	0c 93       	cmp	#0,	r12	;r3 As==00
    8fd6:	02 24       	jz	$+6      	;abs 0x8fdc
    8fd8:	9a d3 06 00 	bis	#1,	6(r10)	;r3 As==01
    8fdc:	31 50 3c 00 	add	#60,	r1	;#0x003c
    8fe0:	30 40 aa 51 	br	#0x51aa		;

00008fe4 <memchr>:
    8fe4:	3d f0 ff 00 	and	#255,	r13	;#0x00ff
    8fe8:	0e 5c       	add	r12,	r14	;
    8fea:	0c 9e       	cmp	r14,	r12	;
    8fec:	06 24       	jz	$+14     	;abs 0x8ffa
    8fee:	cc 9d 00 00 	cmp.b	r13,	0(r12)	;
    8ff2:	04 24       	jz	$+10     	;abs 0x8ffc
    8ff4:	1c 53       	inc	r12		;
    8ff6:	30 40 ea 8f 	br	#0x8fea		;
    8ffa:	0c 43       	clr	r12		;
    8ffc:	30 41       	ret			

00008ffe <memmove>:
    8ffe:	0a 12       	push	r10		;
    9000:	0d 9c       	cmp	r12,	r13	;
    9002:	11 2c       	jc	$+36     	;abs 0x9026
    9004:	0b 4d       	mov	r13,	r11	;
    9006:	0b 5e       	add	r14,	r11	;
    9008:	0c 9b       	cmp	r11,	r12	;
    900a:	0d 2c       	jc	$+28     	;abs 0x9026
    900c:	0d 4e       	mov	r14,	r13	;
    900e:	3d 53       	add	#-1,	r13	;r3 As==11
    9010:	3d 93       	cmp	#-1,	r13	;r3 As==11
    9012:	15 24       	jz	$+44     	;abs 0x903e
    9014:	0f 4d       	mov	r13,	r15	;
    9016:	0f 8e       	sub	r14,	r15	;
    9018:	0f 5b       	add	r11,	r15	;
    901a:	0a 4c       	mov	r12,	r10	;
    901c:	0a 5d       	add	r13,	r10	;
    901e:	ea 4f 00 00 	mov.b	@r15,	0(r10)	;
    9022:	30 40 0e 90 	br	#0x900e		;
    9026:	0f 43       	clr	r15		;
    9028:	0f 9e       	cmp	r14,	r15	;
    902a:	09 24       	jz	$+20     	;abs 0x903e
    902c:	0a 4d       	mov	r13,	r10	;
    902e:	0a 5f       	add	r15,	r10	;
    9030:	0b 4c       	mov	r12,	r11	;
    9032:	0b 5f       	add	r15,	r11	;
    9034:	eb 4a 00 00 	mov.b	@r10,	0(r11)	;
    9038:	1f 53       	inc	r15		;
    903a:	30 40 28 90 	br	#0x9028		;
    903e:	3a 41       	pop	r10		;
    9040:	30 41       	ret			

00009042 <memset>:
    9042:	0f 4c       	mov	r12,	r15	;
    9044:	0e 5c       	add	r12,	r14	;
    9046:	0f 9e       	cmp	r14,	r15	;
    9048:	05 24       	jz	$+12     	;abs 0x9054
    904a:	cf 4d 00 00 	mov.b	r13,	0(r15)	;
    904e:	1f 53       	inc	r15		;
    9050:	30 40 46 90 	br	#0x9046		;
    9054:	30 41       	ret			

00009056 <_Balloc>:
    9056:	0a 12       	push	r10		;
    9058:	09 12       	push	r9		;
    905a:	08 12       	push	r8		;
    905c:	0a 4c       	mov	r12,	r10	;
    905e:	09 4d       	mov	r13,	r9	;
    9060:	8c 93 12 00 	cmp	#0,	18(r12)	;r3 As==00, 0x0012
    9064:	0d 20       	jnz	$+28     	;abs 0x9080
    9066:	3c 42       	mov	#8,	r12	;r2 As==11
    9068:	b0 12 00 54 	call	#21504		;#0x5400
    906c:	8a 4c 12 00 	mov	r12,	18(r10)	; 0x0012
    9070:	8c 43 02 00 	mov	#0,	2(r12)	;r3 As==00
    9074:	8c 43 04 00 	mov	#0,	4(r12)	;r3 As==00
    9078:	8c 43 00 00 	mov	#0,	0(r12)	;r3 As==00
    907c:	8c 43 06 00 	mov	#0,	6(r12)	;r3 As==00
    9080:	18 4a 12 00 	mov	18(r10),r8	;0x00012
    9084:	88 93 06 00 	cmp	#0,	6(r8)	;r3 As==00
    9088:	0d 24       	jz	$+28     	;abs 0x90a4
    908a:	1d 4a 12 00 	mov	18(r10),r13	;0x00012
    908e:	0c 49       	mov	r9,	r12	;
    9090:	0c 59       	add	r9,	r12	;
    9092:	1c 5d 06 00 	add	6(r13),	r12	;
    9096:	2e 4c       	mov	@r12,	r14	;
    9098:	0e 93       	cmp	#0,	r14	;r3 As==00
    909a:	14 24       	jz	$+42     	;abs 0x90c4
    909c:	ac 4e 00 00 	mov	@r14,	0(r12)	;
    90a0:	30 40 f0 90 	br	#0x90f0		;
    90a4:	0c 4a       	mov	r10,	r12	;
    90a6:	2d 43       	mov	#2,	r13	;r3 As==10
    90a8:	3e 40 11 00 	mov	#17,	r14	;#0x0011
    90ac:	b0 12 c8 a0 	call	#41160		;#0xa0c8
    90b0:	88 4c 06 00 	mov	r12,	6(r8)	;
    90b4:	1c 4a 12 00 	mov	18(r10),r12	;0x00012
    90b8:	8c 93 06 00 	cmp	#0,	6(r12)	;r3 As==00
    90bc:	e6 23       	jnz	$-50     	;abs 0x908a
    90be:	0c 43       	clr	r12		;
    90c0:	30 40 fa 90 	br	#0x90fa		;
    90c4:	1c 43       	mov	#1,	r12	;r3 As==01
    90c6:	0d 49       	mov	r9,	r13	;
    90c8:	b0 12 6a c9 	call	#51562		;#0xc96a
    90cc:	08 4c       	mov	r12,	r8	;
    90ce:	0e 4c       	mov	r12,	r14	;
    90d0:	3e 53       	add	#-1,	r14	;r3 As==11
    90d2:	0e 5e       	rla	r14		;
    90d4:	0e 5e       	rla	r14		;
    90d6:	0c 4a       	mov	r10,	r12	;
    90d8:	1d 43       	mov	#1,	r13	;r3 As==01
    90da:	3e 50 0e 00 	add	#14,	r14	;#0x000e
    90de:	b0 12 c8 a0 	call	#41160		;#0xa0c8
    90e2:	0e 4c       	mov	r12,	r14	;
    90e4:	0c 93       	cmp	#0,	r12	;r3 As==00
    90e6:	eb 27       	jz	$-40     	;abs 0x90be
    90e8:	8c 49 02 00 	mov	r9,	2(r12)	;
    90ec:	8c 48 04 00 	mov	r8,	4(r12)	;
    90f0:	8e 43 08 00 	mov	#0,	8(r14)	;r3 As==00
    90f4:	8e 43 06 00 	mov	#0,	6(r14)	;r3 As==00
    90f8:	0c 4e       	mov	r14,	r12	;
    90fa:	30 40 ac 51 	br	#0x51ac		;

000090fe <_Bfree>:
    90fe:	0a 12       	push	r10		;
    9100:	09 12       	push	r9		;
    9102:	09 4c       	mov	r12,	r9	;
    9104:	0a 4d       	mov	r13,	r10	;
    9106:	8c 93 12 00 	cmp	#0,	18(r12)	;r3 As==00, 0x0012
    910a:	0d 20       	jnz	$+28     	;abs 0x9126
    910c:	3c 42       	mov	#8,	r12	;r2 As==11
    910e:	b0 12 00 54 	call	#21504		;#0x5400
    9112:	89 4c 12 00 	mov	r12,	18(r9)	; 0x0012
    9116:	8c 43 02 00 	mov	#0,	2(r12)	;r3 As==00
    911a:	8c 43 04 00 	mov	#0,	4(r12)	;r3 As==00
    911e:	8c 43 00 00 	mov	#0,	0(r12)	;r3 As==00
    9122:	8c 43 06 00 	mov	#0,	6(r12)	;r3 As==00
    9126:	0a 93       	cmp	#0,	r10	;r3 As==00
    9128:	0b 24       	jz	$+24     	;abs 0x9140
    912a:	1d 49 12 00 	mov	18(r9),	r13	;0x00012
    912e:	1c 4a 02 00 	mov	2(r10),	r12	;
    9132:	0c 5c       	rla	r12		;
    9134:	1c 5d 06 00 	add	6(r13),	r12	;
    9138:	aa 4c 00 00 	mov	@r12,	0(r10)	;
    913c:	8c 4a 00 00 	mov	r10,	0(r12)	;
    9140:	30 40 ae 51 	br	#0x51ae		;

00009144 <__multadd>:
    9144:	0a 12       	push	r10		;
    9146:	09 12       	push	r9		;
    9148:	08 12       	push	r8		;
    914a:	07 12       	push	r7		;
    914c:	06 12       	push	r6		;
    914e:	05 12       	push	r5		;
    9150:	04 12       	push	r4		;
    9152:	31 80 0a 00 	sub	#10,	r1	;#0x000a
    9156:	81 4c 00 00 	mov	r12,	0(r1)	;
    915a:	0a 4d       	mov	r13,	r10	;
    915c:	07 4f       	mov	r15,	r7	;
    915e:	18 4d 08 00 	mov	8(r13),	r8	;
    9162:	09 4d       	mov	r13,	r9	;
    9164:	39 50 0a 00 	add	#10,	r9	;#0x000a
    9168:	05 43       	clr	r5		;
    916a:	0c 4e       	mov	r14,	r12	;
    916c:	3c b0 00 80 	bit	#32768,	r12	;#0x8000
    9170:	0d 7d       	subc	r13,	r13	;
    9172:	3d e3       	inv	r13		;
    9174:	81 4c 02 00 	mov	r12,	2(r1)	;
    9178:	81 4d 04 00 	mov	r13,	4(r1)	;
    917c:	26 49       	mov	@r9,	r6	;
    917e:	14 49 02 00 	mov	2(r9),	r4	;
    9182:	0c 46       	mov	r6,	r12	;
    9184:	0d 43       	clr	r13		;
    9186:	1e 41 02 00 	mov	2(r1),	r14	;
    918a:	1f 41 04 00 	mov	4(r1),	r15	;
    918e:	b0 12 ac 52 	call	#21164		;#0x52ac
    9192:	0e 47       	mov	r7,	r14	;
    9194:	3e b0 00 80 	bit	#32768,	r14	;#0x8000
    9198:	0f 7f       	subc	r15,	r15	;
    919a:	3f e3       	inv	r15		;
    919c:	0c 5e       	add	r14,	r12	;
    919e:	81 4c 06 00 	mov	r12,	6(r1)	;
    91a2:	0d 6f       	addc	r15,	r13	;
    91a4:	3e 40 10 00 	mov	#16,	r14	;#0x0010
    91a8:	b0 12 62 52 	call	#21090		;#0x5262
    91ac:	07 4c       	mov	r12,	r7	;
    91ae:	81 4d 08 00 	mov	r13,	8(r1)	;
    91b2:	0c 46       	mov	r6,	r12	;
    91b4:	0d 44       	mov	r4,	r13	;
    91b6:	3e 40 10 00 	mov	#16,	r14	;#0x0010
    91ba:	b0 12 62 52 	call	#21090		;#0x5262
    91be:	1e 41 02 00 	mov	2(r1),	r14	;
    91c2:	1f 41 04 00 	mov	4(r1),	r15	;
    91c6:	b0 12 ac 52 	call	#21164		;#0x52ac
    91ca:	04 47       	mov	r7,	r4	;
    91cc:	04 5c       	add	r12,	r4	;
    91ce:	16 41 08 00 	mov	8(r1),	r6	;
    91d2:	06 6d       	addc	r13,	r6	;
    91d4:	0c 44       	mov	r4,	r12	;
    91d6:	0d 46       	mov	r6,	r13	;
    91d8:	3e 40 10 00 	mov	#16,	r14	;#0x0010
    91dc:	b0 12 62 52 	call	#21090		;#0x5262
    91e0:	07 4c       	mov	r12,	r7	;
    91e2:	0c 44       	mov	r4,	r12	;
    91e4:	0d 46       	mov	r6,	r13	;
    91e6:	3e 40 10 00 	mov	#16,	r14	;#0x0010
    91ea:	b0 12 b4 c9 	call	#51636		;#0xc9b4
    91ee:	1e 41 06 00 	mov	6(r1),	r14	;
    91f2:	0c 5e       	add	r14,	r12	;
    91f4:	89 4c 00 00 	mov	r12,	0(r9)	;
    91f8:	0c 43       	clr	r12		;
    91fa:	0d 6c       	addc	r12,	r13	;
    91fc:	89 4d 02 00 	mov	r13,	2(r9)	;
    9200:	15 53       	inc	r5		;
    9202:	29 52       	add	#4,	r9	;r2 As==10
    9204:	05 98       	cmp	r8,	r5	;
    9206:	ba 3b       	jl	$-138    	;abs 0x917c
    9208:	07 9c       	cmp	r12,	r7	;
    920a:	2b 24       	jz	$+88     	;abs 0x9262
    920c:	18 9a 04 00 	cmp	4(r10),	r8	;
    9210:	18 38       	jl	$+50     	;abs 0x9242
    9212:	2c 41       	mov	@r1,	r12	;
    9214:	1d 4a 02 00 	mov	2(r10),	r13	;
    9218:	1d 53       	inc	r13		;
    921a:	b0 12 56 90 	call	#36950		;#0x9056
    921e:	09 4c       	mov	r12,	r9	;
    9220:	1e 4a 08 00 	mov	8(r10),	r14	;
    9224:	1e 53       	inc	r14		;
    9226:	0e 5e       	rla	r14		;
    9228:	3c 50 06 00 	add	#6,	r12	;
    922c:	0d 4a       	mov	r10,	r13	;
    922e:	3d 50 06 00 	add	#6,	r13	;
    9232:	0e 5e       	rla	r14		;
    9234:	b0 12 18 54 	call	#21528		;#0x5418
    9238:	2c 41       	mov	@r1,	r12	;
    923a:	0d 4a       	mov	r10,	r13	;
    923c:	b0 12 fe 90 	call	#37118		;#0x90fe
    9240:	0a 49       	mov	r9,	r10	;
    9242:	0c 48       	mov	r8,	r12	;
    9244:	0c 58       	add	r8,	r12	;
    9246:	0c 5c       	rla	r12		;
    9248:	0c 5a       	add	r10,	r12	;
    924a:	0d 47       	mov	r7,	r13	;
    924c:	3d b0 00 80 	bit	#32768,	r13	;#0x8000
    9250:	0e 7e       	subc	r14,	r14	;
    9252:	3e e3       	inv	r14		;
    9254:	8c 4d 0a 00 	mov	r13,	10(r12)	; 0x000a
    9258:	8c 4e 0c 00 	mov	r14,	12(r12)	; 0x000c
    925c:	18 53       	inc	r8		;
    925e:	8a 48 08 00 	mov	r8,	8(r10)	;
    9262:	0c 4a       	mov	r10,	r12	;
    9264:	31 50 0a 00 	add	#10,	r1	;#0x000a
    9268:	30 40 a4 51 	br	#0x51a4		;

0000926c <__s2b>:
    926c:	0a 12       	push	r10		;
    926e:	09 12       	push	r9		;
    9270:	08 12       	push	r8		;
    9272:	07 12       	push	r7		;
    9274:	06 12       	push	r6		;
    9276:	05 12       	push	r5		;
    9278:	04 12       	push	r4		;
    927a:	07 4c       	mov	r12,	r7	;
    927c:	0a 4d       	mov	r13,	r10	;
    927e:	08 4e       	mov	r14,	r8	;
    9280:	06 4f       	mov	r15,	r6	;
    9282:	0c 4f       	mov	r15,	r12	;
    9284:	3c 52       	add	#8,	r12	;r2 As==11
    9286:	3d 40 09 00 	mov	#9,	r13	;
    928a:	b0 12 16 51 	call	#20758		;#0x5116
    928e:	3c b0 00 80 	bit	#32768,	r12	;#0x8000
    9292:	0d 7d       	subc	r13,	r13	;
    9294:	3d e3       	inv	r13		;
    9296:	1e 43       	mov	#1,	r14	;r3 As==01
    9298:	0f 43       	clr	r15		;
    929a:	09 43       	clr	r9		;
    929c:	0b 4d       	mov	r13,	r11	;
    929e:	0f 9d       	cmp	r13,	r15	;
    92a0:	09 34       	jge	$+20     	;abs 0x92b4
    92a2:	04 4e       	mov	r14,	r4	;
    92a4:	05 4f       	mov	r15,	r5	;
    92a6:	04 5e       	add	r14,	r4	;
    92a8:	05 6f       	addc	r15,	r5	;
    92aa:	0e 44       	mov	r4,	r14	;
    92ac:	0f 45       	mov	r5,	r15	;
    92ae:	19 53       	inc	r9		;
    92b0:	30 40 9e 92 	br	#0x929e		;
    92b4:	0b 9f       	cmp	r15,	r11	;
    92b6:	02 20       	jnz	$+6      	;abs 0x92bc
    92b8:	0e 9c       	cmp	r12,	r14	;
    92ba:	f3 2b       	jnc	$-24     	;abs 0x92a2
    92bc:	0c 47       	mov	r7,	r12	;
    92be:	0d 49       	mov	r9,	r13	;
    92c0:	b0 12 56 90 	call	#36950		;#0x9056
    92c4:	0d 4c       	mov	r12,	r13	;
    92c6:	9c 41 10 00 	mov	16(r1),	10(r12)	;0x00010, 0x000a
    92ca:	0a 00 
    92cc:	9c 41 12 00 	mov	18(r1),	12(r12)	;0x00012, 0x000c
    92d0:	0c 00 
    92d2:	9c 43 08 00 	mov	#1,	8(r12)	;r3 As==01
    92d6:	35 40 09 00 	mov	#9,	r5	;
    92da:	05 98       	cmp	r8,	r5	;
    92dc:	17 34       	jge	$+48     	;abs 0x930c
    92de:	09 4a       	mov	r10,	r9	;
    92e0:	09 55       	add	r5,	r9	;
    92e2:	04 49       	mov	r9,	r4	;
    92e4:	0a 58       	add	r8,	r10	;
    92e6:	35 40 44 91 	mov	#37188,	r5	;#0x9144
    92ea:	6f 44       	mov.b	@r4,	r15	;
    92ec:	0c 47       	mov	r7,	r12	;
    92ee:	3e 40 0a 00 	mov	#10,	r14	;#0x000a
    92f2:	3f 50 d0 ff 	add	#65488,	r15	;#0xffd0
    92f6:	85 12       	call	r5		;
    92f8:	0d 4c       	mov	r12,	r13	;
    92fa:	14 53       	inc	r4		;
    92fc:	04 9a       	cmp	r10,	r4	;
    92fe:	f5 23       	jnz	$-20     	;abs 0x92ea
    9300:	0a 49       	mov	r9,	r10	;
    9302:	0a 58       	add	r8,	r10	;
    9304:	3a 50 f8 ff 	add	#65528,	r10	;#0xfff8
    9308:	30 40 14 93 	br	#0x9314		;
    930c:	3a 50 0a 00 	add	#10,	r10	;#0x000a
    9310:	38 40 09 00 	mov	#9,	r8	;
    9314:	09 48       	mov	r8,	r9	;
    9316:	35 40 44 91 	mov	#37188,	r5	;#0x9144
    931a:	09 96       	cmp	r6,	r9	;
    931c:	0e 34       	jge	$+30     	;abs 0x933a
    931e:	0c 49       	mov	r9,	r12	;
    9320:	0c 88       	sub	r8,	r12	;
    9322:	0c 5a       	add	r10,	r12	;
    9324:	6f 4c       	mov.b	@r12,	r15	;
    9326:	0c 47       	mov	r7,	r12	;
    9328:	3e 40 0a 00 	mov	#10,	r14	;#0x000a
    932c:	3f 50 d0 ff 	add	#65488,	r15	;#0xffd0
    9330:	85 12       	call	r5		;
    9332:	0d 4c       	mov	r12,	r13	;
    9334:	19 53       	inc	r9		;
    9336:	30 40 1a 93 	br	#0x931a		;
    933a:	0c 4d       	mov	r13,	r12	;
    933c:	30 40 a4 51 	br	#0x51a4		;

00009340 <__hi0bits>:
    9340:	0e 4c       	mov	r12,	r14	;
    9342:	0f 4d       	mov	r13,	r15	;
    9344:	0d 93       	cmp	#0,	r13	;r3 As==00
    9346:	0a 20       	jnz	$+22     	;abs 0x935c
    9348:	3e 40 10 00 	mov	#16,	r14	;#0x0010
    934c:	b0 12 b4 c9 	call	#51636		;#0xc9b4
    9350:	0e 4c       	mov	r12,	r14	;
    9352:	0f 4d       	mov	r13,	r15	;
    9354:	3c 40 10 00 	mov	#16,	r12	;#0x0010
    9358:	30 40 5e 93 	br	#0x935e		;
    935c:	0c 43       	clr	r12		;
    935e:	3f b0 00 ff 	bit	#65280,	r15	;#0xff00
    9362:	11 20       	jnz	$+36     	;abs 0x9386
    9364:	3c 52       	add	#8,	r12	;r2 As==11
    9366:	0e 5e       	rla	r14		;
    9368:	0f 6f       	rlc	r15		;
    936a:	0e 5e       	rla	r14		;
    936c:	0f 6f       	rlc	r15		;
    936e:	0e 5e       	rla	r14		;
    9370:	0f 6f       	rlc	r15		;
    9372:	0e 5e       	rla	r14		;
    9374:	0f 6f       	rlc	r15		;
    9376:	0e 5e       	rla	r14		;
    9378:	0f 6f       	rlc	r15		;
    937a:	0e 5e       	rla	r14		;
    937c:	0f 6f       	rlc	r15		;
    937e:	0e 5e       	rla	r14		;
    9380:	0f 6f       	rlc	r15		;
    9382:	0e 5e       	rla	r14		;
    9384:	0f 6f       	rlc	r15		;
    9386:	3f b0 00 f0 	bit	#61440,	r15	;#0xf000
    938a:	09 20       	jnz	$+20     	;abs 0x939e
    938c:	2c 52       	add	#4,	r12	;r2 As==10
    938e:	0e 5e       	rla	r14		;
    9390:	0f 6f       	rlc	r15		;
    9392:	0e 5e       	rla	r14		;
    9394:	0f 6f       	rlc	r15		;
    9396:	0e 5e       	rla	r14		;
    9398:	0f 6f       	rlc	r15		;
    939a:	0e 5e       	rla	r14		;
    939c:	0f 6f       	rlc	r15		;
    939e:	3f b0 00 c0 	bit	#49152,	r15	;#0xc000
    93a2:	05 20       	jnz	$+12     	;abs 0x93ae
    93a4:	2c 53       	incd	r12		;
    93a6:	0e 5e       	rla	r14		;
    93a8:	0f 6f       	rlc	r15		;
    93aa:	0e 5e       	rla	r14		;
    93ac:	0f 6f       	rlc	r15		;
    93ae:	0f 93       	cmp	#0,	r15	;r3 As==00
    93b0:	08 38       	jl	$+18     	;abs 0x93c2
    93b2:	3f b0 00 40 	bit	#16384,	r15	;#0x4000
    93b6:	03 24       	jz	$+8      	;abs 0x93be
    93b8:	1c 53       	inc	r12		;
    93ba:	30 40 c2 93 	br	#0x93c2		;
    93be:	3c 40 20 00 	mov	#32,	r12	;#0x0020
    93c2:	30 41       	ret			

000093c4 <__lo0bits>:
    93c4:	0a 12       	push	r10		;
    93c6:	09 12       	push	r9		;
    93c8:	09 4c       	mov	r12,	r9	;
    93ca:	2c 4c       	mov	@r12,	r12	;
    93cc:	1d 49 02 00 	mov	2(r9),	r13	;
    93d0:	0a 4c       	mov	r12,	r10	;
    93d2:	3a f0 07 00 	and	#7,	r10	;
    93d6:	0e 4c       	mov	r12,	r14	;
    93d8:	0a 93       	cmp	#0,	r10	;r3 As==00
    93da:	1c 24       	jz	$+58     	;abs 0x9414
    93dc:	1e f3       	and	#1,	r14	;r3 As==01
    93de:	0e 93       	cmp	#0,	r14	;r3 As==00
    93e0:	49 20       	jnz	$+148    	;abs 0x9474
    93e2:	0e 4c       	mov	r12,	r14	;
    93e4:	2e f3       	and	#2,	r14	;r3 As==10
    93e6:	0e 93       	cmp	#0,	r14	;r3 As==00
    93e8:	0c 24       	jz	$+26     	;abs 0x9402
    93ea:	0e 4c       	mov	r12,	r14	;
    93ec:	0f 4d       	mov	r13,	r15	;
    93ee:	12 c3       	clrc			
    93f0:	0f 10       	rrc	r15		;
    93f2:	0e 10       	rrc	r14		;
    93f4:	89 4e 00 00 	mov	r14,	0(r9)	;
    93f8:	89 4f 02 00 	mov	r15,	2(r9)	;
    93fc:	1c 43       	mov	#1,	r12	;r3 As==01
    93fe:	30 40 7e 94 	br	#0x947e		;
    9402:	b0 12 4c 52 	call	#21068		;#0x524c
    9406:	89 4c 00 00 	mov	r12,	0(r9)	;
    940a:	89 4d 02 00 	mov	r13,	2(r9)	;
    940e:	2c 43       	mov	#2,	r12	;r3 As==10
    9410:	30 40 7e 94 	br	#0x947e		;
    9414:	0c 93       	cmp	#0,	r12	;r3 As==00
    9416:	06 20       	jnz	$+14     	;abs 0x9424
    9418:	3e 40 10 00 	mov	#16,	r14	;#0x0010
    941c:	b0 12 62 52 	call	#21090		;#0x5262
    9420:	3a 40 10 00 	mov	#16,	r10	;#0x0010
    9424:	4c 93       	cmp.b	#0,	r12	;r3 As==00
    9426:	03 20       	jnz	$+8      	;abs 0x942e
    9428:	3a 52       	add	#8,	r10	;r2 As==11
    942a:	b0 12 28 52 	call	#21032		;#0x5228
    942e:	0e 4c       	mov	r12,	r14	;
    9430:	3e f0 0f 00 	and	#15,	r14	;#0x000f
    9434:	0e 93       	cmp	#0,	r14	;r3 As==00
    9436:	03 20       	jnz	$+8      	;abs 0x943e
    9438:	2a 52       	add	#4,	r10	;r2 As==10
    943a:	b0 12 40 52 	call	#21056		;#0x5240
    943e:	0e 4c       	mov	r12,	r14	;
    9440:	3e f0 03 00 	and	#3,	r14	;
    9444:	0e 93       	cmp	#0,	r14	;r3 As==00
    9446:	03 20       	jnz	$+8      	;abs 0x944e
    9448:	2a 53       	incd	r10		;
    944a:	b0 12 4c 52 	call	#21068		;#0x524c
    944e:	0e 4c       	mov	r12,	r14	;
    9450:	1e f3       	and	#1,	r14	;r3 As==01
    9452:	0e 93       	cmp	#0,	r14	;r3 As==00
    9454:	08 20       	jnz	$+18     	;abs 0x9466
    9456:	12 c3       	clrc			
    9458:	0d 10       	rrc	r13		;
    945a:	0c 10       	rrc	r12		;
    945c:	0e 4c       	mov	r12,	r14	;
    945e:	0e dd       	bis	r13,	r14	;
    9460:	0e 93       	cmp	#0,	r14	;r3 As==00
    9462:	0b 24       	jz	$+24     	;abs 0x947a
    9464:	1a 53       	inc	r10		;
    9466:	89 4c 00 00 	mov	r12,	0(r9)	;
    946a:	89 4d 02 00 	mov	r13,	2(r9)	;
    946e:	0c 4a       	mov	r10,	r12	;
    9470:	30 40 7e 94 	br	#0x947e		;
    9474:	0c 43       	clr	r12		;
    9476:	30 40 7e 94 	br	#0x947e		;
    947a:	3c 40 20 00 	mov	#32,	r12	;#0x0020
    947e:	30 40 ae 51 	br	#0x51ae		;

00009482 <__i2b>:
    9482:	0a 12       	push	r10		;
    9484:	09 12       	push	r9		;
    9486:	08 12       	push	r8		;
    9488:	0a 4d       	mov	r13,	r10	;
    948a:	1d 43       	mov	#1,	r13	;r3 As==01
    948c:	b0 12 56 90 	call	#36950		;#0x9056
    9490:	08 4a       	mov	r10,	r8	;
    9492:	38 b0 00 80 	bit	#32768,	r8	;#0x8000
    9496:	09 79       	subc	r9,	r9	;
    9498:	39 e3       	inv	r9		;
    949a:	8c 48 0a 00 	mov	r8,	10(r12)	; 0x000a
    949e:	8c 49 0c 00 	mov	r9,	12(r12)	; 0x000c
    94a2:	9c 43 08 00 	mov	#1,	8(r12)	;r3 As==01
    94a6:	30 40 ac 51 	br	#0x51ac		;

000094aa <__multiply>:
    94aa:	0a 12       	push	r10		;
    94ac:	09 12       	push	r9		;
    94ae:	08 12       	push	r8		;
    94b0:	07 12       	push	r7		;
    94b2:	06 12       	push	r6		;
    94b4:	05 12       	push	r5		;
    94b6:	04 12       	push	r4		;
    94b8:	31 80 18 00 	sub	#24,	r1	;#0x0018
    94bc:	07 4d       	mov	r13,	r7	;
    94be:	08 4e       	mov	r14,	r8	;
    94c0:	9d 9e 08 00 	cmp	8(r14),	8(r13)	;
    94c4:	08 00 
    94c6:	02 34       	jge	$+6      	;abs 0x94cc
    94c8:	07 4e       	mov	r14,	r7	;
    94ca:	08 4d       	mov	r13,	r8	;
    94cc:	1d 47 02 00 	mov	2(r7),	r13	;
    94d0:	19 47 08 00 	mov	8(r7),	r9	;
    94d4:	1a 48 08 00 	mov	8(r8),	r10	;
    94d8:	0e 49       	mov	r9,	r14	;
    94da:	0e 5a       	add	r10,	r14	;
    94dc:	81 4e 04 00 	mov	r14,	4(r1)	;
    94e0:	87 9e 04 00 	cmp	r14,	4(r7)	;
    94e4:	01 34       	jge	$+4      	;abs 0x94e8
    94e6:	1d 53       	inc	r13		;
    94e8:	b0 12 56 90 	call	#36950		;#0x9056
    94ec:	81 4c 0e 00 	mov	r12,	14(r1)	; 0x000e
    94f0:	0b 4c       	mov	r12,	r11	;
    94f2:	3b 50 0a 00 	add	#10,	r11	;#0x000a
    94f6:	1c 41 04 00 	mov	4(r1),	r12	;
    94fa:	0c 5c       	rla	r12		;
    94fc:	0c 5c       	rla	r12		;
    94fe:	0c 5b       	add	r11,	r12	;
    9500:	81 4c 0a 00 	mov	r12,	10(r1)	; 0x000a
    9504:	0c 4b       	mov	r11,	r12	;
    9506:	1c 91 0a 00 	cmp	10(r1),	r12	;0x0000a
    950a:	07 2c       	jc	$+16     	;abs 0x951a
    950c:	8c 43 00 00 	mov	#0,	0(r12)	;r3 As==00
    9510:	8c 43 02 00 	mov	#0,	2(r12)	;r3 As==00
    9514:	2c 52       	add	#4,	r12	;r2 As==10
    9516:	30 40 06 95 	br	#0x9506		;
    951a:	37 50 0a 00 	add	#10,	r7	;#0x000a
    951e:	81 47 10 00 	mov	r7,	16(r1)	; 0x0010
    9522:	09 59       	rla	r9		;
    9524:	09 59       	rla	r9		;
    9526:	09 57       	add	r7,	r9	;
    9528:	81 49 12 00 	mov	r9,	18(r1)	; 0x0012
    952c:	38 50 0a 00 	add	#10,	r8	;#0x000a
    9530:	81 48 06 00 	mov	r8,	6(r1)	;
    9534:	0a 5a       	rla	r10		;
    9536:	0a 5a       	rla	r10		;
    9538:	0a 58       	add	r8,	r10	;
    953a:	81 4a 14 00 	mov	r10,	20(r1)	; 0x0014
    953e:	91 91 14 00 	cmp	20(r1),	6(r1)	;0x00014
    9542:	06 00 
    9544:	df 2c       	jc	$+448    	;abs 0x9704
    9546:	1c 41 06 00 	mov	6(r1),	r12	;
    954a:	25 4c       	mov	@r12,	r5	;
    954c:	05 93       	cmp	#0,	r5	;r3 As==00
    954e:	5f 24       	jz	$+192    	;abs 0x960e
    9550:	0a 4b       	mov	r11,	r10	;
    9552:	14 41 10 00 	mov	16(r1),	r4	;0x00010
    9556:	08 43       	clr	r8		;
    9558:	07 48       	mov	r8,	r7	;
    955a:	81 4a 08 00 	mov	r10,	8(r1)	;
    955e:	26 44       	mov	@r4,	r6	;
    9560:	91 44 02 00 	mov	2(r4),	12(r1)	; 0x000c
    9564:	0c 00 
    9566:	91 4a 02 00 	mov	2(r10),	22(r1)	; 0x0016
    956a:	16 00 
    956c:	29 4a       	mov	@r10,	r9	;
    956e:	0c 46       	mov	r6,	r12	;
    9570:	0d 43       	clr	r13		;
    9572:	0e 45       	mov	r5,	r14	;
    9574:	0f 4d       	mov	r13,	r15	;
    9576:	81 4b 00 00 	mov	r11,	0(r1)	;
    957a:	b0 12 ac 52 	call	#21164		;#0x52ac
    957e:	0c 59       	add	r9,	r12	;
    9580:	0e 43       	clr	r14		;
    9582:	0d 6e       	addc	r14,	r13	;
    9584:	0c 58       	add	r8,	r12	;
    9586:	81 4c 02 00 	mov	r12,	2(r1)	;
    958a:	07 6d       	addc	r13,	r7	;
    958c:	24 52       	add	#4,	r4	;r2 As==10
    958e:	0c 49       	mov	r9,	r12	;
    9590:	1d 41 16 00 	mov	22(r1),	r13	;0x00016
    9594:	3e 40 10 00 	mov	#16,	r14	;#0x0010
    9598:	b0 12 62 52 	call	#21090		;#0x5262
    959c:	09 4c       	mov	r12,	r9	;
    959e:	08 4d       	mov	r13,	r8	;
    95a0:	0c 46       	mov	r6,	r12	;
    95a2:	1d 41 0c 00 	mov	12(r1),	r13	;0x0000c
    95a6:	3e 40 10 00 	mov	#16,	r14	;#0x0010
    95aa:	b0 12 62 52 	call	#21090		;#0x5262
    95ae:	0e 45       	mov	r5,	r14	;
    95b0:	0f 43       	clr	r15		;
    95b2:	b0 12 ac 52 	call	#21164		;#0x52ac
    95b6:	09 5c       	add	r12,	r9	;
    95b8:	08 6d       	addc	r13,	r8	;
    95ba:	1c 41 02 00 	mov	2(r1),	r12	;
    95be:	0d 47       	mov	r7,	r13	;
    95c0:	3e 40 10 00 	mov	#16,	r14	;#0x0010
    95c4:	b0 12 62 52 	call	#21090		;#0x5262
    95c8:	09 5c       	add	r12,	r9	;
    95ca:	06 48       	mov	r8,	r6	;
    95cc:	06 6d       	addc	r13,	r6	;
    95ce:	0c 49       	mov	r9,	r12	;
    95d0:	0d 46       	mov	r6,	r13	;
    95d2:	3e 40 10 00 	mov	#16,	r14	;#0x0010
    95d6:	b0 12 62 52 	call	#21090		;#0x5262
    95da:	08 4c       	mov	r12,	r8	;
    95dc:	07 4d       	mov	r13,	r7	;
    95de:	0c 49       	mov	r9,	r12	;
    95e0:	0d 46       	mov	r6,	r13	;
    95e2:	3e 40 10 00 	mov	#16,	r14	;#0x0010
    95e6:	b0 12 b4 c9 	call	#51636		;#0xc9b4
    95ea:	1e 41 02 00 	mov	2(r1),	r14	;
    95ee:	0c de       	bis	r14,	r12	;
    95f0:	8a 4c 00 00 	mov	r12,	0(r10)	;
    95f4:	8a 4d 02 00 	mov	r13,	2(r10)	;
    95f8:	2a 52       	add	#4,	r10	;r2 As==10
    95fa:	2b 41       	mov	@r1,	r11	;
    95fc:	14 91 12 00 	cmp	18(r1),	r4	;0x00012
    9600:	ac 2b       	jnc	$-166    	;abs 0x955a
    9602:	1d 41 08 00 	mov	8(r1),	r13	;
    9606:	8d 48 04 00 	mov	r8,	4(r13)	;
    960a:	8d 47 06 00 	mov	r7,	6(r13)	;
    960e:	1e 41 06 00 	mov	6(r1),	r14	;
    9612:	2c 4e       	mov	@r14,	r12	;
    9614:	1d 4e 02 00 	mov	2(r14),	r13	;
    9618:	3e 40 10 00 	mov	#16,	r14	;#0x0010
    961c:	81 4b 00 00 	mov	r11,	0(r1)	;
    9620:	b0 12 62 52 	call	#21090		;#0x5262
    9624:	81 4c 08 00 	mov	r12,	8(r1)	;
    9628:	81 4d 02 00 	mov	r13,	2(r1)	;
    962c:	0c dd       	bis	r13,	r12	;
    962e:	2b 41       	mov	@r1,	r11	;
    9630:	0c 93       	cmp	#0,	r12	;r3 As==00
    9632:	57 24       	jz	$+176    	;abs 0x96e2
    9634:	2a 4b       	mov	@r11,	r10	;
    9636:	14 41 10 00 	mov	16(r1),	r4	;0x00010
    963a:	08 4b       	mov	r11,	r8	;
    963c:	07 43       	clr	r7		;
    963e:	06 47       	mov	r7,	r6	;
    9640:	2c 44       	mov	@r4,	r12	;
    9642:	0d 43       	clr	r13		;
    9644:	1e 41 08 00 	mov	8(r1),	r14	;
    9648:	1f 41 02 00 	mov	2(r1),	r15	;
    964c:	81 4b 00 00 	mov	r11,	0(r1)	;
    9650:	b0 12 ac 52 	call	#21164		;#0x52ac
    9654:	05 4c       	mov	r12,	r5	;
    9656:	09 4d       	mov	r13,	r9	;
    9658:	2c 48       	mov	@r8,	r12	;
    965a:	1d 48 02 00 	mov	2(r8),	r13	;
    965e:	3e 40 10 00 	mov	#16,	r14	;#0x0010
    9662:	b0 12 62 52 	call	#21090		;#0x5262
    9666:	0c 55       	add	r5,	r12	;
    9668:	0d 69       	addc	r9,	r13	;
    966a:	07 5c       	add	r12,	r7	;
    966c:	06 6d       	addc	r13,	r6	;
    966e:	05 48       	mov	r8,	r5	;
    9670:	25 52       	add	#4,	r5	;r2 As==10
    9672:	0c 47       	mov	r7,	r12	;
    9674:	0d 46       	mov	r6,	r13	;
    9676:	3e 40 10 00 	mov	#16,	r14	;#0x0010
    967a:	b0 12 b4 c9 	call	#51636		;#0xc9b4
    967e:	0c da       	bis	r10,	r12	;
    9680:	88 4c 00 00 	mov	r12,	0(r8)	;
    9684:	85 4d fe ff 	mov	r13,	-2(r5)	; 0xfffe
    9688:	2c 44       	mov	@r4,	r12	;
    968a:	1d 44 02 00 	mov	2(r4),	r13	;
    968e:	3e 40 10 00 	mov	#16,	r14	;#0x0010
    9692:	b0 12 62 52 	call	#21090		;#0x5262
    9696:	1e 41 08 00 	mov	8(r1),	r14	;
    969a:	1f 41 02 00 	mov	2(r1),	r15	;
    969e:	b0 12 ac 52 	call	#21164		;#0x52ac
    96a2:	2a 45       	mov	@r5,	r10	;
    96a4:	0a 5c       	add	r12,	r10	;
    96a6:	09 43       	clr	r9		;
    96a8:	09 6d       	addc	r13,	r9	;
    96aa:	0c 47       	mov	r7,	r12	;
    96ac:	0d 46       	mov	r6,	r13	;
    96ae:	3e 40 10 00 	mov	#16,	r14	;#0x0010
    96b2:	b0 12 62 52 	call	#21090		;#0x5262
    96b6:	0a 5c       	add	r12,	r10	;
    96b8:	09 6d       	addc	r13,	r9	;
    96ba:	0c 4a       	mov	r10,	r12	;
    96bc:	0d 49       	mov	r9,	r13	;
    96be:	3e 40 10 00 	mov	#16,	r14	;#0x0010
    96c2:	b0 12 62 52 	call	#21090		;#0x5262
    96c6:	07 4c       	mov	r12,	r7	;
    96c8:	06 4d       	mov	r13,	r6	;
    96ca:	24 52       	add	#4,	r4	;r2 As==10
    96cc:	2b 41       	mov	@r1,	r11	;
    96ce:	14 91 12 00 	cmp	18(r1),	r4	;0x00012
    96d2:	03 2c       	jc	$+8      	;abs 0x96da
    96d4:	08 45       	mov	r5,	r8	;
    96d6:	30 40 40 96 	br	#0x9640		;
    96da:	88 4a 04 00 	mov	r10,	4(r8)	;
    96de:	88 49 06 00 	mov	r9,	6(r8)	;
    96e2:	a1 52 06 00 	add	#4,	6(r1)	;r2 As==10
    96e6:	2b 52       	add	#4,	r11	;r2 As==10
    96e8:	30 40 3e 95 	br	#0x953e		;
    96ec:	b1 50 fc ff 	add	#65532,	10(r1)	;#0xfffc, 0x000a
    96f0:	0a 00 
    96f2:	1d 41 0a 00 	mov	10(r1),	r13	;0x0000a
    96f6:	2c 4d       	mov	@r13,	r12	;
    96f8:	1c dd 02 00 	bis	2(r13),	r12	;
    96fc:	0c 93       	cmp	#0,	r12	;r3 As==00
    96fe:	06 20       	jnz	$+14     	;abs 0x970c
    9700:	b1 53 04 00 	add	#-1,	4(r1)	;r3 As==11
    9704:	0c 43       	clr	r12		;
    9706:	1c 91 04 00 	cmp	4(r1),	r12	;
    970a:	f0 3b       	jl	$-30     	;abs 0x96ec
    970c:	1c 41 0e 00 	mov	14(r1),	r12	;0x0000e
    9710:	9c 41 04 00 	mov	4(r1),	8(r12)	;
    9714:	08 00 
    9716:	31 50 18 00 	add	#24,	r1	;#0x0018
    971a:	30 40 a4 51 	br	#0x51a4		;

0000971e <__pow5mult>:
    971e:	0a 12       	push	r10		;
    9720:	09 12       	push	r9		;
    9722:	08 12       	push	r8		;
    9724:	07 12       	push	r7		;
    9726:	06 12       	push	r6		;
    9728:	05 12       	push	r5		;
    972a:	04 12       	push	r4		;
    972c:	09 4c       	mov	r12,	r9	;
    972e:	08 4d       	mov	r13,	r8	;
    9730:	0a 4e       	mov	r14,	r10	;
    9732:	0f 4e       	mov	r14,	r15	;
    9734:	3f f0 03 00 	and	#3,	r15	;
    9738:	0f 93       	cmp	#0,	r15	;r3 As==00
    973a:	08 24       	jz	$+18     	;abs 0x974c
    973c:	3f 53       	add	#-1,	r15	;r3 As==11
    973e:	0f 5f       	rla	r15		;
    9740:	1e 4f b6 44 	mov	17590(r15),r14	;0x044b6
    9744:	0f 43       	clr	r15		;
    9746:	b0 12 44 91 	call	#37188		;#0x9144
    974a:	08 4c       	mov	r12,	r8	;
    974c:	0c 4a       	mov	r10,	r12	;
    974e:	b0 12 d4 c9 	call	#51668		;#0xc9d4
    9752:	07 4c       	mov	r12,	r7	;
    9754:	0c 93       	cmp	#0,	r12	;r3 As==00
    9756:	42 24       	jz	$+134    	;abs 0x97dc
    9758:	89 93 12 00 	cmp	#0,	18(r9)	;r3 As==00, 0x0012
    975c:	0d 20       	jnz	$+28     	;abs 0x9778
    975e:	3c 42       	mov	#8,	r12	;r2 As==11
    9760:	b0 12 00 54 	call	#21504		;#0x5400
    9764:	89 4c 12 00 	mov	r12,	18(r9)	; 0x0012
    9768:	8c 43 02 00 	mov	#0,	2(r12)	;r3 As==00
    976c:	8c 43 04 00 	mov	#0,	4(r12)	;r3 As==00
    9770:	8c 43 00 00 	mov	#0,	0(r12)	;r3 As==00
    9774:	8c 43 06 00 	mov	#0,	6(r12)	;r3 As==00
    9778:	16 49 12 00 	mov	18(r9),	r6	;0x00012
    977c:	1a 46 04 00 	mov	4(r6),	r10	;
    9780:	0a 93       	cmp	#0,	r10	;r3 As==00
    9782:	0a 20       	jnz	$+22     	;abs 0x9798
    9784:	0c 49       	mov	r9,	r12	;
    9786:	3d 40 71 02 	mov	#625,	r13	;#0x0271
    978a:	b0 12 82 94 	call	#38018		;#0x9482
    978e:	0a 4c       	mov	r12,	r10	;
    9790:	86 4c 04 00 	mov	r12,	4(r6)	;
    9794:	8c 43 00 00 	mov	#0,	0(r12)	;r3 As==00
    9798:	36 40 aa 94 	mov	#38058,	r6	;#0x94aa
    979c:	35 40 fe 90 	mov	#37118,	r5	;#0x90fe
    97a0:	17 b3       	bit	#1,	r7	;r3 As==01
    97a2:	09 24       	jz	$+20     	;abs 0x97b6
    97a4:	0c 49       	mov	r9,	r12	;
    97a6:	0d 48       	mov	r8,	r13	;
    97a8:	0e 4a       	mov	r10,	r14	;
    97aa:	86 12       	call	r6		;
    97ac:	04 4c       	mov	r12,	r4	;
    97ae:	0c 49       	mov	r9,	r12	;
    97b0:	0d 48       	mov	r8,	r13	;
    97b2:	85 12       	call	r5		;
    97b4:	08 44       	mov	r4,	r8	;
    97b6:	07 11       	rra	r7		;
    97b8:	07 93       	cmp	#0,	r7	;r3 As==00
    97ba:	10 24       	jz	$+34     	;abs 0x97dc
    97bc:	2c 4a       	mov	@r10,	r12	;
    97be:	0c 93       	cmp	#0,	r12	;r3 As==00
    97c0:	03 24       	jz	$+8      	;abs 0x97c8
    97c2:	0a 4c       	mov	r12,	r10	;
    97c4:	30 40 a0 97 	br	#0x97a0		;
    97c8:	0c 49       	mov	r9,	r12	;
    97ca:	0d 4a       	mov	r10,	r13	;
    97cc:	0e 4a       	mov	r10,	r14	;
    97ce:	86 12       	call	r6		;
    97d0:	8a 4c 00 00 	mov	r12,	0(r10)	;
    97d4:	8c 43 00 00 	mov	#0,	0(r12)	;r3 As==00
    97d8:	30 40 c2 97 	br	#0x97c2		;
    97dc:	0c 48       	mov	r8,	r12	;
    97de:	30 40 a4 51 	br	#0x51a4		;

000097e2 <__lshift>:
    97e2:	0a 12       	push	r10		;
    97e4:	09 12       	push	r9		;
    97e6:	08 12       	push	r8		;
    97e8:	07 12       	push	r7		;
    97ea:	06 12       	push	r6		;
    97ec:	05 12       	push	r5		;
    97ee:	04 12       	push	r4		;
    97f0:	31 80 0c 00 	sub	#12,	r1	;#0x000c
    97f4:	81 4c 08 00 	mov	r12,	8(r1)	;
    97f8:	08 4d       	mov	r13,	r8	;
    97fa:	06 4e       	mov	r14,	r6	;
    97fc:	0c 4e       	mov	r14,	r12	;
    97fe:	b0 12 ce c9 	call	#51662		;#0xc9ce
    9802:	09 4c       	mov	r12,	r9	;
    9804:	1d 48 02 00 	mov	2(r8),	r13	;
    9808:	1c 58 08 00 	add	8(r8),	r12	;
    980c:	81 4c 04 00 	mov	r12,	4(r1)	;
    9810:	04 4c       	mov	r12,	r4	;
    9812:	14 53       	inc	r4		;
    9814:	1c 48 04 00 	mov	4(r8),	r12	;
    9818:	0c 94       	cmp	r4,	r12	;
    981a:	04 34       	jge	$+10     	;abs 0x9824
    981c:	1d 53       	inc	r13		;
    981e:	0c 5c       	rla	r12		;
    9820:	30 40 18 98 	br	#0x9818		;
    9824:	1c 41 08 00 	mov	8(r1),	r12	;
    9828:	b0 12 56 90 	call	#36950		;#0x9056
    982c:	05 4c       	mov	r12,	r5	;
    982e:	0a 4c       	mov	r12,	r10	;
    9830:	3a 50 0a 00 	add	#10,	r10	;#0x000a
    9834:	0c 4a       	mov	r10,	r12	;
    9836:	0d 43       	clr	r13		;
    9838:	0d 99       	cmp	r9,	r13	;
    983a:	08 34       	jge	$+18     	;abs 0x984c
    983c:	8c 43 00 00 	mov	#0,	0(r12)	;r3 As==00
    9840:	8c 43 02 00 	mov	#0,	2(r12)	;r3 As==00
    9844:	1d 53       	inc	r13		;
    9846:	2c 52       	add	#4,	r12	;r2 As==10
    9848:	30 40 38 98 	br	#0x9838		;
    984c:	0c 49       	mov	r9,	r12	;
    984e:	09 93       	cmp	#0,	r9	;r3 As==00
    9850:	01 34       	jge	$+4      	;abs 0x9854
    9852:	0c 43       	clr	r12		;
    9854:	0c 5c       	rla	r12		;
    9856:	0c 5c       	rla	r12		;
    9858:	0a 5c       	add	r12,	r10	;
    985a:	09 48       	mov	r8,	r9	;
    985c:	39 50 0a 00 	add	#10,	r9	;#0x000a
    9860:	1c 48 08 00 	mov	8(r8),	r12	;
    9864:	0c 5c       	rla	r12		;
    9866:	0c 5c       	rla	r12		;
    9868:	0c 59       	add	r9,	r12	;
    986a:	81 4c 06 00 	mov	r12,	6(r1)	;
    986e:	36 f0 1f 00 	and	#31,	r6	;#0x001f
    9872:	06 93       	cmp	#0,	r6	;r3 As==00
    9874:	34 24       	jz	$+106    	;abs 0x98de
    9876:	3c 40 20 00 	mov	#32,	r12	;#0x0020
    987a:	0c 86       	sub	r6,	r12	;
    987c:	81 4c 0a 00 	mov	r12,	10(r1)	; 0x000a
    9880:	0f 43       	clr	r15		;
    9882:	07 4f       	mov	r15,	r7	;
    9884:	2c 49       	mov	@r9,	r12	;
    9886:	1d 49 02 00 	mov	2(r9),	r13	;
    988a:	0e 46       	mov	r6,	r14	;
    988c:	81 4a 00 00 	mov	r10,	0(r1)	;
    9890:	81 4f 02 00 	mov	r15,	2(r1)	;
    9894:	b0 12 b4 c9 	call	#51636		;#0xc9b4
    9898:	1f 41 02 00 	mov	2(r1),	r15	;
    989c:	0f dc       	bis	r12,	r15	;
    989e:	8a 4f 00 00 	mov	r15,	0(r10)	;
    98a2:	07 dd       	bis	r13,	r7	;
    98a4:	8a 47 02 00 	mov	r7,	2(r10)	;
    98a8:	2c 49       	mov	@r9,	r12	;
    98aa:	1d 49 02 00 	mov	2(r9),	r13	;
    98ae:	1e 41 0a 00 	mov	10(r1),	r14	;0x0000a
    98b2:	b0 12 62 52 	call	#21090		;#0x5262
    98b6:	0f 4c       	mov	r12,	r15	;
    98b8:	07 4d       	mov	r13,	r7	;
    98ba:	29 52       	add	#4,	r9	;r2 As==10
    98bc:	2a 52       	add	#4,	r10	;r2 As==10
    98be:	2b 41       	mov	@r1,	r11	;
    98c0:	19 91 06 00 	cmp	6(r1),	r9	;
    98c4:	df 2b       	jnc	$-64     	;abs 0x9884
    98c6:	8b 4c 04 00 	mov	r12,	4(r11)	;
    98ca:	8b 4d 06 00 	mov	r13,	6(r11)	;
    98ce:	07 dc       	bis	r12,	r7	;
    98d0:	07 93       	cmp	#0,	r7	;r3 As==00
    98d2:	0f 24       	jz	$+32     	;abs 0x98f2
    98d4:	14 41 04 00 	mov	4(r1),	r4	;
    98d8:	24 53       	incd	r4		;
    98da:	30 40 f2 98 	br	#0x98f2		;
    98de:	aa 49 00 00 	mov	@r9,	0(r10)	;
    98e2:	9a 49 02 00 	mov	2(r9),	2(r10)	;
    98e6:	02 00 
    98e8:	29 52       	add	#4,	r9	;r2 As==10
    98ea:	2a 52       	add	#4,	r10	;r2 As==10
    98ec:	19 91 06 00 	cmp	6(r1),	r9	;
    98f0:	f6 2b       	jnc	$-18     	;abs 0x98de
    98f2:	34 53       	add	#-1,	r4	;r3 As==11
    98f4:	85 44 08 00 	mov	r4,	8(r5)	;
    98f8:	1c 41 08 00 	mov	8(r1),	r12	;
    98fc:	0d 48       	mov	r8,	r13	;
    98fe:	b0 12 fe 90 	call	#37118		;#0x90fe
    9902:	0c 45       	mov	r5,	r12	;
    9904:	31 50 0c 00 	add	#12,	r1	;#0x000c
    9908:	30 40 a4 51 	br	#0x51a4		;

0000990c <__mcmp>:
    990c:	0a 12       	push	r10		;
    990e:	09 12       	push	r9		;
    9910:	1e 4d 08 00 	mov	8(r13),	r14	;
    9914:	1f 4c 08 00 	mov	8(r12),	r15	;
    9918:	0f 8e       	sub	r14,	r15	;
    991a:	0f 93       	cmp	#0,	r15	;r3 As==00
    991c:	25 20       	jnz	$+76     	;abs 0x9968
    991e:	3c 50 0a 00 	add	#10,	r12	;#0x000a
    9922:	0e 5e       	rla	r14		;
    9924:	0e 5e       	rla	r14		;
    9926:	0f 4c       	mov	r12,	r15	;
    9928:	0f 5e       	add	r14,	r15	;
    992a:	3d 50 0a 00 	add	#10,	r13	;#0x000a
    992e:	0d 5e       	add	r14,	r13	;
    9930:	3f 50 fc ff 	add	#65532,	r15	;#0xfffc
    9934:	2a 4f       	mov	@r15,	r10	;
    9936:	1e 4f 02 00 	mov	2(r15),	r14	;
    993a:	3d 50 fc ff 	add	#65532,	r13	;#0xfffc
    993e:	29 4d       	mov	@r13,	r9	;
    9940:	1b 4d 02 00 	mov	2(r13),	r11	;
    9944:	0a 99       	cmp	r9,	r10	;
    9946:	02 20       	jnz	$+6      	;abs 0x994c
    9948:	0e 9b       	cmp	r11,	r14	;
    994a:	09 24       	jz	$+20     	;abs 0x995e
    994c:	0e 9b       	cmp	r11,	r14	;
    994e:	0f 28       	jnc	$+32     	;abs 0x996e
    9950:	0b 9e       	cmp	r14,	r11	;
    9952:	02 20       	jnz	$+6      	;abs 0x9958
    9954:	0a 99       	cmp	r9,	r10	;
    9956:	0b 28       	jnc	$+24     	;abs 0x996e
    9958:	1c 43       	mov	#1,	r12	;r3 As==01
    995a:	30 40 70 99 	br	#0x9970		;
    995e:	0c 9f       	cmp	r15,	r12	;
    9960:	e7 2b       	jnc	$-48     	;abs 0x9930
    9962:	0c 43       	clr	r12		;
    9964:	30 40 70 99 	br	#0x9970		;
    9968:	0c 4f       	mov	r15,	r12	;
    996a:	30 40 70 99 	br	#0x9970		;
    996e:	3c 43       	mov	#-1,	r12	;r3 As==11
    9970:	30 40 ae 51 	br	#0x51ae		;

00009974 <__mdiff>:
    9974:	0a 12       	push	r10		;
    9976:	09 12       	push	r9		;
    9978:	08 12       	push	r8		;
    997a:	07 12       	push	r7		;
    997c:	06 12       	push	r6		;
    997e:	05 12       	push	r5		;
    9980:	04 12       	push	r4		;
    9982:	31 80 16 00 	sub	#22,	r1	;#0x0016
    9986:	07 4c       	mov	r12,	r7	;
    9988:	0a 4d       	mov	r13,	r10	;
    998a:	09 4e       	mov	r14,	r9	;
    998c:	0c 4d       	mov	r13,	r12	;
    998e:	0d 4e       	mov	r14,	r13	;
    9990:	b0 12 0c 99 	call	#39180		;#0x990c
    9994:	0d 4c       	mov	r12,	r13	;
    9996:	3e 40 56 90 	mov	#36950,	r14	;#0x9056
    999a:	0c 93       	cmp	#0,	r12	;r3 As==00
    999c:	0a 20       	jnz	$+22     	;abs 0x99b2
    999e:	0c 47       	mov	r7,	r12	;
    99a0:	8e 12       	call	r14		;
    99a2:	9c 43 08 00 	mov	#1,	8(r12)	;r3 As==01
    99a6:	8c 43 0a 00 	mov	#0,	10(r12)	;r3 As==00, 0x000a
    99aa:	8c 43 0c 00 	mov	#0,	12(r12)	;r3 As==00, 0x000c
    99ae:	30 40 40 9b 	br	#0x9b40		;
    99b2:	0c 93       	cmp	#0,	r12	;r3 As==00
    99b4:	06 34       	jge	$+14     	;abs 0x99c2
    99b6:	0c 4a       	mov	r10,	r12	;
    99b8:	0a 49       	mov	r9,	r10	;
    99ba:	09 4c       	mov	r12,	r9	;
    99bc:	18 43       	mov	#1,	r8	;r3 As==01
    99be:	30 40 c4 99 	br	#0x99c4		;
    99c2:	08 43       	clr	r8		;
    99c4:	0c 47       	mov	r7,	r12	;
    99c6:	1d 4a 02 00 	mov	2(r10),	r13	;
    99ca:	8e 12       	call	r14		;
    99cc:	81 4c 08 00 	mov	r12,	8(r1)	;
    99d0:	8c 48 06 00 	mov	r8,	6(r12)	;
    99d4:	91 4a 08 00 	mov	8(r10),	6(r1)	;
    99d8:	06 00 
    99da:	3a 50 0a 00 	add	#10,	r10	;#0x000a
    99de:	1c 41 06 00 	mov	6(r1),	r12	;
    99e2:	0c 5c       	rla	r12		;
    99e4:	0c 5c       	rla	r12		;
    99e6:	0c 5a       	add	r10,	r12	;
    99e8:	81 4c 12 00 	mov	r12,	18(r1)	; 0x0012
    99ec:	0b 49       	mov	r9,	r11	;
    99ee:	3b 50 0a 00 	add	#10,	r11	;#0x000a
    99f2:	1c 49 08 00 	mov	8(r9),	r12	;
    99f6:	0c 5c       	rla	r12		;
    99f8:	0c 5c       	rla	r12		;
    99fa:	0c 5b       	add	r11,	r12	;
    99fc:	81 4c 14 00 	mov	r12,	20(r1)	; 0x0014
    9a00:	14 41 08 00 	mov	8(r1),	r4	;
    9a04:	34 50 0a 00 	add	#10,	r4	;#0x000a
    9a08:	09 43       	clr	r9		;
    9a0a:	06 49       	mov	r9,	r6	;
    9a0c:	1d 4a 02 00 	mov	2(r10),	r13	;
    9a10:	25 4b       	mov	@r11,	r5	;
    9a12:	17 4b 02 00 	mov	2(r11),	r7	;
    9a16:	2c 4a       	mov	@r10,	r12	;
    9a18:	09 5c       	add	r12,	r9	;
    9a1a:	81 49 0a 00 	mov	r9,	10(r1)	; 0x000a
    9a1e:	0e 43       	clr	r14		;
    9a20:	0e 66       	addc	r6,	r14	;
    9a22:	81 4e 0c 00 	mov	r14,	12(r1)	; 0x000c
    9a26:	81 45 0e 00 	mov	r5,	14(r1)	; 0x000e
    9a2a:	81 43 10 00 	mov	#0,	16(r1)	;r3 As==00, 0x0010
    9a2e:	1e 41 0a 00 	mov	10(r1),	r14	;0x0000a
    9a32:	1f 41 0c 00 	mov	12(r1),	r15	;0x0000c
    9a36:	1e 81 0e 00 	sub	14(r1),	r14	;0x0000e
    9a3a:	1f 71 10 00 	subc	16(r1),	r15	;0x00010
    9a3e:	81 4e 02 00 	mov	r14,	2(r1)	;
    9a42:	81 4f 04 00 	mov	r15,	4(r1)	;
    9a46:	2a 52       	add	#4,	r10	;r2 As==10
    9a48:	2b 52       	add	#4,	r11	;r2 As==10
    9a4a:	3e 40 10 00 	mov	#16,	r14	;#0x0010
    9a4e:	81 4b 00 00 	mov	r11,	0(r1)	;
    9a52:	b0 12 62 52 	call	#21090		;#0x5262
    9a56:	08 4c       	mov	r12,	r8	;
    9a58:	09 4d       	mov	r13,	r9	;
    9a5a:	0c 45       	mov	r5,	r12	;
    9a5c:	0d 47       	mov	r7,	r13	;
    9a5e:	3e 40 10 00 	mov	#16,	r14	;#0x0010
    9a62:	b0 12 62 52 	call	#21090		;#0x5262
    9a66:	08 8c       	sub	r12,	r8	;
    9a68:	09 7d       	subc	r13,	r9	;
    9a6a:	1c 41 02 00 	mov	2(r1),	r12	;
    9a6e:	1d 41 04 00 	mov	4(r1),	r13	;
    9a72:	3e 40 10 00 	mov	#16,	r14	;#0x0010
    9a76:	b0 12 28 ca 	call	#51752		;#0xca28
    9a7a:	08 5c       	add	r12,	r8	;
    9a7c:	05 49       	mov	r9,	r5	;
    9a7e:	05 6d       	addc	r13,	r5	;
    9a80:	0c 48       	mov	r8,	r12	;
    9a82:	0d 45       	mov	r5,	r13	;
    9a84:	3e 40 10 00 	mov	#16,	r14	;#0x0010
    9a88:	b0 12 28 ca 	call	#51752		;#0xca28
    9a8c:	09 4c       	mov	r12,	r9	;
    9a8e:	06 4d       	mov	r13,	r6	;
    9a90:	07 44       	mov	r4,	r7	;
    9a92:	27 52       	add	#4,	r7	;r2 As==10
    9a94:	0c 48       	mov	r8,	r12	;
    9a96:	0d 45       	mov	r5,	r13	;
    9a98:	3e 40 10 00 	mov	#16,	r14	;#0x0010
    9a9c:	b0 12 b4 c9 	call	#51636		;#0xc9b4
    9aa0:	1e 41 02 00 	mov	2(r1),	r14	;
    9aa4:	0c de       	bis	r14,	r12	;
    9aa6:	84 4c 00 00 	mov	r12,	0(r4)	;
    9aaa:	84 4d 02 00 	mov	r13,	2(r4)	;
    9aae:	04 47       	mov	r7,	r4	;
    9ab0:	2b 41       	mov	@r1,	r11	;
    9ab2:	1b 91 14 00 	cmp	20(r1),	r11	;0x00014
    9ab6:	aa 2b       	jnc	$-170    	;abs 0x9a0c
    9ab8:	08 47       	mov	r7,	r8	;
    9aba:	0c 48       	mov	r8,	r12	;
    9abc:	1a 91 12 00 	cmp	18(r1),	r10	;0x00012
    9ac0:	2f 2c       	jc	$+96     	;abs 0x9b20
    9ac2:	15 4a 02 00 	mov	2(r10),	r5	;
    9ac6:	27 4a       	mov	@r10,	r7	;
    9ac8:	04 47       	mov	r7,	r4	;
    9aca:	04 59       	add	r9,	r4	;
    9acc:	0d 43       	clr	r13		;
    9ace:	0d 66       	addc	r6,	r13	;
    9ad0:	2a 52       	add	#4,	r10	;r2 As==10
    9ad2:	0c 44       	mov	r4,	r12	;
    9ad4:	3e 40 10 00 	mov	#16,	r14	;#0x0010
    9ad8:	b0 12 28 ca 	call	#51752		;#0xca28
    9adc:	09 4c       	mov	r12,	r9	;
    9ade:	06 4d       	mov	r13,	r6	;
    9ae0:	0c 47       	mov	r7,	r12	;
    9ae2:	0d 45       	mov	r5,	r13	;
    9ae4:	3e 40 10 00 	mov	#16,	r14	;#0x0010
    9ae8:	b0 12 62 52 	call	#21090		;#0x5262
    9aec:	07 49       	mov	r9,	r7	;
    9aee:	07 5c       	add	r12,	r7	;
    9af0:	05 46       	mov	r6,	r5	;
    9af2:	05 6d       	addc	r13,	r5	;
    9af4:	0c 47       	mov	r7,	r12	;
    9af6:	0d 45       	mov	r5,	r13	;
    9af8:	3e 40 10 00 	mov	#16,	r14	;#0x0010
    9afc:	b0 12 28 ca 	call	#51752		;#0xca28
    9b00:	09 4c       	mov	r12,	r9	;
    9b02:	06 4d       	mov	r13,	r6	;
    9b04:	0c 47       	mov	r7,	r12	;
    9b06:	0d 45       	mov	r5,	r13	;
    9b08:	3e 40 10 00 	mov	#16,	r14	;#0x0010
    9b0c:	b0 12 b4 c9 	call	#51636		;#0xc9b4
    9b10:	0c d4       	bis	r4,	r12	;
    9b12:	88 4c 00 00 	mov	r12,	0(r8)	;
    9b16:	88 4d 02 00 	mov	r13,	2(r8)	;
    9b1a:	28 52       	add	#4,	r8	;r2 As==10
    9b1c:	30 40 ba 9a 	br	#0x9aba		;
    9b20:	3c 50 fc ff 	add	#65532,	r12	;#0xfffc
    9b24:	2d 4c       	mov	@r12,	r13	;
    9b26:	1d dc 02 00 	bis	2(r12),	r13	;
    9b2a:	0d 93       	cmp	#0,	r13	;r3 As==00
    9b2c:	04 20       	jnz	$+10     	;abs 0x9b36
    9b2e:	b1 53 06 00 	add	#-1,	6(r1)	;r3 As==11
    9b32:	30 40 20 9b 	br	#0x9b20		;
    9b36:	1c 41 08 00 	mov	8(r1),	r12	;
    9b3a:	9c 41 06 00 	mov	6(r1),	8(r12)	;
    9b3e:	08 00 
    9b40:	31 50 16 00 	add	#22,	r1	;#0x0016
    9b44:	30 40 a4 51 	br	#0x51a4		;

00009b48 <__ulp>:
    9b48:	0a 12       	push	r10		;
    9b4a:	09 12       	push	r9		;
    9b4c:	0d 43       	clr	r13		;
    9b4e:	0c 4f       	mov	r15,	r12	;
    9b50:	3c f0 f0 7f 	and	#32752,	r12	;#0x7ff0
    9b54:	0a 4d       	mov	r13,	r10	;
    9b56:	0a 53       	add	#0,	r10	;r3 As==00
    9b58:	0b 4c       	mov	r12,	r11	;
    9b5a:	3b 60 c0 fc 	addc	#64704,	r11	;#0xfcc0
    9b5e:	0d 9b       	cmp	r11,	r13	;
    9b60:	04 38       	jl	$+10     	;abs 0x9b6a
    9b62:	0b 9d       	cmp	r13,	r11	;
    9b64:	07 20       	jnz	$+16     	;abs 0x9b74
    9b66:	0a 9d       	cmp	r13,	r10	;
    9b68:	05 24       	jz	$+12     	;abs 0x9b74
    9b6a:	09 4b       	mov	r11,	r9	;
    9b6c:	0c 43       	clr	r12		;
    9b6e:	0d 4c       	mov	r12,	r13	;
    9b70:	30 40 ec 9b 	br	#0x9bec		;
    9b74:	0c 43       	clr	r12		;
    9b76:	0d 43       	clr	r13		;
    9b78:	0c 8a       	sub	r10,	r12	;
    9b7a:	0d 7b       	subc	r11,	r13	;
    9b7c:	3e 40 14 00 	mov	#20,	r14	;#0x0014
    9b80:	b0 12 28 ca 	call	#51752		;#0xca28
    9b84:	0e 4c       	mov	r12,	r14	;
    9b86:	0c 43       	clr	r12		;
    9b88:	0c 9d       	cmp	r13,	r12	;
    9b8a:	14 38       	jl	$+42     	;abs 0x9bb4
    9b8c:	0d 93       	cmp	#0,	r13	;r3 As==00
    9b8e:	04 20       	jnz	$+10     	;abs 0x9b98
    9b90:	3c 40 13 00 	mov	#19,	r12	;#0x0013
    9b94:	0c 9e       	cmp	r14,	r12	;
    9b96:	0e 28       	jnc	$+30     	;abs 0x9bb4
    9b98:	0c 43       	clr	r12		;
    9b9a:	3d 42       	mov	#8,	r13	;r2 As==11
    9b9c:	3e b0 00 80 	bit	#32768,	r14	;#0x8000
    9ba0:	0f 7f       	subc	r15,	r15	;
    9ba2:	3f e3       	inv	r15		;
    9ba4:	b0 12 28 ca 	call	#51752		;#0xca28
    9ba8:	0a 4c       	mov	r12,	r10	;
    9baa:	09 4d       	mov	r13,	r9	;
    9bac:	0c 43       	clr	r12		;
    9bae:	0d 4c       	mov	r12,	r13	;
    9bb0:	30 40 ec 9b 	br	#0x9bec		;
    9bb4:	0a 43       	clr	r10		;
    9bb6:	09 4a       	mov	r10,	r9	;
    9bb8:	0b 4e       	mov	r14,	r11	;
    9bba:	3b 50 ec ff 	add	#65516,	r11	;#0xffec
    9bbe:	3d 63       	addc	#-1,	r13	;r3 As==11
    9bc0:	0a 9d       	cmp	r13,	r10	;
    9bc2:	12 38       	jl	$+38     	;abs 0x9be8
    9bc4:	0d 9a       	cmp	r10,	r13	;
    9bc6:	04 20       	jnz	$+10     	;abs 0x9bd0
    9bc8:	3c 40 1e 00 	mov	#30,	r12	;#0x001e
    9bcc:	0c 9b       	cmp	r11,	r12	;
    9bce:	0c 28       	jnc	$+26     	;abs 0x9be8
    9bd0:	1c 43       	mov	#1,	r12	;r3 As==01
    9bd2:	3d 40 1f 00 	mov	#31,	r13	;#0x001f
    9bd6:	0d 8b       	sub	r11,	r13	;
    9bd8:	b0 12 6a c9 	call	#51562		;#0xc96a
    9bdc:	3c b0 00 80 	bit	#32768,	r12	;#0x8000
    9be0:	0d 7d       	subc	r13,	r13	;
    9be2:	3d e3       	inv	r13		;
    9be4:	30 40 ec 9b 	br	#0x9bec		;
    9be8:	1c 43       	mov	#1,	r12	;r3 As==01
    9bea:	0d 43       	clr	r13		;
    9bec:	0e 4a       	mov	r10,	r14	;
    9bee:	0f 49       	mov	r9,	r15	;
    9bf0:	30 40 ae 51 	br	#0x51ae		;

00009bf4 <__b2d>:
    9bf4:	0a 12       	push	r10		;
    9bf6:	09 12       	push	r9		;
    9bf8:	08 12       	push	r8		;
    9bfa:	07 12       	push	r7		;
    9bfc:	06 12       	push	r6		;
    9bfe:	05 12       	push	r5		;
    9c00:	04 12       	push	r4		;
    9c02:	31 82       	sub	#8,	r1	;r2 As==11
    9c04:	0a 4d       	mov	r13,	r10	;
    9c06:	05 4c       	mov	r12,	r5	;
    9c08:	35 50 0a 00 	add	#10,	r5	;#0x000a
    9c0c:	19 4c 08 00 	mov	8(r12),	r9	;
    9c10:	09 59       	rla	r9		;
    9c12:	09 59       	rla	r9		;
    9c14:	09 55       	add	r5,	r9	;
    9c16:	06 49       	mov	r9,	r6	;
    9c18:	36 50 fc ff 	add	#65532,	r6	;#0xfffc
    9c1c:	17 49 fc ff 	mov	-4(r9),	r7	;
    9c20:	18 49 fe ff 	mov	-2(r9),	r8	;
    9c24:	0c 47       	mov	r7,	r12	;
    9c26:	0d 48       	mov	r8,	r13	;
    9c28:	b0 12 40 93 	call	#37696		;#0x9340
    9c2c:	04 4c       	mov	r12,	r4	;
    9c2e:	3c 40 20 00 	mov	#32,	r12	;#0x0020
    9c32:	0c 84       	sub	r4,	r12	;
    9c34:	8a 4c 00 00 	mov	r12,	0(r10)	;
    9c38:	3c 40 0a 00 	mov	#10,	r12	;#0x000a
    9c3c:	0c 94       	cmp	r4,	r12	;
    9c3e:	2c 38       	jl	$+90     	;abs 0x9c98
    9c40:	3a 40 0b 00 	mov	#11,	r10	;#0x000b
    9c44:	0a 84       	sub	r4,	r10	;
    9c46:	0c 47       	mov	r7,	r12	;
    9c48:	0d 48       	mov	r8,	r13	;
    9c4a:	0e 4a       	mov	r10,	r14	;
    9c4c:	b0 12 62 52 	call	#21090		;#0x5262
    9c50:	3d d0 f0 3f 	bis	#16368,	r13	;#0x3ff0
    9c54:	81 4c 04 00 	mov	r12,	4(r1)	;
    9c58:	0f 4d       	mov	r13,	r15	;
    9c5a:	05 96       	cmp	r6,	r5	;
    9c5c:	06 2c       	jc	$+14     	;abs 0x9c6a
    9c5e:	1c 49 f8 ff 	mov	-8(r9),	r12	;
    9c62:	1d 49 fa ff 	mov	-6(r9),	r13	;
    9c66:	30 40 6e 9c 	br	#0x9c6e		;
    9c6a:	0c 43       	clr	r12		;
    9c6c:	0d 43       	clr	r13		;
    9c6e:	0e 4a       	mov	r10,	r14	;
    9c70:	81 4f 00 00 	mov	r15,	0(r1)	;
    9c74:	b0 12 62 52 	call	#21090		;#0x5262
    9c78:	06 4c       	mov	r12,	r6	;
    9c7a:	09 4d       	mov	r13,	r9	;
    9c7c:	0c 47       	mov	r7,	r12	;
    9c7e:	0d 48       	mov	r8,	r13	;
    9c80:	0e 44       	mov	r4,	r14	;
    9c82:	3e 50 15 00 	add	#21,	r14	;#0x0015
    9c86:	b0 12 b4 c9 	call	#51636		;#0xc9b4
    9c8a:	0d d9       	bis	r9,	r13	;
    9c8c:	0a 46       	mov	r6,	r10	;
    9c8e:	0a dc       	bis	r12,	r10	;
    9c90:	0c 4a       	mov	r10,	r12	;
    9c92:	2f 41       	mov	@r1,	r15	;
    9c94:	30 40 42 9d 	br	#0x9d42		;
    9c98:	05 96       	cmp	r6,	r5	;
    9c9a:	09 2c       	jc	$+20     	;abs 0x9cae
    9c9c:	06 49       	mov	r9,	r6	;
    9c9e:	36 50 f8 ff 	add	#65528,	r6	;#0xfff8
    9ca2:	1a 49 f8 ff 	mov	-8(r9),	r10	;
    9ca6:	19 49 fa ff 	mov	-6(r9),	r9	;
    9caa:	30 40 b2 9c 	br	#0x9cb2		;
    9cae:	0a 43       	clr	r10		;
    9cb0:	09 4a       	mov	r10,	r9	;
    9cb2:	0c 44       	mov	r4,	r12	;
    9cb4:	3c 50 f5 ff 	add	#65525,	r12	;#0xfff5
    9cb8:	81 4c 02 00 	mov	r12,	2(r1)	;
    9cbc:	0c 93       	cmp	#0,	r12	;r3 As==00
    9cbe:	3a 24       	jz	$+118    	;abs 0x9d34
    9cc0:	3c 40 2b 00 	mov	#43,	r12	;#0x002b
    9cc4:	0c 84       	sub	r4,	r12	;
    9cc6:	81 4c 06 00 	mov	r12,	6(r1)	;
    9cca:	0c 47       	mov	r7,	r12	;
    9ccc:	0d 48       	mov	r8,	r13	;
    9cce:	1e 41 02 00 	mov	2(r1),	r14	;
    9cd2:	b0 12 b4 c9 	call	#51636		;#0xc9b4
    9cd6:	07 4c       	mov	r12,	r7	;
    9cd8:	08 4d       	mov	r13,	r8	;
    9cda:	38 d0 f0 3f 	bis	#16368,	r8	;#0x3ff0
    9cde:	0c 4a       	mov	r10,	r12	;
    9ce0:	0d 49       	mov	r9,	r13	;
    9ce2:	1e 41 06 00 	mov	6(r1),	r14	;
    9ce6:	b0 12 62 52 	call	#21090		;#0x5262
    9cea:	0d d8       	bis	r8,	r13	;
    9cec:	0e 47       	mov	r7,	r14	;
    9cee:	0e dc       	bis	r12,	r14	;
    9cf0:	81 4e 04 00 	mov	r14,	4(r1)	;
    9cf4:	0f 4d       	mov	r13,	r15	;
    9cf6:	05 96       	cmp	r6,	r5	;
    9cf8:	06 2c       	jc	$+14     	;abs 0x9d06
    9cfa:	1c 46 fc ff 	mov	-4(r6),	r12	;
    9cfe:	1d 46 fe ff 	mov	-2(r6),	r13	;
    9d02:	30 40 0a 9d 	br	#0x9d0a		;
    9d06:	0c 43       	clr	r12		;
    9d08:	0d 43       	clr	r13		;
    9d0a:	1e 41 06 00 	mov	6(r1),	r14	;
    9d0e:	81 4f 00 00 	mov	r15,	0(r1)	;
    9d12:	b0 12 62 52 	call	#21090		;#0x5262
    9d16:	08 4c       	mov	r12,	r8	;
    9d18:	07 4d       	mov	r13,	r7	;
    9d1a:	0c 4a       	mov	r10,	r12	;
    9d1c:	0d 49       	mov	r9,	r13	;
    9d1e:	1e 41 02 00 	mov	2(r1),	r14	;
    9d22:	b0 12 b4 c9 	call	#51636		;#0xc9b4
    9d26:	0d d7       	bis	r7,	r13	;
    9d28:	0a 48       	mov	r8,	r10	;
    9d2a:	0a dc       	bis	r12,	r10	;
    9d2c:	0c 4a       	mov	r10,	r12	;
    9d2e:	2f 41       	mov	@r1,	r15	;
    9d30:	30 40 42 9d 	br	#0x9d42		;
    9d34:	38 d0 f0 3f 	bis	#16368,	r8	;#0x3ff0
    9d38:	81 47 04 00 	mov	r7,	4(r1)	;
    9d3c:	0f 48       	mov	r8,	r15	;
    9d3e:	0c 4a       	mov	r10,	r12	;
    9d40:	0d 49       	mov	r9,	r13	;
    9d42:	1e 41 04 00 	mov	4(r1),	r14	;
    9d46:	31 52       	add	#8,	r1	;r2 As==11
    9d48:	30 40 a4 51 	br	#0x51a4		;

00009d4c <__d2b>:
    9d4c:	0a 12       	push	r10		;
    9d4e:	09 12       	push	r9		;
    9d50:	08 12       	push	r8		;
    9d52:	07 12       	push	r7		;
    9d54:	06 12       	push	r6		;
    9d56:	05 12       	push	r5		;
    9d58:	04 12       	push	r4		;
    9d5a:	31 80 0e 00 	sub	#14,	r1	;#0x000e
    9d5e:	91 41 1e 00 	mov	30(r1),	2(r1)	;0x0001e
    9d62:	02 00 
    9d64:	14 41 20 00 	mov	32(r1),	r4	;0x00020
    9d68:	19 41 22 00 	mov	34(r1),	r9	;0x00022
    9d6c:	15 41 24 00 	mov	36(r1),	r5	;0x00024
    9d70:	06 4d       	mov	r13,	r6	;
    9d72:	07 4e       	mov	r14,	r7	;
    9d74:	1d 43       	mov	#1,	r13	;r3 As==01
    9d76:	b0 12 56 90 	call	#36950		;#0x9056
    9d7a:	0a 4c       	mov	r12,	r10	;
    9d7c:	08 49       	mov	r9,	r8	;
    9d7e:	0b 45       	mov	r5,	r11	;
    9d80:	3b f0 0f 00 	and	#15,	r11	;#0x000f
    9d84:	0c 49       	mov	r9,	r12	;
    9d86:	0d 45       	mov	r5,	r13	;
    9d88:	3d f0 ff 7f 	and	#32767,	r13	;#0x7fff
    9d8c:	3e 40 14 00 	mov	#20,	r14	;#0x0014
    9d90:	81 4b 00 00 	mov	r11,	0(r1)	;
    9d94:	b0 12 62 52 	call	#21090		;#0x5262
    9d98:	09 4c       	mov	r12,	r9	;
    9d9a:	05 4c       	mov	r12,	r5	;
    9d9c:	05 dd       	bis	r13,	r5	;
    9d9e:	2b 41       	mov	@r1,	r11	;
    9da0:	81 48 0a 00 	mov	r8,	10(r1)	; 0x000a
    9da4:	05 93       	cmp	#0,	r5	;r3 As==00
    9da6:	02 24       	jz	$+6      	;abs 0x9dac
    9da8:	3b d0 10 00 	bis	#16,	r11	;#0x0010
    9dac:	81 4b 0c 00 	mov	r11,	12(r1)	; 0x000c
    9db0:	1d 41 02 00 	mov	2(r1),	r13	;
    9db4:	0e 4d       	mov	r13,	r14	;
    9db6:	0e d4       	bis	r4,	r14	;
    9db8:	3f 40 c4 93 	mov	#37828,	r15	;#0x93c4
    9dbc:	0e 93       	cmp	#0,	r14	;r3 As==00
    9dbe:	48 24       	jz	$+146    	;abs 0x9e50
    9dc0:	81 4d 06 00 	mov	r13,	6(r1)	;
    9dc4:	81 44 08 00 	mov	r4,	8(r1)	;
    9dc8:	0c 41       	mov	r1,	r12	;
    9dca:	3c 50 06 00 	add	#6,	r12	;
    9dce:	8f 12       	call	r15		;
    9dd0:	04 4c       	mov	r12,	r4	;
    9dd2:	0c 93       	cmp	#0,	r12	;r3 As==00
    9dd4:	24 24       	jz	$+74     	;abs 0x9e1e
    9dd6:	91 41 0a 00 	mov	10(r1),	2(r1)	;0x0000a
    9dda:	02 00 
    9ddc:	91 41 0c 00 	mov	12(r1),	4(r1)	;0x0000c
    9de0:	04 00 
    9de2:	1c 41 02 00 	mov	2(r1),	r12	;
    9de6:	1d 41 04 00 	mov	4(r1),	r13	;
    9dea:	3e 40 20 00 	mov	#32,	r14	;#0x0020
    9dee:	0e 84       	sub	r4,	r14	;
    9df0:	b0 12 b4 c9 	call	#51636		;#0xc9b4
    9df4:	1c d1 06 00 	bis	6(r1),	r12	;
    9df8:	8a 4c 0a 00 	mov	r12,	10(r10)	; 0x000a
    9dfc:	1d d1 08 00 	bis	8(r1),	r13	;
    9e00:	8a 4d 0c 00 	mov	r13,	12(r10)	; 0x000c
    9e04:	1c 41 02 00 	mov	2(r1),	r12	;
    9e08:	1d 41 04 00 	mov	4(r1),	r13	;
    9e0c:	0e 44       	mov	r4,	r14	;
    9e0e:	b0 12 62 52 	call	#21090		;#0x5262
    9e12:	81 4c 0a 00 	mov	r12,	10(r1)	; 0x000a
    9e16:	81 4d 0c 00 	mov	r13,	12(r1)	; 0x000c
    9e1a:	30 40 2a 9e 	br	#0x9e2a		;
    9e1e:	9a 41 06 00 	mov	6(r1),	10(r10)	; 0x000a
    9e22:	0a 00 
    9e24:	9a 41 08 00 	mov	8(r1),	12(r10)	; 0x000c
    9e28:	0c 00 
    9e2a:	1d 41 0a 00 	mov	10(r1),	r13	;0x0000a
    9e2e:	1c 41 0c 00 	mov	12(r1),	r12	;0x0000c
    9e32:	8a 4d 0e 00 	mov	r13,	14(r10)	; 0x000e
    9e36:	8a 4c 10 00 	mov	r12,	16(r10)	; 0x0010
    9e3a:	0c dd       	bis	r13,	r12	;
    9e3c:	0c 93       	cmp	#0,	r12	;r3 As==00
    9e3e:	03 20       	jnz	$+8      	;abs 0x9e46
    9e40:	18 43       	mov	#1,	r8	;r3 As==01
    9e42:	30 40 48 9e 	br	#0x9e48		;
    9e46:	28 43       	mov	#2,	r8	;r3 As==10
    9e48:	8a 48 08 00 	mov	r8,	8(r10)	;
    9e4c:	30 40 70 9e 	br	#0x9e70		;
    9e50:	0c 41       	mov	r1,	r12	;
    9e52:	3c 50 0a 00 	add	#10,	r12	;#0x000a
    9e56:	8f 12       	call	r15		;
    9e58:	9a 41 0a 00 	mov	10(r1),	10(r10)	;0x0000a, 0x000a
    9e5c:	0a 00 
    9e5e:	9a 41 0c 00 	mov	12(r1),	12(r10)	;0x0000c, 0x000c
    9e62:	0c 00 
    9e64:	9a 43 08 00 	mov	#1,	8(r10)	;r3 As==01
    9e68:	04 4c       	mov	r12,	r4	;
    9e6a:	34 50 20 00 	add	#32,	r4	;#0x0020
    9e6e:	18 43       	mov	#1,	r8	;r3 As==01
    9e70:	05 93       	cmp	#0,	r5	;r3 As==00
    9e72:	0c 24       	jz	$+26     	;abs 0x9e8c
    9e74:	39 50 cd fb 	add	#64461,	r9	;#0xfbcd
    9e78:	09 54       	add	r4,	r9	;
    9e7a:	86 49 00 00 	mov	r9,	0(r6)	;
    9e7e:	3c 40 35 00 	mov	#53,	r12	;#0x0035
    9e82:	0c 84       	sub	r4,	r12	;
    9e84:	87 4c 00 00 	mov	r12,	0(r7)	;
    9e88:	30 40 bc 9e 	br	#0x9ebc		;
    9e8c:	34 50 ce fb 	add	#64462,	r4	;#0xfbce
    9e90:	86 44 00 00 	mov	r4,	0(r6)	;
    9e94:	0c 48       	mov	r8,	r12	;
    9e96:	3c 50 ff 3f 	add	#16383,	r12	;#0x3fff
    9e9a:	0c 5c       	rla	r12		;
    9e9c:	0c 5c       	rla	r12		;
    9e9e:	0c 5a       	add	r10,	r12	;
    9ea0:	1d 4c 0c 00 	mov	12(r12),r13	;0x0000c
    9ea4:	1c 4c 0a 00 	mov	10(r12),r12	;0x0000a
    9ea8:	b0 12 40 93 	call	#37696		;#0x9340
    9eac:	08 58       	rla	r8		;
    9eae:	08 58       	rla	r8		;
    9eb0:	08 58       	rla	r8		;
    9eb2:	08 58       	rla	r8		;
    9eb4:	08 58       	rla	r8		;
    9eb6:	08 8c       	sub	r12,	r8	;
    9eb8:	87 48 00 00 	mov	r8,	0(r7)	;
    9ebc:	0c 4a       	mov	r10,	r12	;
    9ebe:	31 50 0e 00 	add	#14,	r1	;#0x000e
    9ec2:	30 40 a4 51 	br	#0x51a4		;

00009ec6 <__ratio>:
    9ec6:	0a 12       	push	r10		;
    9ec8:	09 12       	push	r9		;
    9eca:	08 12       	push	r8		;
    9ecc:	07 12       	push	r7		;
    9ece:	06 12       	push	r6		;
    9ed0:	05 12       	push	r5		;
    9ed2:	04 12       	push	r4		;
    9ed4:	31 80 0c 00 	sub	#12,	r1	;#0x000c
    9ed8:	09 4c       	mov	r12,	r9	;
    9eda:	0a 4d       	mov	r13,	r10	;
    9edc:	37 40 f4 9b 	mov	#39924,	r7	;#0x9bf4
    9ee0:	0d 41       	mov	r1,	r13	;
    9ee2:	3d 52       	add	#8,	r13	;r2 As==11
    9ee4:	87 12       	call	r7		;
    9ee6:	81 4c 00 00 	mov	r12,	0(r1)	;
    9eea:	81 4d 02 00 	mov	r13,	2(r1)	;
    9eee:	81 4e 04 00 	mov	r14,	4(r1)	;
    9ef2:	81 4f 06 00 	mov	r15,	6(r1)	;
    9ef6:	0c 4a       	mov	r10,	r12	;
    9ef8:	0d 41       	mov	r1,	r13	;
    9efa:	3d 50 0a 00 	add	#10,	r13	;#0x000a
    9efe:	87 12       	call	r7		;
    9f00:	04 4c       	mov	r12,	r4	;
    9f02:	05 4d       	mov	r13,	r5	;
    9f04:	06 4e       	mov	r14,	r6	;
    9f06:	07 4f       	mov	r15,	r7	;
    9f08:	1e 41 08 00 	mov	8(r1),	r14	;
    9f0c:	1e 81 0a 00 	sub	10(r1),	r14	;0x0000a
    9f10:	1d 49 08 00 	mov	8(r9),	r13	;
    9f14:	1d 8a 08 00 	sub	8(r10),	r13	;
    9f18:	0d 5d       	rla	r13		;
    9f1a:	0d 5d       	rla	r13		;
    9f1c:	0d 5d       	rla	r13		;
    9f1e:	0d 5d       	rla	r13		;
    9f20:	0d 5d       	rla	r13		;
    9f22:	0c 4e       	mov	r14,	r12	;
    9f24:	0c 5d       	add	r13,	r12	;
    9f26:	0d 43       	clr	r13		;
    9f28:	0d 9c       	cmp	r12,	r13	;
    9f2a:	12 34       	jge	$+38     	;abs 0x9f50
    9f2c:	3c b0 00 80 	bit	#32768,	r12	;#0x8000
    9f30:	0d 7d       	subc	r13,	r13	;
    9f32:	3d e3       	inv	r13		;
    9f34:	3e 40 14 00 	mov	#20,	r14	;#0x0014
    9f38:	b0 12 b4 c9 	call	#51636		;#0xc9b4
    9f3c:	1c 51 04 00 	add	4(r1),	r12	;
    9f40:	1d 61 06 00 	addc	6(r1),	r13	;
    9f44:	81 4c 04 00 	mov	r12,	4(r1)	;
    9f48:	81 4d 06 00 	mov	r13,	6(r1)	;
    9f4c:	30 40 6a 9f 	br	#0x9f6a		;
    9f50:	0d 43       	clr	r13		;
    9f52:	0d 8c       	sub	r12,	r13	;
    9f54:	0c 4d       	mov	r13,	r12	;
    9f56:	3c b0 00 80 	bit	#32768,	r12	;#0x8000
    9f5a:	0d 7d       	subc	r13,	r13	;
    9f5c:	3d e3       	inv	r13		;
    9f5e:	3e 40 14 00 	mov	#20,	r14	;#0x0014
    9f62:	b0 12 b4 c9 	call	#51636		;#0xc9b4
    9f66:	06 5c       	add	r12,	r6	;
    9f68:	07 6d       	addc	r13,	r7	;
    9f6a:	28 41       	mov	@r1,	r8	;
    9f6c:	19 41 02 00 	mov	2(r1),	r9	;
    9f70:	1a 41 04 00 	mov	4(r1),	r10	;
    9f74:	1b 41 06 00 	mov	6(r1),	r11	;
    9f78:	0c 44       	mov	r4,	r12	;
    9f7a:	0d 45       	mov	r5,	r13	;
    9f7c:	0e 46       	mov	r6,	r14	;
    9f7e:	0f 47       	mov	r7,	r15	;
    9f80:	b0 12 dc c0 	call	#49372		;#0xc0dc
    9f84:	31 50 0c 00 	add	#12,	r1	;#0x000c
    9f88:	30 40 a4 51 	br	#0x51a4		;

00009f8c <_mprec_log10>:
    9f8c:	0a 12       	push	r10		;
    9f8e:	09 12       	push	r9		;
    9f90:	08 12       	push	r8		;
    9f92:	07 12       	push	r7		;
    9f94:	06 12       	push	r6		;
    9f96:	07 4c       	mov	r12,	r7	;
    9f98:	3c 40 17 00 	mov	#23,	r12	;#0x0017
    9f9c:	0c 97       	cmp	r7,	r12	;
    9f9e:	0e 38       	jl	$+30     	;abs 0x9fbc
    9fa0:	07 57       	rla	r7		;
    9fa2:	07 57       	rla	r7		;
    9fa4:	07 57       	rla	r7		;
    9fa6:	37 50 0c 45 	add	#17676,	r7	;#0x450c
    9faa:	2c 47       	mov	@r7,	r12	;
    9fac:	1d 47 02 00 	mov	2(r7),	r13	;
    9fb0:	1e 47 04 00 	mov	4(r7),	r14	;
    9fb4:	1f 47 06 00 	mov	6(r7),	r15	;
    9fb8:	30 40 e4 9f 	br	#0x9fe4		;
    9fbc:	0c 43       	clr	r12		;
    9fbe:	0d 4c       	mov	r12,	r13	;
    9fc0:	0e 4c       	mov	r12,	r14	;
    9fc2:	3f 40 f0 3f 	mov	#16368,	r15	;#0x3ff0
    9fc6:	36 40 f6 bb 	mov	#48118,	r6	;#0xbbf6
    9fca:	08 4c       	mov	r12,	r8	;
    9fcc:	09 4d       	mov	r13,	r9	;
    9fce:	0a 4e       	mov	r14,	r10	;
    9fd0:	0b 4f       	mov	r15,	r11	;
    9fd2:	0c 43       	clr	r12		;
    9fd4:	0d 4c       	mov	r12,	r13	;
    9fd6:	0e 4c       	mov	r12,	r14	;
    9fd8:	3f 40 24 40 	mov	#16420,	r15	;#0x4024
    9fdc:	86 12       	call	r6		;
    9fde:	37 53       	add	#-1,	r7	;r3 As==11
    9fe0:	07 93       	cmp	#0,	r7	;r3 As==00
    9fe2:	f3 23       	jnz	$-24     	;abs 0x9fca
    9fe4:	30 40 a8 51 	br	#0x51a8		;

00009fe8 <__copybits>:
    9fe8:	0a 12       	push	r10		;
    9fea:	09 12       	push	r9		;
    9fec:	0a 4c       	mov	r12,	r10	;
    9fee:	09 4e       	mov	r14,	r9	;
    9ff0:	0c 4d       	mov	r13,	r12	;
    9ff2:	3c 53       	add	#-1,	r12	;r3 As==11
    9ff4:	b0 12 ce c9 	call	#51662		;#0xc9ce
    9ff8:	1c 53       	inc	r12		;
    9ffa:	0c 5c       	rla	r12		;
    9ffc:	0c 5c       	rla	r12		;
    9ffe:	0d 4a       	mov	r10,	r13	;
    a000:	0d 5c       	add	r12,	r13	;
    a002:	0f 49       	mov	r9,	r15	;
    a004:	3f 50 0a 00 	add	#10,	r15	;#0x000a
    a008:	1c 49 08 00 	mov	8(r9),	r12	;
    a00c:	0c 5c       	rla	r12		;
    a00e:	0c 5c       	rla	r12		;
    a010:	0e 4f       	mov	r15,	r14	;
    a012:	0e 5c       	add	r12,	r14	;
    a014:	0c 4a       	mov	r10,	r12	;
    a016:	0f 9e       	cmp	r14,	r15	;
    a018:	09 2c       	jc	$+20     	;abs 0xa02c
    a01a:	ac 4f 00 00 	mov	@r15,	0(r12)	;
    a01e:	9c 4f 02 00 	mov	2(r15),	2(r12)	;
    a022:	02 00 
    a024:	2c 52       	add	#4,	r12	;r2 As==10
    a026:	2f 52       	add	#4,	r15	;r2 As==10
    a028:	30 40 16 a0 	br	#0xa016		;
    a02c:	0c 9d       	cmp	r13,	r12	;
    a02e:	07 2c       	jc	$+16     	;abs 0xa03e
    a030:	8c 43 00 00 	mov	#0,	0(r12)	;r3 As==00
    a034:	8c 43 02 00 	mov	#0,	2(r12)	;r3 As==00
    a038:	2c 52       	add	#4,	r12	;r2 As==10
    a03a:	30 40 2c a0 	br	#0xa02c		;
    a03e:	30 40 ae 51 	br	#0x51ae		;

0000a042 <__any_on>:
    a042:	0a 12       	push	r10		;
    a044:	09 12       	push	r9		;
    a046:	08 12       	push	r8		;
    a048:	07 12       	push	r7		;
    a04a:	06 12       	push	r6		;
    a04c:	08 4d       	mov	r13,	r8	;
    a04e:	09 4c       	mov	r12,	r9	;
    a050:	39 50 0a 00 	add	#10,	r9	;#0x000a
    a054:	17 4c 08 00 	mov	8(r12),	r7	;
    a058:	0c 4d       	mov	r13,	r12	;
    a05a:	b0 12 ce c9 	call	#51662		;#0xc9ce
    a05e:	0a 4c       	mov	r12,	r10	;
    a060:	07 9c       	cmp	r12,	r7	;
    a062:	1b 38       	jl	$+56     	;abs 0xa09a
    a064:	0c 97       	cmp	r7,	r12	;
    a066:	1a 34       	jge	$+54     	;abs 0xa09c
    a068:	38 f0 1f 00 	and	#31,	r8	;#0x001f
    a06c:	08 93       	cmp	#0,	r8	;r3 As==00
    a06e:	16 24       	jz	$+46     	;abs 0xa09c
    a070:	0f 4c       	mov	r12,	r15	;
    a072:	0f 5c       	add	r12,	r15	;
    a074:	0f 5f       	rla	r15		;
    a076:	0f 59       	add	r9,	r15	;
    a078:	26 4f       	mov	@r15,	r6	;
    a07a:	17 4f 02 00 	mov	2(r15),	r7	;
    a07e:	0c 46       	mov	r6,	r12	;
    a080:	0d 47       	mov	r7,	r13	;
    a082:	0e 48       	mov	r8,	r14	;
    a084:	b0 12 62 52 	call	#21090		;#0x5262
    a088:	0e 48       	mov	r8,	r14	;
    a08a:	b0 12 b4 c9 	call	#51636		;#0xc9b4
    a08e:	0c 96       	cmp	r6,	r12	;
    a090:	17 20       	jnz	$+48     	;abs 0xa0c0
    a092:	0d 97       	cmp	r7,	r13	;
    a094:	15 20       	jnz	$+44     	;abs 0xa0c0
    a096:	30 40 9c a0 	br	#0xa09c		;
    a09a:	0a 47       	mov	r7,	r10	;
    a09c:	0a 5a       	rla	r10		;
    a09e:	0a 5a       	rla	r10		;
    a0a0:	0a 59       	add	r9,	r10	;
    a0a2:	09 9a       	cmp	r10,	r9	;
    a0a4:	09 2c       	jc	$+20     	;abs 0xa0b8
    a0a6:	3a 50 fc ff 	add	#65532,	r10	;#0xfffc
    a0aa:	2c 4a       	mov	@r10,	r12	;
    a0ac:	1c da 02 00 	bis	2(r10),	r12	;
    a0b0:	0c 93       	cmp	#0,	r12	;r3 As==00
    a0b2:	f7 27       	jz	$-16     	;abs 0xa0a2
    a0b4:	30 40 c0 a0 	br	#0xa0c0		;
    a0b8:	0c 43       	clr	r12		;
    a0ba:	0d 43       	clr	r13		;
    a0bc:	30 40 c4 a0 	br	#0xa0c4		;
    a0c0:	1c 43       	mov	#1,	r12	;r3 As==01
    a0c2:	0d 43       	clr	r13		;
    a0c4:	30 40 a8 51 	br	#0x51a8		;

0000a0c8 <_calloc_r>:
    a0c8:	0a 12       	push	r10		;
    a0ca:	09 12       	push	r9		;
    a0cc:	0a 4c       	mov	r12,	r10	;
    a0ce:	0c 4d       	mov	r13,	r12	;
    a0d0:	0d 4e       	mov	r14,	r13	;
    a0d2:	b0 12 68 52 	call	#21096		;#0x5268
    a0d6:	09 4c       	mov	r12,	r9	;
    a0d8:	0c 4a       	mov	r10,	r12	;
    a0da:	0d 49       	mov	r9,	r13	;
    a0dc:	b0 12 30 55 	call	#21808		;#0x5530
    a0e0:	0a 4c       	mov	r12,	r10	;
    a0e2:	0c 93       	cmp	#0,	r12	;r3 As==00
    a0e4:	04 24       	jz	$+10     	;abs 0xa0ee
    a0e6:	0d 43       	clr	r13		;
    a0e8:	0e 49       	mov	r9,	r14	;
    a0ea:	b0 12 42 90 	call	#36930		;#0x9042
    a0ee:	0c 4a       	mov	r10,	r12	;
    a0f0:	30 40 ae 51 	br	#0x51ae		;

0000a0f4 <_realloc_r>:
    a0f4:	0a 12       	push	r10		;
    a0f6:	09 12       	push	r9		;
    a0f8:	08 12       	push	r8		;
    a0fa:	07 12       	push	r7		;
    a0fc:	07 4c       	mov	r12,	r7	;
    a0fe:	08 4d       	mov	r13,	r8	;
    a100:	09 4e       	mov	r14,	r9	;
    a102:	0d 93       	cmp	#0,	r13	;r3 As==00
    a104:	05 20       	jnz	$+12     	;abs 0xa110
    a106:	0d 4e       	mov	r14,	r13	;
    a108:	b0 12 30 55 	call	#21808		;#0x5530
    a10c:	30 40 4c a1 	br	#0xa14c		;
    a110:	0e 93       	cmp	#0,	r14	;r3 As==00
    a112:	05 20       	jnz	$+12     	;abs 0xa11e
    a114:	b0 12 36 54 	call	#21558		;#0x5436
    a118:	0c 49       	mov	r9,	r12	;
    a11a:	30 40 4c a1 	br	#0xa14c		;
    a11e:	b0 12 16 b3 	call	#45846		;#0xb316
    a122:	0c 99       	cmp	r9,	r12	;
    a124:	12 2c       	jc	$+38     	;abs 0xa14a
    a126:	0c 47       	mov	r7,	r12	;
    a128:	0d 49       	mov	r9,	r13	;
    a12a:	b0 12 30 55 	call	#21808		;#0x5530
    a12e:	0a 4c       	mov	r12,	r10	;
    a130:	0c 93       	cmp	#0,	r12	;r3 As==00
    a132:	0c 24       	jz	$+26     	;abs 0xa14c
    a134:	0d 48       	mov	r8,	r13	;
    a136:	0e 49       	mov	r9,	r14	;
    a138:	b0 12 18 54 	call	#21528		;#0x5418
    a13c:	0c 47       	mov	r7,	r12	;
    a13e:	0d 48       	mov	r8,	r13	;
    a140:	b0 12 36 54 	call	#21558		;#0x5436
    a144:	0c 4a       	mov	r10,	r12	;
    a146:	30 40 4c a1 	br	#0xa14c		;
    a14a:	0c 48       	mov	r8,	r12	;
    a14c:	30 40 aa 51 	br	#0x51aa		;

0000a150 <cleanup_glue>:
    a150:	0a 12       	push	r10		;
    a152:	09 12       	push	r9		;
    a154:	09 4c       	mov	r12,	r9	;
    a156:	0a 4d       	mov	r13,	r10	;
    a158:	2d 4d       	mov	@r13,	r13	;
    a15a:	0d 93       	cmp	#0,	r13	;r3 As==00
    a15c:	02 24       	jz	$+6      	;abs 0xa162
    a15e:	b0 12 50 a1 	call	#41296		;#0xa150
    a162:	0c 49       	mov	r9,	r12	;
    a164:	0d 4a       	mov	r10,	r13	;
    a166:	b0 12 36 54 	call	#21558		;#0x5436
    a16a:	30 40 ae 51 	br	#0x51ae		;

0000a16e <_reclaim_reent>:
    a16e:	0a 12       	push	r10		;
    a170:	09 12       	push	r9		;
    a172:	08 12       	push	r8		;
    a174:	07 12       	push	r7		;
    a176:	1c 92 20 02 	cmp	&0x0220,r12	;0x0220
    a17a:	7d 24       	jz	$+252    	;abs 0xa276
    a17c:	0a 4c       	mov	r12,	r10	;
    a17e:	1c 4c 12 00 	mov	18(r12),r12	;0x00012
    a182:	0c 93       	cmp	#0,	r12	;r3 As==00
    a184:	27 24       	jz	$+80     	;abs 0xa1d4
    a186:	8c 93 06 00 	cmp	#0,	6(r12)	;r3 As==00
    a18a:	1c 24       	jz	$+58     	;abs 0xa1c4
    a18c:	09 43       	clr	r9		;
    a18e:	38 40 36 54 	mov	#21558,	r8	;#0x5436
    a192:	1c 4a 12 00 	mov	18(r10),r12	;0x00012
    a196:	1c 4c 06 00 	mov	6(r12),	r12	;
    a19a:	0c 59       	add	r9,	r12	;
    a19c:	2d 4c       	mov	@r12,	r13	;
    a19e:	0d 93       	cmp	#0,	r13	;r3 As==00
    a1a0:	06 24       	jz	$+14     	;abs 0xa1ae
    a1a2:	27 4d       	mov	@r13,	r7	;
    a1a4:	0c 4a       	mov	r10,	r12	;
    a1a6:	88 12       	call	r8		;
    a1a8:	0d 47       	mov	r7,	r13	;
    a1aa:	30 40 9e a1 	br	#0xa19e		;
    a1ae:	29 53       	incd	r9		;
    a1b0:	39 90 20 00 	cmp	#32,	r9	;#0x0020
    a1b4:	ee 23       	jnz	$-34     	;abs 0xa192
    a1b6:	1d 4a 12 00 	mov	18(r10),r13	;0x00012
    a1ba:	0c 4a       	mov	r10,	r12	;
    a1bc:	1d 4d 06 00 	mov	6(r13),	r13	;
    a1c0:	b0 12 36 54 	call	#21558		;#0x5436
    a1c4:	1c 4a 12 00 	mov	18(r10),r12	;0x00012
    a1c8:	2d 4c       	mov	@r12,	r13	;
    a1ca:	0d 93       	cmp	#0,	r13	;r3 As==00
    a1cc:	03 24       	jz	$+8      	;abs 0xa1d4
    a1ce:	0c 4a       	mov	r10,	r12	;
    a1d0:	b0 12 36 54 	call	#21558		;#0x5436
    a1d4:	1d 4a 0a 00 	mov	10(r10),r13	;0x0000a
    a1d8:	0d 93       	cmp	#0,	r13	;r3 As==00
    a1da:	03 24       	jz	$+8      	;abs 0xa1e2
    a1dc:	0c 4a       	mov	r10,	r12	;
    a1de:	b0 12 36 54 	call	#21558		;#0x5436
    a1e2:	1d 4a 12 00 	mov	18(r10),r13	;0x00012
    a1e6:	0d 93       	cmp	#0,	r13	;r3 As==00
    a1e8:	03 24       	jz	$+8      	;abs 0xa1f0
    a1ea:	0c 4a       	mov	r10,	r12	;
    a1ec:	b0 12 36 54 	call	#21558		;#0x5436
    a1f0:	1d 4a 1c 00 	mov	28(r10),r13	;0x0001c
    a1f4:	0d 93       	cmp	#0,	r13	;r3 As==00
    a1f6:	03 24       	jz	$+8      	;abs 0xa1fe
    a1f8:	0c 4a       	mov	r10,	r12	;
    a1fa:	b0 12 36 54 	call	#21558		;#0x5436
    a1fe:	1d 4a 1e 00 	mov	30(r10),r13	;0x0001e
    a202:	0d 93       	cmp	#0,	r13	;r3 As==00
    a204:	03 24       	jz	$+8      	;abs 0xa20c
    a206:	0c 4a       	mov	r10,	r12	;
    a208:	b0 12 36 54 	call	#21558		;#0x5436
    a20c:	1d 4a 20 00 	mov	32(r10),r13	;0x00020
    a210:	0d 93       	cmp	#0,	r13	;r3 As==00
    a212:	03 24       	jz	$+8      	;abs 0xa21a
    a214:	0c 4a       	mov	r10,	r12	;
    a216:	b0 12 36 54 	call	#21558		;#0x5436
    a21a:	1d 4a 76 00 	mov	118(r10),r13	;0x00076
    a21e:	0d 93       	cmp	#0,	r13	;r3 As==00
    a220:	03 24       	jz	$+8      	;abs 0xa228
    a222:	0c 4a       	mov	r10,	r12	;
    a224:	b0 12 36 54 	call	#21558		;#0x5436
    a228:	1d 4a 74 00 	mov	116(r10),r13	;0x00074
    a22c:	0d 93       	cmp	#0,	r13	;r3 As==00
    a22e:	03 24       	jz	$+8      	;abs 0xa236
    a230:	0c 4a       	mov	r10,	r12	;
    a232:	b0 12 36 54 	call	#21558		;#0x5436
    a236:	1c 4a 24 00 	mov	36(r10),r12	;0x00024
    a23a:	0c 93       	cmp	#0,	r12	;r3 As==00
    a23c:	07 24       	jz	$+16     	;abs 0xa24c
    a23e:	1d 4c 44 00 	mov	68(r12),r13	;0x00044
    a242:	0d 93       	cmp	#0,	r13	;r3 As==00
    a244:	03 24       	jz	$+8      	;abs 0xa24c
    a246:	0c 4a       	mov	r10,	r12	;
    a248:	b0 12 36 54 	call	#21558		;#0x5436
    a24c:	1d 4a 1a 00 	mov	26(r10),r13	;0x0001a
    a250:	0d 93       	cmp	#0,	r13	;r3 As==00
    a252:	03 24       	jz	$+8      	;abs 0xa25a
    a254:	0c 4a       	mov	r10,	r12	;
    a256:	b0 12 36 54 	call	#21558		;#0x5436
    a25a:	8a 93 0c 00 	cmp	#0,	12(r10)	;r3 As==00, 0x000c
    a25e:	0b 24       	jz	$+24     	;abs 0xa276
    a260:	0c 4a       	mov	r10,	r12	;
    a262:	1d 4a 14 00 	mov	20(r10),r13	;0x00014
    a266:	8d 12       	call	r13		;
    a268:	1d 4a 6c 00 	mov	108(r10),r13	;0x0006c
    a26c:	0d 93       	cmp	#0,	r13	;r3 As==00
    a26e:	03 24       	jz	$+8      	;abs 0xa276
    a270:	0c 4a       	mov	r10,	r12	;
    a272:	b0 12 50 a1 	call	#41296		;#0xa150
    a276:	30 40 aa 51 	br	#0x51aa		;

0000a27a <__fpclassifyd>:
    a27a:	0a 12       	push	r10		;
    a27c:	09 12       	push	r9		;
    a27e:	08 12       	push	r8		;
    a280:	09 4e       	mov	r14,	r9	;
    a282:	08 4f       	mov	r15,	r8	;
    a284:	0a 4c       	mov	r12,	r10	;
    a286:	0b 4f       	mov	r15,	r11	;
    a288:	3b f0 ff 7f 	and	#32767,	r11	;#0x7fff
    a28c:	0c 4e       	mov	r14,	r12	;
    a28e:	0c db       	bis	r11,	r12	;
    a290:	0c 93       	cmp	#0,	r12	;r3 As==00
    a292:	2b 24       	jz	$+88     	;abs 0xa2ea
    a294:	0c 49       	mov	r9,	r12	;
    a296:	0c 53       	add	#0,	r12	;r3 As==00
    a298:	0c 4f       	mov	r15,	r12	;
    a29a:	3c 60 f0 ff 	addc	#65520,	r12	;#0xfff0
    a29e:	3f 40 df 7f 	mov	#32735,	r15	;#0x7fdf
    a2a2:	0f 9c       	cmp	r12,	r15	;
    a2a4:	07 2c       	jc	$+16     	;abs 0xa2b4
    a2a6:	09 53       	add	#0,	r9	;r3 As==00
    a2a8:	38 60 f0 7f 	addc	#32752,	r8	;#0x7ff0
    a2ac:	3c 40 df 7f 	mov	#32735,	r12	;#0x7fdf
    a2b0:	0c 98       	cmp	r8,	r12	;
    a2b2:	03 28       	jnc	$+8      	;abs 0xa2ba
    a2b4:	2c 42       	mov	#4,	r12	;r2 As==10
    a2b6:	30 40 f4 a2 	br	#0xa2f4		;
    a2ba:	3f 40 0f 00 	mov	#15,	r15	;#0x000f
    a2be:	0f 9b       	cmp	r11,	r15	;
    a2c0:	04 28       	jnc	$+10     	;abs 0xa2ca
    a2c2:	3c 40 03 00 	mov	#3,	r12	;
    a2c6:	30 40 f4 a2 	br	#0xa2f4		;
    a2ca:	0e 93       	cmp	#0,	r14	;r3 As==00
    a2cc:	0b 20       	jnz	$+24     	;abs 0xa2e4
    a2ce:	3b 90 f0 7f 	cmp	#32752,	r11	;#0x7ff0
    a2d2:	08 20       	jnz	$+18     	;abs 0xa2e4
    a2d4:	1c 43       	mov	#1,	r12	;r3 As==01
    a2d6:	0b 4a       	mov	r10,	r11	;
    a2d8:	0b dd       	bis	r13,	r11	;
    a2da:	0b 93       	cmp	#0,	r11	;r3 As==00
    a2dc:	0b 24       	jz	$+24     	;abs 0xa2f4
    a2de:	0c 4e       	mov	r14,	r12	;
    a2e0:	30 40 f4 a2 	br	#0xa2f4		;
    a2e4:	0c 43       	clr	r12		;
    a2e6:	30 40 f4 a2 	br	#0xa2f4		;
    a2ea:	0c 4a       	mov	r10,	r12	;
    a2ec:	0c dd       	bis	r13,	r12	;
    a2ee:	0c 93       	cmp	#0,	r12	;r3 As==00
    a2f0:	da 23       	jnz	$-74     	;abs 0xa2a6
    a2f2:	2c 43       	mov	#2,	r12	;r3 As==10
    a2f4:	30 40 ac 51 	br	#0x51ac		;

0000a2f8 <__sread>:
    a2f8:	0a 12       	push	r10		;
    a2fa:	09 12       	push	r9		;
    a2fc:	08 12       	push	r8		;
    a2fe:	0a 4d       	mov	r13,	r10	;
    a300:	1d 4d 08 00 	mov	8(r13),	r13	;
    a304:	b0 12 32 b3 	call	#45874		;#0xb332
    a308:	0c 93       	cmp	#0,	r12	;r3 As==00
    a30a:	11 38       	jl	$+36     	;abs 0xa32e
    a30c:	0e 4c       	mov	r12,	r14	;
    a30e:	3e b0 00 80 	bit	#32768,	r14	;#0x8000
    a312:	0f 7f       	subc	r15,	r15	;
    a314:	3f e3       	inv	r15		;
    a316:	08 4e       	mov	r14,	r8	;
    a318:	09 4f       	mov	r15,	r9	;
    a31a:	18 5a 2e 00 	add	46(r10),r8	;0x0002e
    a31e:	19 6a 30 00 	addc	48(r10),r9	;0x00030
    a322:	8a 48 2e 00 	mov	r8,	46(r10)	; 0x002e
    a326:	8a 49 30 00 	mov	r9,	48(r10)	; 0x0030
    a32a:	30 40 34 a3 	br	#0xa334		;
    a32e:	ba f0 ff ef 	and	#61439,	6(r10)	;#0xefff
    a332:	06 00 
    a334:	30 40 ac 51 	br	#0x51ac		;

0000a338 <__seofread>:
    a338:	0c 43       	clr	r12		;
    a33a:	30 41       	ret			

0000a33c <__swrite>:
    a33c:	0a 12       	push	r10		;
    a33e:	09 12       	push	r9		;
    a340:	08 12       	push	r8		;
    a342:	07 12       	push	r7		;
    a344:	21 83       	decd	r1		;
    a346:	07 4c       	mov	r12,	r7	;
    a348:	0a 4d       	mov	r13,	r10	;
    a34a:	08 4e       	mov	r14,	r8	;
    a34c:	09 4f       	mov	r15,	r9	;
    a34e:	dd b3 07 00 	bit.b	#1,	7(r13)	;r3 As==01
    a352:	08 24       	jz	$+18     	;abs 0xa364
    a354:	1d 4d 08 00 	mov	8(r13),	r13	;
    a358:	a1 43 00 00 	mov	#2,	0(r1)	;r3 As==10
    a35c:	0e 43       	clr	r14		;
    a35e:	0f 43       	clr	r15		;
    a360:	b0 12 e8 b2 	call	#45800		;#0xb2e8
    a364:	ba f0 ff ef 	and	#61439,	6(r10)	;#0xefff
    a368:	06 00 
    a36a:	0c 47       	mov	r7,	r12	;
    a36c:	1d 4a 08 00 	mov	8(r10),	r13	;
    a370:	0e 48       	mov	r8,	r14	;
    a372:	0f 49       	mov	r9,	r15	;
    a374:	b0 12 24 b0 	call	#45092		;#0xb024
    a378:	21 53       	incd	r1		;
    a37a:	30 40 aa 51 	br	#0x51aa		;

0000a37e <__sseek>:
    a37e:	0a 12       	push	r10		;
    a380:	21 83       	decd	r1		;
    a382:	0a 4d       	mov	r13,	r10	;
    a384:	1d 4d 08 00 	mov	8(r13),	r13	;
    a388:	91 41 06 00 	mov	6(r1),	0(r1)	;
    a38c:	00 00 
    a38e:	b0 12 e8 b2 	call	#45800		;#0xb2e8
    a392:	3c 93       	cmp	#-1,	r12	;r3 As==11
    a394:	07 20       	jnz	$+16     	;abs 0xa3a4
    a396:	3d 93       	cmp	#-1,	r13	;r3 As==11
    a398:	05 20       	jnz	$+12     	;abs 0xa3a4
    a39a:	ba f0 ff ef 	and	#61439,	6(r10)	;#0xefff
    a39e:	06 00 
    a3a0:	30 40 b2 a3 	br	#0xa3b2		;
    a3a4:	ba d0 00 10 	bis	#4096,	6(r10)	;#0x1000
    a3a8:	06 00 
    a3aa:	8a 4c 2e 00 	mov	r12,	46(r10)	; 0x002e
    a3ae:	8a 4d 30 00 	mov	r13,	48(r10)	; 0x0030
    a3b2:	21 53       	incd	r1		;
    a3b4:	3a 41       	pop	r10		;
    a3b6:	30 41       	ret			

0000a3b8 <__sclose>:
    a3b8:	1d 4d 08 00 	mov	8(r13),	r13	;
    a3bc:	b0 12 4a b0 	call	#45130		;#0xb04a
    a3c0:	30 41       	ret			

0000a3c2 <__sprint_r>:
    a3c2:	0a 12       	push	r10		;
    a3c4:	09 12       	push	r9		;
    a3c6:	08 12       	push	r8		;
    a3c8:	07 12       	push	r7		;
    a3ca:	06 12       	push	r6		;
    a3cc:	05 12       	push	r5		;
    a3ce:	04 12       	push	r4		;
    a3d0:	21 83       	decd	r1		;
    a3d2:	06 4c       	mov	r12,	r6	;
    a3d4:	07 4d       	mov	r13,	r7	;
    a3d6:	0a 4e       	mov	r14,	r10	;
    a3d8:	8e 93 04 00 	cmp	#0,	4(r14)	;r3 As==00
    a3dc:	05 20       	jnz	$+12     	;abs 0xa3e8
    a3de:	8e 43 02 00 	mov	#0,	2(r14)	;r3 As==00
    a3e2:	0c 43       	clr	r12		;
    a3e4:	30 40 4a a4 	br	#0xa44a		;
    a3e8:	81 4c 00 00 	mov	r12,	0(r1)	;
    a3ec:	fd b0 20 00 	bit.b	#32,	59(r13)	;#0x0020, 0x003b
    a3f0:	3b 00 
    a3f2:	25 24       	jz	$+76     	;abs 0xa43e
    a3f4:	28 4e       	mov	@r14,	r8	;
    a3f6:	34 40 38 b1 	mov	#45368,	r4	;#0xb138
    a3fa:	8a 93 04 00 	cmp	#0,	4(r10)	;r3 As==00
    a3fe:	1c 24       	jz	$+58     	;abs 0xa438
    a400:	1c 48 02 00 	mov	2(r8),	r12	;
    a404:	b0 12 e8 51 	call	#20968		;#0x51e8
    a408:	09 4c       	mov	r12,	r9	;
    a40a:	26 48       	mov	@r8,	r6	;
    a40c:	05 43       	clr	r5		;
    a40e:	05 99       	cmp	r9,	r5	;
    a410:	0c 34       	jge	$+26     	;abs 0xa42a
    a412:	2c 41       	mov	@r1,	r12	;
    a414:	2d 46       	mov	@r6,	r13	;
    a416:	1e 46 02 00 	mov	2(r6),	r14	;
    a41a:	0f 47       	mov	r7,	r15	;
    a41c:	84 12       	call	r4		;
    a41e:	26 52       	add	#4,	r6	;r2 As==10
    a420:	3c 93       	cmp	#-1,	r12	;r3 As==11
    a422:	0f 24       	jz	$+32     	;abs 0xa442
    a424:	15 53       	inc	r5		;
    a426:	30 40 0e a4 	br	#0xa40e		;
    a42a:	09 59       	rla	r9		;
    a42c:	09 59       	rla	r9		;
    a42e:	8a 89 04 00 	sub	r9,	4(r10)	;
    a432:	28 52       	add	#4,	r8	;r2 As==10
    a434:	30 40 fa a3 	br	#0xa3fa		;
    a438:	0c 43       	clr	r12		;
    a43a:	30 40 42 a4 	br	#0xa442		;
    a43e:	b0 12 84 8a 	call	#35460		;#0x8a84
    a442:	8a 43 04 00 	mov	#0,	4(r10)	;r3 As==00
    a446:	8a 43 02 00 	mov	#0,	2(r10)	;r3 As==00
    a44a:	21 53       	incd	r1		;
    a44c:	30 40 a4 51 	br	#0x51a4		;

0000a450 <_vfiprintf_r>:
    a450:	0a 12       	push	r10		;
    a452:	09 12       	push	r9		;
    a454:	08 12       	push	r8		;
    a456:	07 12       	push	r7		;
    a458:	06 12       	push	r6		;
    a45a:	05 12       	push	r5		;
    a45c:	04 12       	push	r4		;
    a45e:	31 80 68 00 	sub	#104,	r1	;#0x0068
    a462:	07 4c       	mov	r12,	r7	;
    a464:	08 4d       	mov	r13,	r8	;
    a466:	81 4e 0a 00 	mov	r14,	10(r1)	; 0x000a
    a46a:	05 4f       	mov	r15,	r5	;
    a46c:	0c 93       	cmp	#0,	r12	;r3 As==00
    a46e:	05 24       	jz	$+12     	;abs 0xa47a
    a470:	8c 93 0c 00 	cmp	#0,	12(r12)	;r3 As==00, 0x000c
    a474:	02 20       	jnz	$+6      	;abs 0xa47a
    a476:	b0 12 64 88 	call	#34916		;#0x8864
    a47a:	38 90 94 44 	cmp	#17556,	r8	;#0x4494
    a47e:	04 20       	jnz	$+10     	;abs 0xa488
    a480:	18 47 02 00 	mov	2(r7),	r8	;
    a484:	30 40 a0 a4 	br	#0xa4a0		;
    a488:	38 90 82 44 	cmp	#17538,	r8	;#0x4482
    a48c:	04 20       	jnz	$+10     	;abs 0xa496
    a48e:	18 47 04 00 	mov	4(r7),	r8	;
    a492:	30 40 a0 a4 	br	#0xa4a0		;
    a496:	38 90 70 44 	cmp	#17520,	r8	;#0x4470
    a49a:	02 20       	jnz	$+6      	;abs 0xa4a0
    a49c:	18 47 06 00 	mov	6(r7),	r8	;
    a4a0:	1c 48 06 00 	mov	6(r8),	r12	;
    a4a4:	3c b0 00 20 	bit	#8192,	r12	;#0x2000
    a4a8:	07 20       	jnz	$+16     	;abs 0xa4b8
    a4aa:	3c d0 00 20 	bis	#8192,	r12	;#0x2000
    a4ae:	88 4c 06 00 	mov	r12,	6(r8)	;
    a4b2:	b8 f0 ff df 	and	#57343,	58(r8)	;#0xdfff, 0x003a
    a4b6:	3a 00 
    a4b8:	f8 b2 06 00 	bit.b	#8,	6(r8)	;r2 As==11
    a4bc:	0c 24       	jz	$+26     	;abs 0xa4d6
    a4be:	88 93 0a 00 	cmp	#0,	10(r8)	;r3 As==00, 0x000a
    a4c2:	09 24       	jz	$+20     	;abs 0xa4d6
    a4c4:	1c 48 06 00 	mov	6(r8),	r12	;
    a4c8:	3c f0 1a 00 	and	#26,	r12	;#0x001a
    a4cc:	3c 90 0a 00 	cmp	#10,	r12	;#0x000a
    a4d0:	17 20       	jnz	$+48     	;abs 0xa500
    a4d2:	30 40 e8 a4 	br	#0xa4e8		;
    a4d6:	0c 47       	mov	r7,	r12	;
    a4d8:	0d 48       	mov	r8,	r13	;
    a4da:	b0 12 de 6e 	call	#28382		;#0x6ede
    a4de:	0c 93       	cmp	#0,	r12	;r3 As==00
    a4e0:	f1 27       	jz	$-28     	;abs 0xa4c4
    a4e2:	3c 43       	mov	#-1,	r12	;r3 As==11
    a4e4:	30 40 7e af 	br	#0xaf7e		;
    a4e8:	88 93 08 00 	cmp	#0,	8(r8)	;r3 As==00
    a4ec:	09 38       	jl	$+20     	;abs 0xa500
    a4ee:	0c 47       	mov	r7,	r12	;
    a4f0:	0d 48       	mov	r8,	r13	;
    a4f2:	1e 41 0a 00 	mov	10(r1),	r14	;0x0000a
    a4f6:	0f 45       	mov	r5,	r15	;
    a4f8:	b0 12 9e af 	call	#44958		;#0xaf9e
    a4fc:	30 40 7e af 	br	#0xaf7e		;
    a500:	3c 40 20 00 	mov	#32,	r12	;#0x0020
    a504:	0c 51       	add	r1,	r12	;
    a506:	81 4c 1a 00 	mov	r12,	26(r1)	; 0x001a
    a50a:	81 43 1e 00 	mov	#0,	30(r1)	;r3 As==00, 0x001e
    a50e:	81 43 1c 00 	mov	#0,	28(r1)	;r3 As==00, 0x001c
    a512:	0a 4c       	mov	r12,	r10	;
    a514:	81 43 10 00 	mov	#0,	16(r1)	;r3 As==00, 0x0010
    a518:	91 41 10 00 	mov	16(r1),	14(r1)	;0x00010, 0x000e
    a51c:	0e 00 
    a51e:	19 41 0a 00 	mov	10(r1),	r9	;0x0000a
    a522:	6c 49       	mov.b	@r9,	r12	;
    a524:	0c 93       	cmp	#0,	r12	;r3 As==00
    a526:	07 20       	jnz	$+16     	;abs 0xa536
    a528:	06 49       	mov	r9,	r6	;
    a52a:	16 81 0a 00 	sub	10(r1),	r6	;0x0000a
    a52e:	06 93       	cmp	#0,	r6	;r3 As==00
    a530:	08 20       	jnz	$+18     	;abs 0xa542
    a532:	30 40 88 a5 	br	#0xa588		;
    a536:	3c 90 25 00 	cmp	#37,	r12	;#0x0025
    a53a:	f6 27       	jz	$-18     	;abs 0xa528
    a53c:	19 53       	inc	r9		;
    a53e:	30 40 22 a5 	br	#0xa522		;
    a542:	9a 41 0a 00 	mov	10(r1),	0(r10)	;0x0000a
    a546:	00 00 
    a548:	8a 46 02 00 	mov	r6,	2(r10)	;
    a54c:	81 56 1e 00 	add	r6,	30(r1)	; 0x001e
    a550:	1c 41 1c 00 	mov	28(r1),	r12	;0x0001c
    a554:	1c 53       	inc	r12		;
    a556:	81 4c 1c 00 	mov	r12,	28(r1)	; 0x001c
    a55a:	3d 40 07 00 	mov	#7,	r13	;
    a55e:	0d 9c       	cmp	r12,	r13	;
    a560:	03 38       	jl	$+8      	;abs 0xa568
    a562:	2a 52       	add	#4,	r10	;r2 As==10
    a564:	30 40 84 a5 	br	#0xa584		;
    a568:	0c 47       	mov	r7,	r12	;
    a56a:	0d 48       	mov	r8,	r13	;
    a56c:	0e 41       	mov	r1,	r14	;
    a56e:	3e 50 1a 00 	add	#26,	r14	;#0x001a
    a572:	b0 12 c2 a3 	call	#41922		;#0xa3c2
    a576:	0c 93       	cmp	#0,	r12	;r3 As==00
    a578:	02 24       	jz	$+6      	;abs 0xa57e
    a57a:	30 40 5e af 	br	#0xaf5e		;
    a57e:	0a 41       	mov	r1,	r10	;
    a580:	3a 50 20 00 	add	#32,	r10	;#0x0020
    a584:	81 56 0e 00 	add	r6,	14(r1)	; 0x000e
    a588:	c9 93 00 00 	cmp.b	#0,	0(r9)	;r3 As==00
    a58c:	02 20       	jnz	$+6      	;abs 0xa592
    a58e:	30 40 4a af 	br	#0xaf4a		;
    a592:	0c 49       	mov	r9,	r12	;
    a594:	1c 53       	inc	r12		;
    a596:	c1 43 17 00 	mov.b	#0,	23(r1)	;r3 As==00, 0x0017
    a59a:	0d 43       	clr	r13		;
    a59c:	36 43       	mov	#-1,	r6	;r3 As==11
    a59e:	81 4d 08 00 	mov	r13,	8(r1)	;
    a5a2:	09 4d       	mov	r13,	r9	;
    a5a4:	04 4c       	mov	r12,	r4	;
    a5a6:	14 53       	inc	r4		;
    a5a8:	81 44 0a 00 	mov	r4,	10(r1)	; 0x000a
    a5ac:	6c 4c       	mov.b	@r12,	r12	;
    a5ae:	3c 90 58 00 	cmp	#88,	r12	;#0x0058
    a5b2:	a5 24       	jz	$+332    	;abs 0xa6fe
    a5b4:	3e 40 58 00 	mov	#88,	r14	;#0x0058
    a5b8:	0e 9c       	cmp	r12,	r14	;
    a5ba:	47 38       	jl	$+144    	;abs 0xa64a
    a5bc:	3c 90 2e 00 	cmp	#46,	r12	;#0x002e
    a5c0:	bc 24       	jz	$+378    	;abs 0xa73a
    a5c2:	3f 40 2e 00 	mov	#46,	r15	;#0x002e
    a5c6:	0f 9c       	cmp	r12,	r15	;
    a5c8:	1f 38       	jl	$+64     	;abs 0xa608
    a5ca:	3c 90 2a 00 	cmp	#42,	r12	;#0x002a
    a5ce:	a3 24       	jz	$+328    	;abs 0xa716
    a5d0:	34 40 2a 00 	mov	#42,	r4	;#0x002a
    a5d4:	04 9c       	cmp	r12,	r4	;
    a5d6:	0d 38       	jl	$+28     	;abs 0xa5f2
    a5d8:	3c 90 20 00 	cmp	#32,	r12	;#0x0020
    a5dc:	98 24       	jz	$+306    	;abs 0xa70e
    a5de:	3c 90 23 00 	cmp	#35,	r12	;#0x0023
    a5e2:	02 24       	jz	$+6      	;abs 0xa5e8
    a5e4:	30 40 80 ab 	br	#0xab80		;
    a5e8:	19 d3       	bis	#1,	r9	;r3 As==01
    a5ea:	1c 41 0a 00 	mov	10(r1),	r12	;0x0000a
    a5ee:	30 40 a4 a5 	br	#0xa5a4		;
    a5f2:	3c 90 2b 00 	cmp	#43,	r12	;#0x002b
    a5f6:	03 20       	jnz	$+8      	;abs 0xa5fe
    a5f8:	0d 4c       	mov	r12,	r13	;
    a5fa:	30 40 ea a5 	br	#0xa5ea		;
    a5fe:	3c 90 2d 00 	cmp	#45,	r12	;#0x002d
    a602:	98 24       	jz	$+306    	;abs 0xa734
    a604:	30 40 80 ab 	br	#0xab80		;
    a608:	3e 40 39 00 	mov	#57,	r14	;#0x0039
    a60c:	0e 9c       	cmp	r12,	r14	;
    a60e:	0c 38       	jl	$+26     	;abs 0xa628
    a610:	3c 90 31 00 	cmp	#49,	r12	;#0x0031
    a614:	c5 34       	jge	$+396    	;abs 0xa7a0
    a616:	3c 90 30 00 	cmp	#48,	r12	;#0x0030
    a61a:	02 24       	jz	$+6      	;abs 0xa620
    a61c:	30 40 80 ab 	br	#0xab80		;
    a620:	39 d0 80 00 	bis	#128,	r9	;#0x0080
    a624:	30 40 ea a5 	br	#0xa5ea		;
    a628:	3c 90 4f 00 	cmp	#79,	r12	;#0x004f
    a62c:	40 25       	jz	$+642    	;abs 0xa8ae
    a62e:	3c 90 55 00 	cmp	#85,	r12	;#0x0055
    a632:	8a 25       	jz	$+790    	;abs 0xa948
    a634:	3c 90 44 00 	cmp	#68,	r12	;#0x0044
    a638:	02 24       	jz	$+6      	;abs 0xa63e
    a63a:	30 40 80 ab 	br	#0xab80		;
    a63e:	c1 4d 17 00 	mov.b	r13,	23(r1)	; 0x0017
    a642:	39 d0 10 00 	bis	#16,	r9	;#0x0010
    a646:	30 40 10 a8 	br	#0xa810		;
    a64a:	3c 90 6e 00 	cmp	#110,	r12	;#0x006e
    a64e:	13 25       	jz	$+552    	;abs 0xa876
    a650:	3f 40 6e 00 	mov	#110,	r15	;#0x006e
    a654:	0f 9c       	cmp	r12,	r15	;
    a656:	17 38       	jl	$+48     	;abs 0xa686
    a658:	3c 90 68 00 	cmp	#104,	r12	;#0x0068
    a65c:	bf 24       	jz	$+384    	;abs 0xa7dc
    a65e:	34 40 68 00 	mov	#104,	r4	;#0x0068
    a662:	04 9c       	cmp	r12,	r4	;
    a664:	08 38       	jl	$+18     	;abs 0xa676
    a666:	3c 90 63 00 	cmp	#99,	r12	;#0x0063
    a66a:	c0 24       	jz	$+386    	;abs 0xa7ec
    a66c:	3c 90 64 00 	cmp	#100,	r12	;#0x0064
    a670:	42 24       	jz	$+134    	;abs 0xa6f6
    a672:	30 40 80 ab 	br	#0xab80		;
    a676:	3c 90 69 00 	cmp	#105,	r12	;#0x0069
    a67a:	3d 24       	jz	$+124    	;abs 0xa6f6
    a67c:	3c 90 6c 00 	cmp	#108,	r12	;#0x006c
    a680:	b1 24       	jz	$+356    	;abs 0xa7e4
    a682:	30 40 80 ab 	br	#0xab80		;
    a686:	3c 90 71 00 	cmp	#113,	r12	;#0x0071
    a68a:	ac 24       	jz	$+346    	;abs 0xa7e4
    a68c:	3e 40 71 00 	mov	#113,	r14	;#0x0071
    a690:	0e 9c       	cmp	r12,	r14	;
    a692:	1e 38       	jl	$+62     	;abs 0xa6d0
    a694:	3c 90 6f 00 	cmp	#111,	r12	;#0x006f
    a698:	2b 24       	jz	$+88     	;abs 0xa6f0
    a69a:	3c 90 70 00 	cmp	#112,	r12	;#0x0070
    a69e:	02 24       	jz	$+6      	;abs 0xa6a4
    a6a0:	30 40 80 ab 	br	#0xab80		;
    a6a4:	04 45       	mov	r5,	r4	;
    a6a6:	24 53       	incd	r4		;
    a6a8:	81 44 06 00 	mov	r4,	6(r1)	;
    a6ac:	a1 45 02 00 	mov	@r5,	2(r1)	;
    a6b0:	81 43 04 00 	mov	#0,	4(r1)	;r3 As==00
    a6b4:	0d 49       	mov	r9,	r13	;
    a6b6:	2d d3       	bis	#2,	r13	;r3 As==10
    a6b8:	f1 40 30 00 	mov.b	#48,	24(r1)	;#0x0030, 0x0018
    a6bc:	18 00 
    a6be:	f1 40 78 00 	mov.b	#120,	25(r1)	;#0x0078, 0x0019
    a6c2:	19 00 
    a6c4:	b1 40 e5 45 	mov	#17893,	16(r1)	;#0x45e5, 0x0010
    a6c8:	10 00 
    a6ca:	2c 43       	mov	#2,	r12	;r3 As==10
    a6cc:	30 40 1a aa 	br	#0xaa1a		;
    a6d0:	3c 90 75 00 	cmp	#117,	r12	;#0x0075
    a6d4:	0a 24       	jz	$+22     	;abs 0xa6ea
    a6d6:	3c 90 78 00 	cmp	#120,	r12	;#0x0078
    a6da:	62 25       	jz	$+710    	;abs 0xa9a0
    a6dc:	3c 90 73 00 	cmp	#115,	r12	;#0x0073
    a6e0:	02 24       	jz	$+6      	;abs 0xa6e6
    a6e2:	30 40 80 ab 	br	#0xab80		;
    a6e6:	30 40 04 a9 	br	#0xa904		;
    a6ea:	0d 49       	mov	r9,	r13	;
    a6ec:	30 40 4e a9 	br	#0xa94e		;
    a6f0:	0d 49       	mov	r9,	r13	;
    a6f2:	30 40 b4 a8 	br	#0xa8b4		;
    a6f6:	c1 4d 17 00 	mov.b	r13,	23(r1)	; 0x0017
    a6fa:	30 40 10 a8 	br	#0xa810		;
    a6fe:	c1 4d 17 00 	mov.b	r13,	23(r1)	; 0x0017
    a702:	0d 49       	mov	r9,	r13	;
    a704:	b1 40 d4 45 	mov	#17876,	16(r1)	;#0x45d4, 0x0010
    a708:	10 00 
    a70a:	30 40 ac a9 	br	#0xa9ac		;
    a70e:	0d 93       	cmp	#0,	r13	;r3 As==00
    a710:	6c 23       	jnz	$-294    	;abs 0xa5ea
    a712:	30 40 f8 a5 	br	#0xa5f8		;
    a716:	0f 45       	mov	r5,	r15	;
    a718:	1f 53       	inc	r15		;
    a71a:	1f c3       	bic	#1,	r15	;r3 As==01
    a71c:	05 4f       	mov	r15,	r5	;
    a71e:	25 53       	incd	r5		;
    a720:	a1 4f 08 00 	mov	@r15,	8(r1)	;
    a724:	81 93 08 00 	cmp	#0,	8(r1)	;r3 As==00
    a728:	60 37       	jge	$-318    	;abs 0xa5ea
    a72a:	04 43       	clr	r4		;
    a72c:	14 81 08 00 	sub	8(r1),	r4	;
    a730:	81 44 08 00 	mov	r4,	8(r1)	;
    a734:	29 d2       	bis	#4,	r9	;r2 As==10
    a736:	30 40 ea a5 	br	#0xa5ea		;
    a73a:	1e 41 0a 00 	mov	10(r1),	r14	;0x0000a
    a73e:	1e 53       	inc	r14		;
    a740:	14 41 0a 00 	mov	10(r1),	r4	;0x0000a
    a744:	6c 44       	mov.b	@r4,	r12	;
    a746:	3c 90 2a 00 	cmp	#42,	r12	;#0x002a
    a74a:	03 24       	jz	$+8      	;abs 0xa752
    a74c:	0f 43       	clr	r15		;
    a74e:	30 40 6c a7 	br	#0xa76c		;
    a752:	81 4e 0a 00 	mov	r14,	10(r1)	; 0x000a
    a756:	0f 45       	mov	r5,	r15	;
    a758:	1f 53       	inc	r15		;
    a75a:	1f c3       	bic	#1,	r15	;r3 As==01
    a75c:	05 4f       	mov	r15,	r5	;
    a75e:	25 53       	incd	r5		;
    a760:	26 4f       	mov	@r15,	r6	;
    a762:	06 93       	cmp	#0,	r6	;r3 As==00
    a764:	42 37       	jge	$-378    	;abs 0xa5ea
    a766:	36 43       	mov	#-1,	r6	;r3 As==11
    a768:	30 40 ea a5 	br	#0xa5ea		;
    a76c:	81 4e 0a 00 	mov	r14,	10(r1)	; 0x000a
    a770:	06 4c       	mov	r12,	r6	;
    a772:	36 50 d0 ff 	add	#65488,	r6	;#0xffd0
    a776:	34 40 09 00 	mov	#9,	r4	;
    a77a:	04 96       	cmp	r6,	r4	;
    a77c:	0b 28       	jnc	$+24     	;abs 0xa794
    a77e:	0c 4f       	mov	r15,	r12	;
    a780:	0c 5f       	add	r15,	r12	;
    a782:	0c 5c       	rla	r12		;
    a784:	0c 5f       	add	r15,	r12	;
    a786:	0c 5c       	rla	r12		;
    a788:	0f 4c       	mov	r12,	r15	;
    a78a:	0f 56       	add	r6,	r15	;
    a78c:	6c 4e       	mov.b	@r14,	r12	;
    a78e:	1e 53       	inc	r14		;
    a790:	30 40 6c a7 	br	#0xa76c		;
    a794:	06 4f       	mov	r15,	r6	;
    a796:	0f 93       	cmp	#0,	r15	;r3 As==00
    a798:	0a 37       	jge	$-490    	;abs 0xa5ae
    a79a:	36 43       	mov	#-1,	r6	;r3 As==11
    a79c:	30 40 ae a5 	br	#0xa5ae		;
    a7a0:	1f 41 0a 00 	mov	10(r1),	r15	;0x0000a
    a7a4:	81 43 08 00 	mov	#0,	8(r1)	;r3 As==00
    a7a8:	1e 41 08 00 	mov	8(r1),	r14	;
    a7ac:	0e 5e       	rla	r14		;
    a7ae:	0e 5e       	rla	r14		;
    a7b0:	1e 51 08 00 	add	8(r1),	r14	;
    a7b4:	0e 5e       	rla	r14		;
    a7b6:	3c 50 d0 ff 	add	#65488,	r12	;#0xffd0
    a7ba:	0e 5c       	add	r12,	r14	;
    a7bc:	81 4e 08 00 	mov	r14,	8(r1)	;
    a7c0:	91 53 0a 00 	inc	10(r1)		;
    a7c4:	6c 4f       	mov.b	@r15,	r12	;
    a7c6:	1f 41 0a 00 	mov	10(r1),	r15	;0x0000a
    a7ca:	0e 4c       	mov	r12,	r14	;
    a7cc:	3e 50 d0 ff 	add	#65488,	r14	;#0xffd0
    a7d0:	34 40 09 00 	mov	#9,	r4	;
    a7d4:	04 9e       	cmp	r14,	r4	;
    a7d6:	e8 2f       	jc	$-46     	;abs 0xa7a8
    a7d8:	30 40 ae a5 	br	#0xa5ae		;
    a7dc:	39 d0 40 00 	bis	#64,	r9	;#0x0040
    a7e0:	30 40 ea a5 	br	#0xa5ea		;
    a7e4:	39 d0 10 00 	bis	#16,	r9	;#0x0010
    a7e8:	30 40 ea a5 	br	#0xa5ea		;
    a7ec:	15 53       	inc	r5		;
    a7ee:	15 c3       	bic	#1,	r5	;r3 As==01
    a7f0:	04 45       	mov	r5,	r4	;
    a7f2:	24 53       	incd	r4		;
    a7f4:	81 44 06 00 	mov	r4,	6(r1)	;
    a7f8:	e1 45 40 00 	mov.b	@r5,	64(r1)	; 0x0040
    a7fc:	c1 43 17 00 	mov.b	#0,	23(r1)	;r3 As==00, 0x0017
    a800:	91 43 0c 00 	mov	#1,	12(r1)	;r3 As==01, 0x000c
    a804:	06 43       	clr	r6		;
    a806:	04 41       	mov	r1,	r4	;
    a808:	34 50 40 00 	add	#64,	r4	;#0x0040
    a80c:	30 40 a6 ab 	br	#0xaba6		;
    a810:	15 53       	inc	r5		;
    a812:	15 c3       	bic	#1,	r5	;r3 As==01
    a814:	04 45       	mov	r5,	r4	;
    a816:	39 b0 10 00 	bit	#16,	r9	;#0x0010
    a81a:	0a 24       	jz	$+22     	;abs 0xa830
    a81c:	24 52       	add	#4,	r4	;r2 As==10
    a81e:	81 44 06 00 	mov	r4,	6(r1)	;
    a822:	a1 45 02 00 	mov	@r5,	2(r1)	;
    a826:	91 45 02 00 	mov	2(r5),	4(r1)	;
    a82a:	04 00 
    a82c:	30 40 4a a8 	br	#0xa84a		;
    a830:	24 53       	incd	r4		;
    a832:	81 44 06 00 	mov	r4,	6(r1)	;
    a836:	2c 45       	mov	@r5,	r12	;
    a838:	0d 4c       	mov	r12,	r13	;
    a83a:	3d b0 00 80 	bit	#32768,	r13	;#0x8000
    a83e:	0e 7e       	subc	r14,	r14	;
    a840:	3e e3       	inv	r14		;
    a842:	81 4d 02 00 	mov	r13,	2(r1)	;
    a846:	81 4e 04 00 	mov	r14,	4(r1)	;
    a84a:	1c 41 04 00 	mov	4(r1),	r12	;
    a84e:	0c 93       	cmp	#0,	r12	;r3 As==00
    a850:	e9 34       	jge	$+468    	;abs 0xaa24
    a852:	0c 43       	clr	r12		;
    a854:	0d 43       	clr	r13		;
    a856:	0e 4c       	mov	r12,	r14	;
    a858:	0f 4d       	mov	r13,	r15	;
    a85a:	1e 81 02 00 	sub	2(r1),	r14	;
    a85e:	1f 71 04 00 	subc	4(r1),	r15	;
    a862:	81 4e 02 00 	mov	r14,	2(r1)	;
    a866:	81 4f 04 00 	mov	r15,	4(r1)	;
    a86a:	f1 40 2d 00 	mov.b	#45,	23(r1)	;#0x002d, 0x0017
    a86e:	17 00 
    a870:	1c 43       	mov	#1,	r12	;r3 As==01
    a872:	30 40 26 aa 	br	#0xaa26		;
    a876:	c1 4d 17 00 	mov.b	r13,	23(r1)	; 0x0017
    a87a:	0c 45       	mov	r5,	r12	;
    a87c:	2c 53       	incd	r12		;
    a87e:	2d 45       	mov	@r5,	r13	;
    a880:	39 b0 10 00 	bit	#16,	r9	;#0x0010
    a884:	0e 24       	jz	$+30     	;abs 0xa8a2
    a886:	1f 41 0e 00 	mov	14(r1),	r15	;0x0000e
    a88a:	0e 4f       	mov	r15,	r14	;
    a88c:	3e b0 00 80 	bit	#32768,	r14	;#0x8000
    a890:	0f 7f       	subc	r15,	r15	;
    a892:	3f e3       	inv	r15		;
    a894:	8d 4e 00 00 	mov	r14,	0(r13)	;
    a898:	8d 4f 02 00 	mov	r15,	2(r13)	;
    a89c:	05 4c       	mov	r12,	r5	;
    a89e:	30 40 1e a5 	br	#0xa51e		;
    a8a2:	9d 41 0e 00 	mov	14(r1),	0(r13)	;0x0000e
    a8a6:	00 00 
    a8a8:	05 4c       	mov	r12,	r5	;
    a8aa:	30 40 1e a5 	br	#0xa51e		;
    a8ae:	0d 49       	mov	r9,	r13	;
    a8b0:	3d d0 10 00 	bis	#16,	r13	;#0x0010
    a8b4:	0e 4d       	mov	r13,	r14	;
    a8b6:	3e f0 10 00 	and	#16,	r14	;#0x0010
    a8ba:	15 53       	inc	r5		;
    a8bc:	0e 93       	cmp	#0,	r14	;r3 As==00
    a8be:	0d 24       	jz	$+28     	;abs 0xa8da
    a8c0:	15 c3       	bic	#1,	r5	;r3 As==01
    a8c2:	04 45       	mov	r5,	r4	;
    a8c4:	24 52       	add	#4,	r4	;r2 As==10
    a8c6:	81 44 06 00 	mov	r4,	6(r1)	;
    a8ca:	a1 45 02 00 	mov	@r5,	2(r1)	;
    a8ce:	91 45 02 00 	mov	2(r5),	4(r1)	;
    a8d2:	04 00 
    a8d4:	0c 43       	clr	r12		;
    a8d6:	30 40 1a aa 	br	#0xaa1a		;
    a8da:	0c 4d       	mov	r13,	r12	;
    a8dc:	3c f0 40 00 	and	#64,	r12	;#0x0040
    a8e0:	15 c3       	bic	#1,	r5	;r3 As==01
    a8e2:	04 45       	mov	r5,	r4	;
    a8e4:	24 53       	incd	r4		;
    a8e6:	81 44 06 00 	mov	r4,	6(r1)	;
    a8ea:	a1 45 02 00 	mov	@r5,	2(r1)	;
    a8ee:	0c 93       	cmp	#0,	r12	;r3 As==00
    a8f0:	05 24       	jz	$+12     	;abs 0xa8fc
    a8f2:	81 4e 04 00 	mov	r14,	4(r1)	;
    a8f6:	0c 4e       	mov	r14,	r12	;
    a8f8:	30 40 1a aa 	br	#0xaa1a		;
    a8fc:	81 4c 04 00 	mov	r12,	4(r1)	;
    a900:	30 40 1a aa 	br	#0xaa1a		;
    a904:	81 46 0c 00 	mov	r6,	12(r1)	; 0x000c
    a908:	04 45       	mov	r5,	r4	;
    a90a:	24 53       	incd	r4		;
    a90c:	81 44 06 00 	mov	r4,	6(r1)	;
    a910:	24 45       	mov	@r5,	r4	;
    a912:	c1 43 17 00 	mov.b	#0,	23(r1)	;r3 As==00, 0x0017
    a916:	0c 44       	mov	r4,	r12	;
    a918:	06 93       	cmp	#0,	r6	;r3 As==00
    a91a:	0f 38       	jl	$+32     	;abs 0xa93a
    a91c:	0d 43       	clr	r13		;
    a91e:	0e 46       	mov	r6,	r14	;
    a920:	b0 12 e4 8f 	call	#36836		;#0x8fe4
    a924:	0c 93       	cmp	#0,	r12	;r3 As==00
    a926:	3e 25       	jz	$+638    	;abs 0xaba4
    a928:	0c 84       	sub	r4,	r12	;
    a92a:	81 4c 0c 00 	mov	r12,	12(r1)	; 0x000c
    a92e:	06 9c       	cmp	r12,	r6	;
    a930:	08 34       	jge	$+18     	;abs 0xa942
    a932:	81 46 0c 00 	mov	r6,	12(r1)	; 0x000c
    a936:	30 40 42 a9 	br	#0xa942		;
    a93a:	b0 12 4c 57 	call	#22348		;#0x574c
    a93e:	81 4c 0c 00 	mov	r12,	12(r1)	; 0x000c
    a942:	06 43       	clr	r6		;
    a944:	30 40 a6 ab 	br	#0xaba6		;
    a948:	0d 49       	mov	r9,	r13	;
    a94a:	3d d0 10 00 	bis	#16,	r13	;#0x0010
    a94e:	0c 4d       	mov	r13,	r12	;
    a950:	3c f0 10 00 	and	#16,	r12	;#0x0010
    a954:	15 53       	inc	r5		;
    a956:	0c 93       	cmp	#0,	r12	;r3 As==00
    a958:	0d 24       	jz	$+28     	;abs 0xa974
    a95a:	15 c3       	bic	#1,	r5	;r3 As==01
    a95c:	04 45       	mov	r5,	r4	;
    a95e:	24 52       	add	#4,	r4	;r2 As==10
    a960:	81 44 06 00 	mov	r4,	6(r1)	;
    a964:	a1 45 02 00 	mov	@r5,	2(r1)	;
    a968:	91 45 02 00 	mov	2(r5),	4(r1)	;
    a96c:	04 00 
    a96e:	1c 43       	mov	#1,	r12	;r3 As==01
    a970:	30 40 1a aa 	br	#0xaa1a		;
    a974:	0e 4d       	mov	r13,	r14	;
    a976:	3e f0 40 00 	and	#64,	r14	;#0x0040
    a97a:	15 c3       	bic	#1,	r5	;r3 As==01
    a97c:	04 45       	mov	r5,	r4	;
    a97e:	24 53       	incd	r4		;
    a980:	81 44 06 00 	mov	r4,	6(r1)	;
    a984:	a1 45 02 00 	mov	@r5,	2(r1)	;
    a988:	0e 93       	cmp	#0,	r14	;r3 As==00
    a98a:	05 24       	jz	$+12     	;abs 0xa996
    a98c:	81 4c 04 00 	mov	r12,	4(r1)	;
    a990:	1c 43       	mov	#1,	r12	;r3 As==01
    a992:	30 40 1a aa 	br	#0xaa1a		;
    a996:	81 4e 04 00 	mov	r14,	4(r1)	;
    a99a:	1c 43       	mov	#1,	r12	;r3 As==01
    a99c:	30 40 1a aa 	br	#0xaa1a		;
    a9a0:	c1 4d 17 00 	mov.b	r13,	23(r1)	; 0x0017
    a9a4:	0d 49       	mov	r9,	r13	;
    a9a6:	b1 40 e5 45 	mov	#17893,	16(r1)	;#0x45e5, 0x0010
    a9aa:	10 00 
    a9ac:	0e 49       	mov	r9,	r14	;
    a9ae:	3e f0 10 00 	and	#16,	r14	;#0x0010
    a9b2:	15 53       	inc	r5		;
    a9b4:	0e 93       	cmp	#0,	r14	;r3 As==00
    a9b6:	0c 24       	jz	$+26     	;abs 0xa9d0
    a9b8:	15 c3       	bic	#1,	r5	;r3 As==01
    a9ba:	04 45       	mov	r5,	r4	;
    a9bc:	24 52       	add	#4,	r4	;r2 As==10
    a9be:	81 44 06 00 	mov	r4,	6(r1)	;
    a9c2:	a1 45 02 00 	mov	@r5,	2(r1)	;
    a9c6:	91 45 02 00 	mov	2(r5),	4(r1)	;
    a9ca:	04 00 
    a9cc:	30 40 f4 a9 	br	#0xa9f4		;
    a9d0:	0f 49       	mov	r9,	r15	;
    a9d2:	3f f0 40 00 	and	#64,	r15	;#0x0040
    a9d6:	15 c3       	bic	#1,	r5	;r3 As==01
    a9d8:	04 45       	mov	r5,	r4	;
    a9da:	24 53       	incd	r4		;
    a9dc:	81 44 06 00 	mov	r4,	6(r1)	;
    a9e0:	a1 45 02 00 	mov	@r5,	2(r1)	;
    a9e4:	0f 93       	cmp	#0,	r15	;r3 As==00
    a9e6:	04 24       	jz	$+10     	;abs 0xa9f0
    a9e8:	81 4e 04 00 	mov	r14,	4(r1)	;
    a9ec:	30 40 f4 a9 	br	#0xa9f4		;
    a9f0:	81 4f 04 00 	mov	r15,	4(r1)	;
    a9f4:	19 b3       	bit	#1,	r9	;r3 As==01
    a9f6:	10 24       	jz	$+34     	;abs 0xaa18
    a9f8:	1e 41 02 00 	mov	2(r1),	r14	;
    a9fc:	1e d1 04 00 	bis	4(r1),	r14	;
    aa00:	0e 93       	cmp	#0,	r14	;r3 As==00
    aa02:	0a 24       	jz	$+22     	;abs 0xaa18
    aa04:	f1 40 30 00 	mov.b	#48,	24(r1)	;#0x0030, 0x0018
    aa08:	18 00 
    aa0a:	c1 4c 19 00 	mov.b	r12,	25(r1)	; 0x0019
    aa0e:	0d 49       	mov	r9,	r13	;
    aa10:	2d d3       	bis	#2,	r13	;r3 As==10
    aa12:	2c 43       	mov	#2,	r12	;r3 As==10
    aa14:	30 40 1a aa 	br	#0xaa1a		;
    aa18:	2c 43       	mov	#2,	r12	;r3 As==10
    aa1a:	c1 43 17 00 	mov.b	#0,	23(r1)	;r3 As==00, 0x0017
    aa1e:	09 4d       	mov	r13,	r9	;
    aa20:	30 40 26 aa 	br	#0xaa26		;
    aa24:	1c 43       	mov	#1,	r12	;r3 As==01
    aa26:	06 93       	cmp	#0,	r6	;r3 As==00
    aa28:	02 38       	jl	$+6      	;abs 0xaa2e
    aa2a:	39 f0 7f ff 	and	#65407,	r9	;#0xff7f
    aa2e:	1d 41 02 00 	mov	2(r1),	r13	;
    aa32:	1d d1 04 00 	bis	4(r1),	r13	;
    aa36:	0d 93       	cmp	#0,	r13	;r3 As==00
    aa38:	06 20       	jnz	$+14     	;abs 0xaa46
    aa3a:	06 93       	cmp	#0,	r6	;r3 As==00
    aa3c:	02 24       	jz	$+6      	;abs 0xaa42
    aa3e:	30 40 72 af 	br	#0xaf72		;
    aa42:	30 40 52 ab 	br	#0xab52		;
    aa46:	5c 93       	cmp.b	#1,	r12	;r3 As==01
    aa48:	2d 24       	jz	$+92     	;abs 0xaaa4
    aa4a:	6c 93       	cmp.b	#2,	r12	;r3 As==10
    aa4c:	65 24       	jz	$+204    	;abs 0xab18
    aa4e:	05 41       	mov	r1,	r5	;
    aa50:	35 50 68 00 	add	#104,	r5	;#0x0068
    aa54:	35 53       	add	#-1,	r5	;r3 As==11
    aa56:	5c 41 02 00 	mov.b	2(r1),	r12	;
    aa5a:	7c f0 07 00 	and.b	#7,	r12	;
    aa5e:	7c 50 30 00 	add.b	#48,	r12	;#0x0030
    aa62:	4e 4c       	mov.b	r12,	r14	;
    aa64:	81 4e 0c 00 	mov	r14,	12(r1)	; 0x000c
    aa68:	c5 4c 00 00 	mov.b	r12,	0(r5)	;
    aa6c:	1c 41 02 00 	mov	2(r1),	r12	;
    aa70:	1d 41 04 00 	mov	4(r1),	r13	;
    aa74:	b0 12 46 52 	call	#21062		;#0x5246
    aa78:	81 4c 02 00 	mov	r12,	2(r1)	;
    aa7c:	81 4d 04 00 	mov	r13,	4(r1)	;
    aa80:	1c 41 02 00 	mov	2(r1),	r12	;
    aa84:	0c dd       	bis	r13,	r12	;
    aa86:	0c 93       	cmp	#0,	r12	;r3 As==00
    aa88:	e5 23       	jnz	$-52     	;abs 0xaa54
    aa8a:	04 45       	mov	r5,	r4	;
    aa8c:	19 b3       	bit	#1,	r9	;r3 As==01
    aa8e:	70 24       	jz	$+226    	;abs 0xab70
    aa90:	b1 90 30 00 	cmp	#48,	12(r1)	;#0x0030, 0x000c
    aa94:	0c 00 
    aa96:	6c 24       	jz	$+218    	;abs 0xab70
    aa98:	34 53       	add	#-1,	r4	;r3 As==11
    aa9a:	f5 40 30 00 	mov.b	#48,	-1(r5)	;#0x0030, 0xffff
    aa9e:	ff ff 
    aaa0:	30 40 70 ab 	br	#0xab70		;
    aaa4:	1c 41 04 00 	mov	4(r1),	r12	;
    aaa8:	0c 93       	cmp	#0,	r12	;r3 As==00
    aaaa:	10 20       	jnz	$+34     	;abs 0xaacc
    aaac:	3f 40 09 00 	mov	#9,	r15	;
    aab0:	1f 91 02 00 	cmp	2(r1),	r15	;
    aab4:	0b 28       	jnc	$+24     	;abs 0xaacc
    aab6:	5c 41 02 00 	mov.b	2(r1),	r12	;
    aaba:	7c 50 30 00 	add.b	#48,	r12	;#0x0030
    aabe:	c1 4c 67 00 	mov.b	r12,	103(r1)	; 0x0067
    aac2:	04 41       	mov	r1,	r4	;
    aac4:	34 50 67 00 	add	#103,	r4	;#0x0067
    aac8:	30 40 70 ab 	br	#0xab70		;
    aacc:	04 41       	mov	r1,	r4	;
    aace:	34 50 68 00 	add	#104,	r4	;#0x0068
    aad2:	35 40 38 c9 	mov	#51512,	r5	;#0xc938
    aad6:	34 53       	add	#-1,	r4	;r3 As==11
    aad8:	1c 41 02 00 	mov	2(r1),	r12	;
    aadc:	1d 41 04 00 	mov	4(r1),	r13	;
    aae0:	3e 40 0a 00 	mov	#10,	r14	;#0x000a
    aae4:	0f 43       	clr	r15		;
    aae6:	85 12       	call	r5		;
    aae8:	7c 50 30 00 	add.b	#48,	r12	;#0x0030
    aaec:	c4 4c 00 00 	mov.b	r12,	0(r4)	;
    aaf0:	1c 41 02 00 	mov	2(r1),	r12	;
    aaf4:	1d 41 04 00 	mov	4(r1),	r13	;
    aaf8:	3e 40 0a 00 	mov	#10,	r14	;#0x000a
    aafc:	0f 43       	clr	r15		;
    aafe:	b0 12 2a c9 	call	#51498		;#0xc92a
    ab02:	81 4c 02 00 	mov	r12,	2(r1)	;
    ab06:	81 4d 04 00 	mov	r13,	4(r1)	;
    ab0a:	1c 41 02 00 	mov	2(r1),	r12	;
    ab0e:	0c dd       	bis	r13,	r12	;
    ab10:	0c 93       	cmp	#0,	r12	;r3 As==00
    ab12:	e1 23       	jnz	$-60     	;abs 0xaad6
    ab14:	30 40 70 ab 	br	#0xab70		;
    ab18:	04 41       	mov	r1,	r4	;
    ab1a:	34 50 68 00 	add	#104,	r4	;#0x0068
    ab1e:	34 53       	add	#-1,	r4	;r3 As==11
    ab20:	1c 41 02 00 	mov	2(r1),	r12	;
    ab24:	3c f0 0f 00 	and	#15,	r12	;#0x000f
    ab28:	1c 51 10 00 	add	16(r1),	r12	;0x00010
    ab2c:	e4 4c 00 00 	mov.b	@r12,	0(r4)	;
    ab30:	1c 41 02 00 	mov	2(r1),	r12	;
    ab34:	1d 41 04 00 	mov	4(r1),	r13	;
    ab38:	b0 12 40 52 	call	#21056		;#0x5240
    ab3c:	81 4c 02 00 	mov	r12,	2(r1)	;
    ab40:	81 4d 04 00 	mov	r13,	4(r1)	;
    ab44:	1c 41 02 00 	mov	2(r1),	r12	;
    ab48:	0c dd       	bis	r13,	r12	;
    ab4a:	0c 93       	cmp	#0,	r12	;r3 As==00
    ab4c:	e8 23       	jnz	$-46     	;abs 0xab1e
    ab4e:	30 40 70 ab 	br	#0xab70		;
    ab52:	0c 93       	cmp	#0,	r12	;r3 As==00
    ab54:	0a 20       	jnz	$+22     	;abs 0xab6a
    ab56:	19 b3       	bit	#1,	r9	;r3 As==01
    ab58:	08 24       	jz	$+18     	;abs 0xab6a
    ab5a:	f1 40 30 00 	mov.b	#48,	103(r1)	;#0x0030, 0x0067
    ab5e:	67 00 
    ab60:	04 41       	mov	r1,	r4	;
    ab62:	34 50 67 00 	add	#103,	r4	;#0x0067
    ab66:	30 40 70 ab 	br	#0xab70		;
    ab6a:	04 41       	mov	r1,	r4	;
    ab6c:	34 50 68 00 	add	#104,	r4	;#0x0068
    ab70:	3c 40 68 00 	mov	#104,	r12	;#0x0068
    ab74:	0c 51       	add	r1,	r12	;
    ab76:	0c 84       	sub	r4,	r12	;
    ab78:	81 4c 0c 00 	mov	r12,	12(r1)	; 0x000c
    ab7c:	30 40 a6 ab 	br	#0xaba6		;
    ab80:	c1 4d 17 00 	mov.b	r13,	23(r1)	; 0x0017
    ab84:	0c 93       	cmp	#0,	r12	;r3 As==00
    ab86:	e1 25       	jz	$+964    	;abs 0xaf4a
    ab88:	c1 4c 40 00 	mov.b	r12,	64(r1)	; 0x0040
    ab8c:	c1 43 17 00 	mov.b	#0,	23(r1)	;r3 As==00, 0x0017
    ab90:	81 45 06 00 	mov	r5,	6(r1)	;
    ab94:	91 43 0c 00 	mov	#1,	12(r1)	;r3 As==01, 0x000c
    ab98:	06 43       	clr	r6		;
    ab9a:	04 41       	mov	r1,	r4	;
    ab9c:	34 50 40 00 	add	#64,	r4	;#0x0040
    aba0:	30 40 a6 ab 	br	#0xaba6		;
    aba4:	06 4c       	mov	r12,	r6	;
    aba6:	15 41 0c 00 	mov	12(r1),	r5	;0x0000c
    abaa:	05 96       	cmp	r6,	r5	;
    abac:	01 34       	jge	$+4      	;abs 0xabb0
    abae:	05 46       	mov	r6,	r5	;
    abb0:	c1 93 17 00 	cmp.b	#0,	23(r1)	;r3 As==00, 0x0017
    abb4:	01 24       	jz	$+4      	;abs 0xabb8
    abb6:	15 53       	inc	r5		;
    abb8:	0f 49       	mov	r9,	r15	;
    abba:	2f f3       	and	#2,	r15	;r3 As==10
    abbc:	81 4f 12 00 	mov	r15,	18(r1)	; 0x0012
    abc0:	0f 93       	cmp	#0,	r15	;r3 As==00
    abc2:	01 24       	jz	$+4      	;abs 0xabc6
    abc4:	25 53       	incd	r5		;
    abc6:	0f 49       	mov	r9,	r15	;
    abc8:	3f f0 84 00 	and	#132,	r15	;#0x0084
    abcc:	81 4f 14 00 	mov	r15,	20(r1)	; 0x0014
    abd0:	0f 93       	cmp	#0,	r15	;r3 As==00
    abd2:	4e 20       	jnz	$+158    	;abs 0xac70
    abd4:	1f 41 08 00 	mov	8(r1),	r15	;
    abd8:	0f 85       	sub	r5,	r15	;
    abda:	0c 43       	clr	r12		;
    abdc:	0c 9f       	cmp	r15,	r12	;
    abde:	48 34       	jge	$+146    	;abs 0xac70
    abe0:	3e 40 10 00 	mov	#16,	r14	;#0x0010
    abe4:	ba 40 06 46 	mov	#17926,	0(r10)	;#0x4606
    abe8:	00 00 
    abea:	0e 9f       	cmp	r15,	r14	;
    abec:	25 34       	jge	$+76     	;abs 0xac38
    abee:	ba 40 10 00 	mov	#16,	2(r10)	;#0x0010
    abf2:	02 00 
    abf4:	b1 50 10 00 	add	#16,	30(r1)	;#0x0010, 0x001e
    abf8:	1e 00 
    abfa:	1c 41 1c 00 	mov	28(r1),	r12	;0x0001c
    abfe:	1c 53       	inc	r12		;
    ac00:	81 4c 1c 00 	mov	r12,	28(r1)	; 0x001c
    ac04:	3d 40 07 00 	mov	#7,	r13	;
    ac08:	0d 9c       	cmp	r12,	r13	;
    ac0a:	03 38       	jl	$+8      	;abs 0xac12
    ac0c:	2a 52       	add	#4,	r10	;r2 As==10
    ac0e:	30 40 30 ac 	br	#0xac30		;
    ac12:	0c 47       	mov	r7,	r12	;
    ac14:	0d 48       	mov	r8,	r13	;
    ac16:	0e 41       	mov	r1,	r14	;
    ac18:	3e 50 1a 00 	add	#26,	r14	;#0x001a
    ac1c:	81 4f 00 00 	mov	r15,	0(r1)	;
    ac20:	b0 12 c2 a3 	call	#41922		;#0xa3c2
    ac24:	2f 41       	mov	@r1,	r15	;
    ac26:	0c 93       	cmp	#0,	r12	;r3 As==00
    ac28:	9a 21       	jnz	$+822    	;abs 0xaf5e
    ac2a:	0a 41       	mov	r1,	r10	;
    ac2c:	3a 50 20 00 	add	#32,	r10	;#0x0020
    ac30:	3f 50 f0 ff 	add	#65520,	r15	;#0xfff0
    ac34:	30 40 e0 ab 	br	#0xabe0		;
    ac38:	8a 4f 02 00 	mov	r15,	2(r10)	;
    ac3c:	81 5f 1e 00 	add	r15,	30(r1)	; 0x001e
    ac40:	1c 41 1c 00 	mov	28(r1),	r12	;0x0001c
    ac44:	1c 53       	inc	r12		;
    ac46:	81 4c 1c 00 	mov	r12,	28(r1)	; 0x001c
    ac4a:	3f 40 07 00 	mov	#7,	r15	;
    ac4e:	0f 9c       	cmp	r12,	r15	;
    ac50:	03 38       	jl	$+8      	;abs 0xac58
    ac52:	2a 52       	add	#4,	r10	;r2 As==10
    ac54:	30 40 70 ac 	br	#0xac70		;
    ac58:	0c 47       	mov	r7,	r12	;
    ac5a:	0d 48       	mov	r8,	r13	;
    ac5c:	0e 41       	mov	r1,	r14	;
    ac5e:	3e 50 1a 00 	add	#26,	r14	;#0x001a
    ac62:	b0 12 c2 a3 	call	#41922		;#0xa3c2
    ac66:	0c 93       	cmp	#0,	r12	;r3 As==00
    ac68:	7a 21       	jnz	$+758    	;abs 0xaf5e
    ac6a:	0a 41       	mov	r1,	r10	;
    ac6c:	3a 50 20 00 	add	#32,	r10	;#0x0020
    ac70:	c1 93 17 00 	cmp.b	#0,	23(r1)	;r3 As==00, 0x0017
    ac74:	21 24       	jz	$+68     	;abs 0xacb8
    ac76:	3c 40 17 00 	mov	#23,	r12	;#0x0017
    ac7a:	0c 51       	add	r1,	r12	;
    ac7c:	8a 4c 00 00 	mov	r12,	0(r10)	;
    ac80:	9a 43 02 00 	mov	#1,	2(r10)	;r3 As==01
    ac84:	91 53 1e 00 	inc	30(r1)		;
    ac88:	1c 41 1c 00 	mov	28(r1),	r12	;0x0001c
    ac8c:	1c 53       	inc	r12		;
    ac8e:	81 4c 1c 00 	mov	r12,	28(r1)	; 0x001c
    ac92:	3d 40 07 00 	mov	#7,	r13	;
    ac96:	0d 9c       	cmp	r12,	r13	;
    ac98:	03 38       	jl	$+8      	;abs 0xaca0
    ac9a:	2a 52       	add	#4,	r10	;r2 As==10
    ac9c:	30 40 b8 ac 	br	#0xacb8		;
    aca0:	0c 47       	mov	r7,	r12	;
    aca2:	0d 48       	mov	r8,	r13	;
    aca4:	0e 41       	mov	r1,	r14	;
    aca6:	3e 50 1a 00 	add	#26,	r14	;#0x001a
    acaa:	b0 12 c2 a3 	call	#41922		;#0xa3c2
    acae:	0c 93       	cmp	#0,	r12	;r3 As==00
    acb0:	56 21       	jnz	$+686    	;abs 0xaf5e
    acb2:	0a 41       	mov	r1,	r10	;
    acb4:	3a 50 20 00 	add	#32,	r10	;#0x0020
    acb8:	81 93 12 00 	cmp	#0,	18(r1)	;r3 As==00, 0x0012
    acbc:	21 24       	jz	$+68     	;abs 0xad00
    acbe:	3e 40 18 00 	mov	#24,	r14	;#0x0018
    acc2:	0e 51       	add	r1,	r14	;
    acc4:	8a 4e 00 00 	mov	r14,	0(r10)	;
    acc8:	aa 43 02 00 	mov	#2,	2(r10)	;r3 As==10
    accc:	a1 53 1e 00 	incd	30(r1)		;
    acd0:	1c 41 1c 00 	mov	28(r1),	r12	;0x0001c
    acd4:	1c 53       	inc	r12		;
    acd6:	81 4c 1c 00 	mov	r12,	28(r1)	; 0x001c
    acda:	3f 40 07 00 	mov	#7,	r15	;
    acde:	0f 9c       	cmp	r12,	r15	;
    ace0:	03 38       	jl	$+8      	;abs 0xace8
    ace2:	2a 52       	add	#4,	r10	;r2 As==10
    ace4:	30 40 00 ad 	br	#0xad00		;
    ace8:	0c 47       	mov	r7,	r12	;
    acea:	0d 48       	mov	r8,	r13	;
    acec:	0e 41       	mov	r1,	r14	;
    acee:	3e 50 1a 00 	add	#26,	r14	;#0x001a
    acf2:	b0 12 c2 a3 	call	#41922		;#0xa3c2
    acf6:	0c 93       	cmp	#0,	r12	;r3 As==00
    acf8:	32 21       	jnz	$+614    	;abs 0xaf5e
    acfa:	0a 41       	mov	r1,	r10	;
    acfc:	3a 50 20 00 	add	#32,	r10	;#0x0020
    ad00:	b1 90 80 00 	cmp	#128,	20(r1)	;#0x0080, 0x0014
    ad04:	14 00 
    ad06:	4e 20       	jnz	$+158    	;abs 0xada4
    ad08:	1f 41 08 00 	mov	8(r1),	r15	;
    ad0c:	0f 85       	sub	r5,	r15	;
    ad0e:	0c 43       	clr	r12		;
    ad10:	0c 9f       	cmp	r15,	r12	;
    ad12:	48 34       	jge	$+146    	;abs 0xada4
    ad14:	3e 40 10 00 	mov	#16,	r14	;#0x0010
    ad18:	ba 40 f6 45 	mov	#17910,	0(r10)	;#0x45f6
    ad1c:	00 00 
    ad1e:	0e 9f       	cmp	r15,	r14	;
    ad20:	25 34       	jge	$+76     	;abs 0xad6c
    ad22:	ba 40 10 00 	mov	#16,	2(r10)	;#0x0010
    ad26:	02 00 
    ad28:	b1 50 10 00 	add	#16,	30(r1)	;#0x0010, 0x001e
    ad2c:	1e 00 
    ad2e:	1c 41 1c 00 	mov	28(r1),	r12	;0x0001c
    ad32:	1c 53       	inc	r12		;
    ad34:	81 4c 1c 00 	mov	r12,	28(r1)	; 0x001c
    ad38:	3d 40 07 00 	mov	#7,	r13	;
    ad3c:	0d 9c       	cmp	r12,	r13	;
    ad3e:	03 38       	jl	$+8      	;abs 0xad46
    ad40:	2a 52       	add	#4,	r10	;r2 As==10
    ad42:	30 40 64 ad 	br	#0xad64		;
    ad46:	0c 47       	mov	r7,	r12	;
    ad48:	0d 48       	mov	r8,	r13	;
    ad4a:	0e 41       	mov	r1,	r14	;
    ad4c:	3e 50 1a 00 	add	#26,	r14	;#0x001a
    ad50:	81 4f 00 00 	mov	r15,	0(r1)	;
    ad54:	b0 12 c2 a3 	call	#41922		;#0xa3c2
    ad58:	2f 41       	mov	@r1,	r15	;
    ad5a:	0c 93       	cmp	#0,	r12	;r3 As==00
    ad5c:	00 21       	jnz	$+514    	;abs 0xaf5e
    ad5e:	0a 41       	mov	r1,	r10	;
    ad60:	3a 50 20 00 	add	#32,	r10	;#0x0020
    ad64:	3f 50 f0 ff 	add	#65520,	r15	;#0xfff0
    ad68:	30 40 14 ad 	br	#0xad14		;
    ad6c:	8a 4f 02 00 	mov	r15,	2(r10)	;
    ad70:	81 5f 1e 00 	add	r15,	30(r1)	; 0x001e
    ad74:	1c 41 1c 00 	mov	28(r1),	r12	;0x0001c
    ad78:	1c 53       	inc	r12		;
    ad7a:	81 4c 1c 00 	mov	r12,	28(r1)	; 0x001c
    ad7e:	3f 40 07 00 	mov	#7,	r15	;
    ad82:	0f 9c       	cmp	r12,	r15	;
    ad84:	03 38       	jl	$+8      	;abs 0xad8c
    ad86:	2a 52       	add	#4,	r10	;r2 As==10
    ad88:	30 40 a4 ad 	br	#0xada4		;
    ad8c:	0c 47       	mov	r7,	r12	;
    ad8e:	0d 48       	mov	r8,	r13	;
    ad90:	0e 41       	mov	r1,	r14	;
    ad92:	3e 50 1a 00 	add	#26,	r14	;#0x001a
    ad96:	b0 12 c2 a3 	call	#41922		;#0xa3c2
    ad9a:	0c 93       	cmp	#0,	r12	;r3 As==00
    ad9c:	e0 20       	jnz	$+450    	;abs 0xaf5e
    ad9e:	0a 41       	mov	r1,	r10	;
    ada0:	3a 50 20 00 	add	#32,	r10	;#0x0020
    ada4:	16 81 0c 00 	sub	12(r1),	r6	;0x0000c
    ada8:	0c 43       	clr	r12		;
    adaa:	0c 96       	cmp	r6,	r12	;
    adac:	45 34       	jge	$+140    	;abs 0xae38
    adae:	3e 40 10 00 	mov	#16,	r14	;#0x0010
    adb2:	ba 40 f6 45 	mov	#17910,	0(r10)	;#0x45f6
    adb6:	00 00 
    adb8:	0e 96       	cmp	r6,	r14	;
    adba:	22 34       	jge	$+70     	;abs 0xae00
    adbc:	ba 40 10 00 	mov	#16,	2(r10)	;#0x0010
    adc0:	02 00 
    adc2:	b1 50 10 00 	add	#16,	30(r1)	;#0x0010, 0x001e
    adc6:	1e 00 
    adc8:	1c 41 1c 00 	mov	28(r1),	r12	;0x0001c
    adcc:	1c 53       	inc	r12		;
    adce:	81 4c 1c 00 	mov	r12,	28(r1)	; 0x001c
    add2:	3d 40 07 00 	mov	#7,	r13	;
    add6:	0d 9c       	cmp	r12,	r13	;
    add8:	03 38       	jl	$+8      	;abs 0xade0
    adda:	2a 52       	add	#4,	r10	;r2 As==10
    addc:	30 40 f8 ad 	br	#0xadf8		;
    ade0:	0c 47       	mov	r7,	r12	;
    ade2:	0d 48       	mov	r8,	r13	;
    ade4:	0e 41       	mov	r1,	r14	;
    ade6:	3e 50 1a 00 	add	#26,	r14	;#0x001a
    adea:	b0 12 c2 a3 	call	#41922		;#0xa3c2
    adee:	0c 93       	cmp	#0,	r12	;r3 As==00
    adf0:	b6 20       	jnz	$+366    	;abs 0xaf5e
    adf2:	0a 41       	mov	r1,	r10	;
    adf4:	3a 50 20 00 	add	#32,	r10	;#0x0020
    adf8:	36 50 f0 ff 	add	#65520,	r6	;#0xfff0
    adfc:	30 40 ae ad 	br	#0xadae		;
    ae00:	8a 46 02 00 	mov	r6,	2(r10)	;
    ae04:	81 56 1e 00 	add	r6,	30(r1)	; 0x001e
    ae08:	1c 41 1c 00 	mov	28(r1),	r12	;0x0001c
    ae0c:	1c 53       	inc	r12		;
    ae0e:	81 4c 1c 00 	mov	r12,	28(r1)	; 0x001c
    ae12:	3f 40 07 00 	mov	#7,	r15	;
    ae16:	0f 9c       	cmp	r12,	r15	;
    ae18:	03 38       	jl	$+8      	;abs 0xae20
    ae1a:	2a 52       	add	#4,	r10	;r2 As==10
    ae1c:	30 40 38 ae 	br	#0xae38		;
    ae20:	0c 47       	mov	r7,	r12	;
    ae22:	0d 48       	mov	r8,	r13	;
    ae24:	0e 41       	mov	r1,	r14	;
    ae26:	3e 50 1a 00 	add	#26,	r14	;#0x001a
    ae2a:	b0 12 c2 a3 	call	#41922		;#0xa3c2
    ae2e:	0c 93       	cmp	#0,	r12	;r3 As==00
    ae30:	96 20       	jnz	$+302    	;abs 0xaf5e
    ae32:	0a 41       	mov	r1,	r10	;
    ae34:	3a 50 20 00 	add	#32,	r10	;#0x0020
    ae38:	8a 44 00 00 	mov	r4,	0(r10)	;
    ae3c:	9a 41 0c 00 	mov	12(r1),	2(r10)	;0x0000c
    ae40:	02 00 
    ae42:	91 51 0c 00 	rla	12(r1)		;#0x0000c
    ae46:	1e 00 
    ae48:	1c 41 1c 00 	mov	28(r1),	r12	;0x0001c
    ae4c:	1c 53       	inc	r12		;
    ae4e:	81 4c 1c 00 	mov	r12,	28(r1)	; 0x001c
    ae52:	34 40 07 00 	mov	#7,	r4	;
    ae56:	04 9c       	cmp	r12,	r4	;
    ae58:	03 38       	jl	$+8      	;abs 0xae60
    ae5a:	2a 52       	add	#4,	r10	;r2 As==10
    ae5c:	30 40 78 ae 	br	#0xae78		;
    ae60:	0c 47       	mov	r7,	r12	;
    ae62:	0d 48       	mov	r8,	r13	;
    ae64:	0e 41       	mov	r1,	r14	;
    ae66:	3e 50 1a 00 	add	#26,	r14	;#0x001a
    ae6a:	b0 12 c2 a3 	call	#41922		;#0xa3c2
    ae6e:	0c 93       	cmp	#0,	r12	;r3 As==00
    ae70:	76 20       	jnz	$+238    	;abs 0xaf5e
    ae72:	0a 41       	mov	r1,	r10	;
    ae74:	3a 50 20 00 	add	#32,	r10	;#0x0020
    ae78:	29 b2       	bit	#4,	r9	;r2 As==10
    ae7a:	0d 20       	jnz	$+28     	;abs 0xae96
    ae7c:	0c 45       	mov	r5,	r12	;
    ae7e:	15 91 08 00 	cmp	8(r1),	r5	;
    ae82:	02 34       	jge	$+6      	;abs 0xae88
    ae84:	1c 41 08 00 	mov	8(r1),	r12	;
    ae88:	81 5c 0e 00 	add	r12,	14(r1)	; 0x000e
    ae8c:	81 93 1e 00 	cmp	#0,	30(r1)	;r3 As==00, 0x001e
    ae90:	53 24       	jz	$+168    	;abs 0xaf38
    ae92:	30 40 26 af 	br	#0xaf26		;
    ae96:	16 41 08 00 	mov	8(r1),	r6	;
    ae9a:	06 85       	sub	r5,	r6	;
    ae9c:	0c 43       	clr	r12		;
    ae9e:	0c 96       	cmp	r6,	r12	;
    aea0:	ed 37       	jge	$-36     	;abs 0xae7c
    aea2:	39 40 c2 a3 	mov	#41922,	r9	;#0xa3c2
    aea6:	3e 40 10 00 	mov	#16,	r14	;#0x0010
    aeaa:	ba 40 06 46 	mov	#17926,	0(r10)	;#0x4606
    aeae:	00 00 
    aeb0:	0e 96       	cmp	r6,	r14	;
    aeb2:	21 34       	jge	$+68     	;abs 0xaef6
    aeb4:	ba 40 10 00 	mov	#16,	2(r10)	;#0x0010
    aeb8:	02 00 
    aeba:	b1 50 10 00 	add	#16,	30(r1)	;#0x0010, 0x001e
    aebe:	1e 00 
    aec0:	1c 41 1c 00 	mov	28(r1),	r12	;0x0001c
    aec4:	1c 53       	inc	r12		;
    aec6:	81 4c 1c 00 	mov	r12,	28(r1)	; 0x001c
    aeca:	3d 40 07 00 	mov	#7,	r13	;
    aece:	0d 9c       	cmp	r12,	r13	;
    aed0:	03 38       	jl	$+8      	;abs 0xaed8
    aed2:	2a 52       	add	#4,	r10	;r2 As==10
    aed4:	30 40 ee ae 	br	#0xaeee		;
    aed8:	0c 47       	mov	r7,	r12	;
    aeda:	0d 48       	mov	r8,	r13	;
    aedc:	0e 41       	mov	r1,	r14	;
    aede:	3e 50 1a 00 	add	#26,	r14	;#0x001a
    aee2:	89 12       	call	r9		;
    aee4:	0c 93       	cmp	#0,	r12	;r3 As==00
    aee6:	3b 20       	jnz	$+120    	;abs 0xaf5e
    aee8:	0a 41       	mov	r1,	r10	;
    aeea:	3a 50 20 00 	add	#32,	r10	;#0x0020
    aeee:	36 50 f0 ff 	add	#65520,	r6	;#0xfff0
    aef2:	30 40 a6 ae 	br	#0xaea6		;
    aef6:	8a 46 02 00 	mov	r6,	2(r10)	;
    aefa:	81 56 1e 00 	add	r6,	30(r1)	; 0x001e
    aefe:	1c 41 1c 00 	mov	28(r1),	r12	;0x0001c
    af02:	1c 53       	inc	r12		;
    af04:	81 4c 1c 00 	mov	r12,	28(r1)	; 0x001c
    af08:	3f 40 07 00 	mov	#7,	r15	;
    af0c:	0f 9c       	cmp	r12,	r15	;
    af0e:	b6 37       	jge	$-146    	;abs 0xae7c
    af10:	0c 47       	mov	r7,	r12	;
    af12:	0d 48       	mov	r8,	r13	;
    af14:	0e 41       	mov	r1,	r14	;
    af16:	3e 50 1a 00 	add	#26,	r14	;#0x001a
    af1a:	b0 12 c2 a3 	call	#41922		;#0xa3c2
    af1e:	0c 93       	cmp	#0,	r12	;r3 As==00
    af20:	ad 27       	jz	$-164    	;abs 0xae7c
    af22:	30 40 5e af 	br	#0xaf5e		;
    af26:	0c 47       	mov	r7,	r12	;
    af28:	0d 48       	mov	r8,	r13	;
    af2a:	0e 41       	mov	r1,	r14	;
    af2c:	3e 50 1a 00 	add	#26,	r14	;#0x001a
    af30:	b0 12 c2 a3 	call	#41922		;#0xa3c2
    af34:	0c 93       	cmp	#0,	r12	;r3 As==00
    af36:	13 20       	jnz	$+40     	;abs 0xaf5e
    af38:	81 43 1c 00 	mov	#0,	28(r1)	;r3 As==00, 0x001c
    af3c:	15 41 06 00 	mov	6(r1),	r5	;
    af40:	0a 41       	mov	r1,	r10	;
    af42:	3a 50 20 00 	add	#32,	r10	;#0x0020
    af46:	30 40 1e a5 	br	#0xa51e		;
    af4a:	81 93 1e 00 	cmp	#0,	30(r1)	;r3 As==00, 0x001e
    af4e:	07 24       	jz	$+16     	;abs 0xaf5e
    af50:	0c 47       	mov	r7,	r12	;
    af52:	0d 48       	mov	r8,	r13	;
    af54:	0e 41       	mov	r1,	r14	;
    af56:	3e 50 1a 00 	add	#26,	r14	;#0x001a
    af5a:	b0 12 c2 a3 	call	#41922		;#0xa3c2
    af5e:	f8 b0 40 00 	bit.b	#64,	6(r8)	;#0x0040
    af62:	06 00 
    af64:	02 24       	jz	$+6      	;abs 0xaf6a
    af66:	30 40 e2 a4 	br	#0xa4e2		;
    af6a:	1c 41 0e 00 	mov	14(r1),	r12	;0x0000e
    af6e:	30 40 7e af 	br	#0xaf7e		;
    af72:	5c 93       	cmp.b	#1,	r12	;r3 As==01
    af74:	02 24       	jz	$+6      	;abs 0xaf7a
    af76:	30 40 4a aa 	br	#0xaa4a		;
    af7a:	30 40 b6 aa 	br	#0xaab6		;
    af7e:	31 50 68 00 	add	#104,	r1	;#0x0068
    af82:	30 40 a4 51 	br	#0x51a4		;

0000af86 <vfiprintf>:
    af86:	0a 12       	push	r10		;
    af88:	0a 4c       	mov	r12,	r10	;
    af8a:	0b 4d       	mov	r13,	r11	;
    af8c:	0f 4e       	mov	r14,	r15	;
    af8e:	1c 42 20 02 	mov	&0x0220,r12	;0x0220
    af92:	0d 4a       	mov	r10,	r13	;
    af94:	0e 4b       	mov	r11,	r14	;
    af96:	b0 12 50 a4 	call	#42064		;#0xa450
    af9a:	3a 41       	pop	r10		;
    af9c:	30 41       	ret			

0000af9e <__sbprintf>:
    af9e:	0a 12       	push	r10		;
    afa0:	09 12       	push	r9		;
    afa2:	08 12       	push	r8		;
    afa4:	31 80 3c 04 	sub	#1084,	r1	;#0x043c
    afa8:	08 4c       	mov	r12,	r8	;
    afaa:	0a 4d       	mov	r13,	r10	;
    afac:	1d 4d 06 00 	mov	6(r13),	r13	;
    afb0:	2d c3       	bic	#2,	r13	;r3 As==10
    afb2:	81 4d 06 00 	mov	r13,	6(r1)	;
    afb6:	91 4a 3a 00 	mov	58(r10),58(r1)	;0x0003a, 0x003a
    afba:	3a 00 
    afbc:	91 4a 08 00 	mov	8(r10),	8(r1)	;
    afc0:	08 00 
    afc2:	91 4a 12 00 	mov	18(r10),18(r1)	;0x00012, 0x0012
    afc6:	12 00 
    afc8:	91 4a 16 00 	mov	22(r10),22(r1)	;0x00016, 0x0016
    afcc:	16 00 
    afce:	3d 40 3c 00 	mov	#60,	r13	;#0x003c
    afd2:	0d 51       	add	r1,	r13	;
    afd4:	81 4d 00 00 	mov	r13,	0(r1)	;
    afd8:	3d 40 3c 00 	mov	#60,	r13	;#0x003c
    afdc:	0d 51       	add	r1,	r13	;
    afde:	81 4d 0a 00 	mov	r13,	10(r1)	; 0x000a
    afe2:	b1 40 00 04 	mov	#1024,	4(r1)	;#0x0400
    afe6:	04 00 
    afe8:	b1 40 00 04 	mov	#1024,	12(r1)	;#0x0400, 0x000c
    afec:	0c 00 
    afee:	81 43 0e 00 	mov	#0,	14(r1)	;r3 As==00, 0x000e
    aff2:	0d 41       	mov	r1,	r13	;
    aff4:	b0 12 50 a4 	call	#42064		;#0xa450
    aff8:	09 4c       	mov	r12,	r9	;
    affa:	0c 93       	cmp	#0,	r12	;r3 As==00
    affc:	07 38       	jl	$+16     	;abs 0xb00c
    affe:	0c 48       	mov	r8,	r12	;
    b000:	0d 41       	mov	r1,	r13	;
    b002:	b0 12 7e 87 	call	#34686		;#0x877e
    b006:	0c 93       	cmp	#0,	r12	;r3 As==00
    b008:	01 24       	jz	$+4      	;abs 0xb00c
    b00a:	39 43       	mov	#-1,	r9	;r3 As==11
    b00c:	f1 b0 40 00 	bit.b	#64,	6(r1)	;#0x0040
    b010:	06 00 
    b012:	03 24       	jz	$+8      	;abs 0xb01a
    b014:	ba d0 40 00 	bis	#64,	6(r10)	;#0x0040
    b018:	06 00 
    b01a:	0c 49       	mov	r9,	r12	;
    b01c:	31 50 3c 04 	add	#1084,	r1	;#0x043c
    b020:	30 40 ac 51 	br	#0x51ac		;

0000b024 <_write_r>:
    b024:	0a 12       	push	r10		;
    b026:	0a 4c       	mov	r12,	r10	;
    b028:	82 43 b6 08 	mov	#0,	&0x08b6	;r3 As==00
    b02c:	0c 4d       	mov	r13,	r12	;
    b02e:	0d 4e       	mov	r14,	r13	;
    b030:	0e 4f       	mov	r15,	r14	;
    b032:	b0 12 18 d9 	call	#55576		;#0xd918
    b036:	3c 93       	cmp	#-1,	r12	;r3 As==11
    b038:	06 20       	jnz	$+14     	;abs 0xb046
    b03a:	1d 42 b6 08 	mov	&0x08b6,r13	;0x08b6
    b03e:	0d 93       	cmp	#0,	r13	;r3 As==00
    b040:	02 24       	jz	$+6      	;abs 0xb046
    b042:	8a 4d 00 00 	mov	r13,	0(r10)	;
    b046:	3a 41       	pop	r10		;
    b048:	30 41       	ret			

0000b04a <_close_r>:
    b04a:	0a 12       	push	r10		;
    b04c:	0a 4c       	mov	r12,	r10	;
    b04e:	82 43 b6 08 	mov	#0,	&0x08b6	;r3 As==00
    b052:	0c 4d       	mov	r13,	r12	;
    b054:	b0 12 c8 d8 	call	#55496		;#0xd8c8
    b058:	3c 93       	cmp	#-1,	r12	;r3 As==11
    b05a:	06 20       	jnz	$+14     	;abs 0xb068
    b05c:	1d 42 b6 08 	mov	&0x08b6,r13	;0x08b6
    b060:	0d 93       	cmp	#0,	r13	;r3 As==00
    b062:	02 24       	jz	$+6      	;abs 0xb068
    b064:	8a 4d 00 00 	mov	r13,	0(r10)	;
    b068:	3a 41       	pop	r10		;
    b06a:	30 41       	ret			

0000b06c <_fclose_r>:
    b06c:	0a 12       	push	r10		;
    b06e:	09 12       	push	r9		;
    b070:	08 12       	push	r8		;
    b072:	09 4c       	mov	r12,	r9	;
    b074:	0a 4d       	mov	r13,	r10	;
    b076:	0d 93       	cmp	#0,	r13	;r3 As==00
    b078:	03 20       	jnz	$+8      	;abs 0xb080
    b07a:	0c 43       	clr	r12		;
    b07c:	30 40 28 b1 	br	#0xb128		;
    b080:	0c 93       	cmp	#0,	r12	;r3 As==00
    b082:	05 24       	jz	$+12     	;abs 0xb08e
    b084:	8c 93 0c 00 	cmp	#0,	12(r12)	;r3 As==00, 0x000c
    b088:	02 20       	jnz	$+6      	;abs 0xb08e
    b08a:	b0 12 64 88 	call	#34916		;#0x8864
    b08e:	3a 90 94 44 	cmp	#17556,	r10	;#0x4494
    b092:	04 20       	jnz	$+10     	;abs 0xb09c
    b094:	1a 49 02 00 	mov	2(r9),	r10	;
    b098:	30 40 b4 b0 	br	#0xb0b4		;
    b09c:	3a 90 82 44 	cmp	#17538,	r10	;#0x4482
    b0a0:	04 20       	jnz	$+10     	;abs 0xb0aa
    b0a2:	1a 49 04 00 	mov	4(r9),	r10	;
    b0a6:	30 40 b4 b0 	br	#0xb0b4		;
    b0aa:	3a 90 70 44 	cmp	#17520,	r10	;#0x4470
    b0ae:	02 20       	jnz	$+6      	;abs 0xb0b4
    b0b0:	1a 49 06 00 	mov	6(r9),	r10	;
    b0b4:	8a 93 06 00 	cmp	#0,	6(r10)	;r3 As==00
    b0b8:	e0 27       	jz	$-62     	;abs 0xb07a
    b0ba:	0c 49       	mov	r9,	r12	;
    b0bc:	0d 4a       	mov	r10,	r13	;
    b0be:	b0 12 7e 87 	call	#34686		;#0x877e
    b0c2:	08 4c       	mov	r12,	r8	;
    b0c4:	1e 4a 1a 00 	mov	26(r10),r14	;0x0001a
    b0c8:	0e 93       	cmp	#0,	r14	;r3 As==00
    b0ca:	07 24       	jz	$+16     	;abs 0xb0da
    b0cc:	0c 49       	mov	r9,	r12	;
    b0ce:	1d 4a 12 00 	mov	18(r10),r13	;0x00012
    b0d2:	8e 12       	call	r14		;
    b0d4:	0c 93       	cmp	#0,	r12	;r3 As==00
    b0d6:	01 34       	jge	$+4      	;abs 0xb0da
    b0d8:	38 43       	mov	#-1,	r8	;r3 As==11
    b0da:	fa b0 80 00 	bit.b	#128,	6(r10)	;#0x0080
    b0de:	06 00 
    b0e0:	05 24       	jz	$+12     	;abs 0xb0ec
    b0e2:	0c 49       	mov	r9,	r12	;
    b0e4:	1d 4a 0a 00 	mov	10(r10),r13	;0x0000a
    b0e8:	b0 12 36 54 	call	#21558		;#0x5436
    b0ec:	1d 4a 1c 00 	mov	28(r10),r13	;0x0001c
    b0f0:	0d 93       	cmp	#0,	r13	;r3 As==00
    b0f2:	0a 24       	jz	$+22     	;abs 0xb108
    b0f4:	0c 4a       	mov	r10,	r12	;
    b0f6:	3c 50 24 00 	add	#36,	r12	;#0x0024
    b0fa:	0d 9c       	cmp	r12,	r13	;
    b0fc:	03 24       	jz	$+8      	;abs 0xb104
    b0fe:	0c 49       	mov	r9,	r12	;
    b100:	b0 12 36 54 	call	#21558		;#0x5436
    b104:	8a 43 1c 00 	mov	#0,	28(r10)	;r3 As==00, 0x001c
    b108:	1d 4a 28 00 	mov	40(r10),r13	;0x00028
    b10c:	0d 93       	cmp	#0,	r13	;r3 As==00
    b10e:	05 24       	jz	$+12     	;abs 0xb11a
    b110:	0c 49       	mov	r9,	r12	;
    b112:	b0 12 36 54 	call	#21558		;#0x5436
    b116:	8a 43 28 00 	mov	#0,	40(r10)	;r3 As==00, 0x0028
    b11a:	b0 12 60 8a 	call	#35424		;#0x8a60
    b11e:	8a 43 06 00 	mov	#0,	6(r10)	;r3 As==00
    b122:	b0 12 62 8a 	call	#35426		;#0x8a62
    b126:	0c 48       	mov	r8,	r12	;
    b128:	30 40 ac 51 	br	#0x51ac		;

0000b12c <fclose>:
    b12c:	0d 4c       	mov	r12,	r13	;
    b12e:	1c 42 20 02 	mov	&0x0220,r12	;0x0220
    b132:	b0 12 6c b0 	call	#45164		;#0xb06c
    b136:	30 41       	ret			

0000b138 <_fputwc_r>:
    b138:	0a 12       	push	r10		;
    b13a:	09 12       	push	r9		;
    b13c:	08 12       	push	r8		;
    b13e:	07 12       	push	r7		;
    b140:	06 12       	push	r6		;
    b142:	05 12       	push	r5		;
    b144:	04 12       	push	r4		;
    b146:	21 82       	sub	#4,	r1	;r2 As==10
    b148:	06 4c       	mov	r12,	r6	;
    b14a:	09 4d       	mov	r13,	r9	;
    b14c:	05 4e       	mov	r14,	r5	;
    b14e:	0a 4f       	mov	r15,	r10	;
    b150:	1c 4f 06 00 	mov	6(r15),	r12	;
    b154:	3c b0 00 20 	bit	#8192,	r12	;#0x2000
    b158:	07 20       	jnz	$+16     	;abs 0xb168
    b15a:	3c d0 00 20 	bis	#8192,	r12	;#0x2000
    b15e:	8f 4c 06 00 	mov	r12,	6(r15)	;
    b162:	bf d0 00 20 	bis	#8192,	58(r15)	;#0x2000, 0x003a
    b166:	3a 00 
    b168:	b0 12 a8 8e 	call	#36520		;#0x8ea8
    b16c:	07 41       	mov	r1,	r7	;
    b16e:	37 50 03 00 	add	#3,	r7	;
    b172:	1c 93       	cmp	#1,	r12	;r3 As==01
    b174:	0f 20       	jnz	$+32     	;abs 0xb194
    b176:	0e 49       	mov	r9,	r14	;
    b178:	3e 53       	add	#-1,	r14	;r3 As==11
    b17a:	0d 45       	mov	r5,	r13	;
    b17c:	3d 63       	addc	#-1,	r13	;r3 As==11
    b17e:	0d 93       	cmp	#0,	r13	;r3 As==00
    b180:	09 20       	jnz	$+20     	;abs 0xb194
    b182:	3d 40 fe 00 	mov	#254,	r13	;#0x00fe
    b186:	0d 9e       	cmp	r14,	r13	;
    b188:	05 28       	jnc	$+12     	;abs 0xb194
    b18a:	c1 49 03 00 	mov.b	r9,	3(r1)	;
    b18e:	08 4c       	mov	r12,	r8	;
    b190:	30 40 ba b1 	br	#0xb1ba		;
    b194:	0c 4a       	mov	r10,	r12	;
    b196:	3c 50 34 00 	add	#52,	r12	;#0x0034
    b19a:	81 4c 00 00 	mov	r12,	0(r1)	;
    b19e:	0c 46       	mov	r6,	r12	;
    b1a0:	0d 47       	mov	r7,	r13	;
    b1a2:	0e 49       	mov	r9,	r14	;
    b1a4:	0f 45       	mov	r5,	r15	;
    b1a6:	b0 12 3c b4 	call	#46140		;#0xb43c
    b1aa:	08 4c       	mov	r12,	r8	;
    b1ac:	3c 93       	cmp	#-1,	r12	;r3 As==11
    b1ae:	05 20       	jnz	$+12     	;abs 0xb1ba
    b1b0:	ba d0 40 00 	bis	#64,	6(r10)	;#0x0040
    b1b4:	06 00 
    b1b6:	30 40 3e b2 	br	#0xb23e		;
    b1ba:	04 47       	mov	r7,	r4	;
    b1bc:	35 40 58 b3 	mov	#45912,	r5	;#0xb358
    b1c0:	0c 44       	mov	r4,	r12	;
    b1c2:	0c 87       	sub	r7,	r12	;
    b1c4:	0c 98       	cmp	r8,	r12	;
    b1c6:	37 2c       	jc	$+112    	;abs 0xb236
    b1c8:	1c 4a 04 00 	mov	4(r10),	r12	;
    b1cc:	3c 53       	add	#-1,	r12	;r3 As==11
    b1ce:	8a 4c 04 00 	mov	r12,	4(r10)	;
    b1d2:	0c 93       	cmp	#0,	r12	;r3 As==00
    b1d4:	28 34       	jge	$+82     	;abs 0xb226
    b1d6:	1c 9a 0e 00 	cmp	14(r10),r12	;0x0000e
    b1da:	17 38       	jl	$+48     	;abs 0xb20a
    b1dc:	2c 4a       	mov	@r10,	r12	;
    b1de:	ec 44 00 00 	mov.b	@r4,	0(r12)	;
    b1e2:	2c 4a       	mov	@r10,	r12	;
    b1e4:	fc 90 0a 00 	cmp.b	#10,	0(r12)	;#0x000a
    b1e8:	00 00 
    b1ea:	05 24       	jz	$+12     	;abs 0xb1f6
    b1ec:	1c 53       	inc	r12		;
    b1ee:	8a 4c 00 00 	mov	r12,	0(r10)	;
    b1f2:	30 40 30 b2 	br	#0xb230		;
    b1f6:	0c 46       	mov	r6,	r12	;
    b1f8:	3d 40 0a 00 	mov	#10,	r13	;#0x000a
    b1fc:	0e 4a       	mov	r10,	r14	;
    b1fe:	85 12       	call	r5		;
    b200:	5e 43       	mov.b	#1,	r14	;r3 As==01
    b202:	3c 93       	cmp	#-1,	r12	;r3 As==11
    b204:	09 20       	jnz	$+20     	;abs 0xb218
    b206:	30 40 1a b2 	br	#0xb21a		;
    b20a:	0c 46       	mov	r6,	r12	;
    b20c:	6d 44       	mov.b	@r4,	r13	;
    b20e:	0e 4a       	mov	r10,	r14	;
    b210:	85 12       	call	r5		;
    b212:	5e 43       	mov.b	#1,	r14	;r3 As==01
    b214:	3c 93       	cmp	#-1,	r12	;r3 As==11
    b216:	01 24       	jz	$+4      	;abs 0xb21a
    b218:	4e 43       	clr.b	r14		;
    b21a:	3e f0 ff 00 	and	#255,	r14	;#0x00ff
    b21e:	0e 93       	cmp	#0,	r14	;r3 As==00
    b220:	07 24       	jz	$+16     	;abs 0xb230
    b222:	30 40 3c b2 	br	#0xb23c		;
    b226:	2c 4a       	mov	@r10,	r12	;
    b228:	ec 44 00 00 	mov.b	@r4,	0(r12)	;
    b22c:	9a 53 00 00 	inc	0(r10)		;
    b230:	14 53       	inc	r4		;
    b232:	30 40 c0 b1 	br	#0xb1c0		;
    b236:	0c 49       	mov	r9,	r12	;
    b238:	30 40 3e b2 	br	#0xb23e		;
    b23c:	3c 43       	mov	#-1,	r12	;r3 As==11
    b23e:	21 52       	add	#4,	r1	;r2 As==10
    b240:	30 40 a4 51 	br	#0x51a4		;

0000b244 <fputwc>:
    b244:	0a 12       	push	r10		;
    b246:	09 12       	push	r9		;
    b248:	07 12       	push	r7		;
    b24a:	06 12       	push	r6		;
    b24c:	06 4c       	mov	r12,	r6	;
    b24e:	07 4d       	mov	r13,	r7	;
    b250:	0a 4e       	mov	r14,	r10	;
    b252:	19 42 20 02 	mov	&0x0220,r9	;0x0220
    b256:	09 93       	cmp	#0,	r9	;r3 As==00
    b258:	06 24       	jz	$+14     	;abs 0xb266
    b25a:	89 93 0c 00 	cmp	#0,	12(r9)	;r3 As==00, 0x000c
    b25e:	03 20       	jnz	$+8      	;abs 0xb266
    b260:	0c 49       	mov	r9,	r12	;
    b262:	b0 12 64 88 	call	#34916		;#0x8864
    b266:	3a 90 94 44 	cmp	#17556,	r10	;#0x4494
    b26a:	04 20       	jnz	$+10     	;abs 0xb274
    b26c:	1a 49 02 00 	mov	2(r9),	r10	;
    b270:	30 40 8c b2 	br	#0xb28c		;
    b274:	3a 90 82 44 	cmp	#17538,	r10	;#0x4482
    b278:	04 20       	jnz	$+10     	;abs 0xb282
    b27a:	1a 49 04 00 	mov	4(r9),	r10	;
    b27e:	30 40 8c b2 	br	#0xb28c		;
    b282:	3a 90 70 44 	cmp	#17520,	r10	;#0x4470
    b286:	02 20       	jnz	$+6      	;abs 0xb28c
    b288:	1a 49 06 00 	mov	6(r9),	r10	;
    b28c:	0c 49       	mov	r9,	r12	;
    b28e:	0d 46       	mov	r6,	r13	;
    b290:	0e 47       	mov	r7,	r14	;
    b292:	0f 4a       	mov	r10,	r15	;
    b294:	b0 12 38 b1 	call	#45368		;#0xb138
    b298:	36 41       	pop	r6		;
    b29a:	37 41       	pop	r7		;
    b29c:	39 41       	pop	r9		;
    b29e:	3a 41       	pop	r10		;
    b2a0:	30 41       	ret			

0000b2a2 <_fstat_r>:
    b2a2:	0a 12       	push	r10		;
    b2a4:	0a 4c       	mov	r12,	r10	;
    b2a6:	82 43 b6 08 	mov	#0,	&0x08b6	;r3 As==00
    b2aa:	0c 4d       	mov	r13,	r12	;
    b2ac:	0d 4e       	mov	r14,	r13	;
    b2ae:	b0 12 e4 d8 	call	#55524		;#0xd8e4
    b2b2:	3c 93       	cmp	#-1,	r12	;r3 As==11
    b2b4:	06 20       	jnz	$+14     	;abs 0xb2c2
    b2b6:	1d 42 b6 08 	mov	&0x08b6,r13	;0x08b6
    b2ba:	0d 93       	cmp	#0,	r13	;r3 As==00
    b2bc:	02 24       	jz	$+6      	;abs 0xb2c2
    b2be:	8a 4d 00 00 	mov	r13,	0(r10)	;
    b2c2:	3a 41       	pop	r10		;
    b2c4:	30 41       	ret			

0000b2c6 <_isatty_r>:
    b2c6:	0a 12       	push	r10		;
    b2c8:	0a 4c       	mov	r12,	r10	;
    b2ca:	82 43 b6 08 	mov	#0,	&0x08b6	;r3 As==00
    b2ce:	0c 4d       	mov	r13,	r12	;
    b2d0:	b0 12 0e d9 	call	#55566		;#0xd90e
    b2d4:	3c 93       	cmp	#-1,	r12	;r3 As==11
    b2d6:	06 20       	jnz	$+14     	;abs 0xb2e4
    b2d8:	1d 42 b6 08 	mov	&0x08b6,r13	;0x08b6
    b2dc:	0d 93       	cmp	#0,	r13	;r3 As==00
    b2de:	02 24       	jz	$+6      	;abs 0xb2e4
    b2e0:	8a 4d 00 00 	mov	r13,	0(r10)	;
    b2e4:	3a 41       	pop	r10		;
    b2e6:	30 41       	ret			

0000b2e8 <_lseek_r>:
    b2e8:	0a 12       	push	r10		;
    b2ea:	0a 4c       	mov	r12,	r10	;
    b2ec:	82 43 b6 08 	mov	#0,	&0x08b6	;r3 As==00
    b2f0:	0c 4d       	mov	r13,	r12	;
    b2f2:	0d 4e       	mov	r14,	r13	;
    b2f4:	0e 4f       	mov	r15,	r14	;
    b2f6:	1f 41 04 00 	mov	4(r1),	r15	;
    b2fa:	b0 12 f2 d8 	call	#55538		;#0xd8f2
    b2fe:	3c 93       	cmp	#-1,	r12	;r3 As==11
    b300:	08 20       	jnz	$+18     	;abs 0xb312
    b302:	3d 93       	cmp	#-1,	r13	;r3 As==11
    b304:	06 20       	jnz	$+14     	;abs 0xb312
    b306:	1e 42 b6 08 	mov	&0x08b6,r14	;0x08b6
    b30a:	0e 93       	cmp	#0,	r14	;r3 As==00
    b30c:	02 24       	jz	$+6      	;abs 0xb312
    b30e:	8a 4e 00 00 	mov	r14,	0(r10)	;
    b312:	3a 41       	pop	r10		;
    b314:	30 41       	ret			

0000b316 <_malloc_usable_size_r>:
    b316:	1c 4d fc ff 	mov	-4(r13),r12	;
    b31a:	0c 93       	cmp	#0,	r12	;r3 As==00
    b31c:	07 34       	jge	$+16     	;abs 0xb32c
    b31e:	0d 5c       	add	r12,	r13	;
    b320:	1c 5d fc ff 	add	-4(r13),r12	;
    b324:	3c 50 fc ff 	add	#65532,	r12	;#0xfffc
    b328:	30 40 30 b3 	br	#0xb330		;
    b32c:	3c 50 fc ff 	add	#65532,	r12	;#0xfffc
    b330:	30 41       	ret			

0000b332 <_read_r>:
    b332:	0a 12       	push	r10		;
    b334:	0a 4c       	mov	r12,	r10	;
    b336:	82 43 b6 08 	mov	#0,	&0x08b6	;r3 As==00
    b33a:	0c 4d       	mov	r13,	r12	;
    b33c:	0d 4e       	mov	r14,	r13	;
    b33e:	0e 4f       	mov	r15,	r14	;
    b340:	b0 12 d6 d8 	call	#55510		;#0xd8d6
    b344:	3c 93       	cmp	#-1,	r12	;r3 As==11
    b346:	06 20       	jnz	$+14     	;abs 0xb354
    b348:	1d 42 b6 08 	mov	&0x08b6,r13	;0x08b6
    b34c:	0d 93       	cmp	#0,	r13	;r3 As==00
    b34e:	02 24       	jz	$+6      	;abs 0xb354
    b350:	8a 4d 00 00 	mov	r13,	0(r10)	;
    b354:	3a 41       	pop	r10		;
    b356:	30 41       	ret			

0000b358 <__swbuf_r>:
    b358:	0a 12       	push	r10		;
    b35a:	09 12       	push	r9		;
    b35c:	08 12       	push	r8		;
    b35e:	08 4c       	mov	r12,	r8	;
    b360:	09 4d       	mov	r13,	r9	;
    b362:	0a 4e       	mov	r14,	r10	;
    b364:	0c 93       	cmp	#0,	r12	;r3 As==00
    b366:	05 24       	jz	$+12     	;abs 0xb372
    b368:	8c 93 0c 00 	cmp	#0,	12(r12)	;r3 As==00, 0x000c
    b36c:	02 20       	jnz	$+6      	;abs 0xb372
    b36e:	b0 12 64 88 	call	#34916		;#0x8864
    b372:	3a 90 94 44 	cmp	#17556,	r10	;#0x4494
    b376:	04 20       	jnz	$+10     	;abs 0xb380
    b378:	1a 48 02 00 	mov	2(r8),	r10	;
    b37c:	30 40 98 b3 	br	#0xb398		;
    b380:	3a 90 82 44 	cmp	#17538,	r10	;#0x4482
    b384:	04 20       	jnz	$+10     	;abs 0xb38e
    b386:	1a 48 04 00 	mov	4(r8),	r10	;
    b38a:	30 40 98 b3 	br	#0xb398		;
    b38e:	3a 90 70 44 	cmp	#17520,	r10	;#0x4470
    b392:	02 20       	jnz	$+6      	;abs 0xb398
    b394:	1a 48 06 00 	mov	6(r8),	r10	;
    b398:	9a 4a 0e 00 	mov	14(r10),4(r10)	;0x0000e
    b39c:	04 00 
    b39e:	fa b2 06 00 	bit.b	#8,	6(r10)	;r2 As==11
    b3a2:	13 24       	jz	$+40     	;abs 0xb3ca
    b3a4:	8a 93 0a 00 	cmp	#0,	10(r10)	;r3 As==00, 0x000a
    b3a8:	10 24       	jz	$+34     	;abs 0xb3ca
    b3aa:	39 f0 ff 00 	and	#255,	r9	;#0x00ff
    b3ae:	1c 4a 06 00 	mov	6(r10),	r12	;
    b3b2:	3c b0 00 20 	bit	#8192,	r12	;#0x2000
    b3b6:	12 20       	jnz	$+38     	;abs 0xb3dc
    b3b8:	3c d0 00 20 	bis	#8192,	r12	;#0x2000
    b3bc:	8a 4c 06 00 	mov	r12,	6(r10)	;
    b3c0:	ba f0 ff df 	and	#57343,	58(r10)	;#0xdfff, 0x003a
    b3c4:	3a 00 
    b3c6:	30 40 dc b3 	br	#0xb3dc		;
    b3ca:	0c 48       	mov	r8,	r12	;
    b3cc:	0d 4a       	mov	r10,	r13	;
    b3ce:	b0 12 de 6e 	call	#28382		;#0x6ede
    b3d2:	0c 93       	cmp	#0,	r12	;r3 As==00
    b3d4:	ea 27       	jz	$-42     	;abs 0xb3aa
    b3d6:	3c 43       	mov	#-1,	r12	;r3 As==11
    b3d8:	30 40 28 b4 	br	#0xb428		;
    b3dc:	2c 4a       	mov	@r10,	r12	;
    b3de:	1c 8a 0a 00 	sub	10(r10),r12	;0x0000a
    b3e2:	1c 9a 0c 00 	cmp	12(r10),r12	;0x0000c
    b3e6:	06 38       	jl	$+14     	;abs 0xb3f4
    b3e8:	0c 48       	mov	r8,	r12	;
    b3ea:	0d 4a       	mov	r10,	r13	;
    b3ec:	b0 12 7e 87 	call	#34686		;#0x877e
    b3f0:	0c 93       	cmp	#0,	r12	;r3 As==00
    b3f2:	f1 23       	jnz	$-28     	;abs 0xb3d6
    b3f4:	ba 53 04 00 	add	#-1,	4(r10)	;r3 As==11
    b3f8:	2d 4a       	mov	@r10,	r13	;
    b3fa:	0e 4d       	mov	r13,	r14	;
    b3fc:	1e 53       	inc	r14		;
    b3fe:	8a 4e 00 00 	mov	r14,	0(r10)	;
    b402:	cd 49 00 00 	mov.b	r9,	0(r13)	;
    b406:	1c 53       	inc	r12		;
    b408:	1c 9a 0c 00 	cmp	12(r10),r12	;0x0000c
    b40c:	06 24       	jz	$+14     	;abs 0xb41a
    b40e:	da b3 06 00 	bit.b	#1,	6(r10)	;r3 As==01
    b412:	09 24       	jz	$+20     	;abs 0xb426
    b414:	39 90 0a 00 	cmp	#10,	r9	;#0x000a
    b418:	06 20       	jnz	$+14     	;abs 0xb426
    b41a:	0c 48       	mov	r8,	r12	;
    b41c:	0d 4a       	mov	r10,	r13	;
    b41e:	b0 12 7e 87 	call	#34686		;#0x877e
    b422:	0c 93       	cmp	#0,	r12	;r3 As==00
    b424:	d8 23       	jnz	$-78     	;abs 0xb3d6
    b426:	0c 49       	mov	r9,	r12	;
    b428:	30 40 ac 51 	br	#0x51ac		;

0000b42c <__swbuf>:
    b42c:	0f 4c       	mov	r12,	r15	;
    b42e:	0e 4d       	mov	r13,	r14	;
    b430:	1c 42 20 02 	mov	&0x0220,r12	;0x0220
    b434:	0d 4f       	mov	r15,	r13	;
    b436:	b0 12 58 b3 	call	#45912		;#0xb358
    b43a:	30 41       	ret			

0000b43c <_wcrtomb_r>:
    b43c:	0a 12       	push	r10		;
    b43e:	09 12       	push	r9		;
    b440:	08 12       	push	r8		;
    b442:	31 80 14 00 	sub	#20,	r1	;#0x0014
    b446:	0a 4c       	mov	r12,	r10	;
    b448:	19 41 1c 00 	mov	28(r1),	r9	;0x0001c
    b44c:	18 42 fe 02 	mov	&0x02fe,r8	;0x02fe
    b450:	3c 40 a2 8e 	mov	#36514,	r12	;#0x8ea2
    b454:	0d 93       	cmp	#0,	r13	;r3 As==00
    b456:	0e 20       	jnz	$+30     	;abs 0xb474
    b458:	8c 12       	call	r12		;
    b45a:	81 4c 00 00 	mov	r12,	0(r1)	;
    b45e:	81 49 02 00 	mov	r9,	2(r1)	;
    b462:	0c 4a       	mov	r10,	r12	;
    b464:	0d 41       	mov	r1,	r13	;
    b466:	3d 50 0a 00 	add	#10,	r13	;#0x000a
    b46a:	0e 43       	clr	r14		;
    b46c:	0f 43       	clr	r15		;
    b46e:	88 12       	call	r8		;
    b470:	30 40 9a b4 	br	#0xb49a		;
    b474:	81 4d 08 00 	mov	r13,	8(r1)	;
    b478:	81 4e 06 00 	mov	r14,	6(r1)	;
    b47c:	81 4f 04 00 	mov	r15,	4(r1)	;
    b480:	8c 12       	call	r12		;
    b482:	81 4c 00 00 	mov	r12,	0(r1)	;
    b486:	81 49 02 00 	mov	r9,	2(r1)	;
    b48a:	0c 4a       	mov	r10,	r12	;
    b48c:	1d 41 08 00 	mov	8(r1),	r13	;
    b490:	1e 41 06 00 	mov	6(r1),	r14	;
    b494:	1f 41 04 00 	mov	4(r1),	r15	;
    b498:	88 12       	call	r8		;
    b49a:	3c 93       	cmp	#-1,	r12	;r3 As==11
    b49c:	05 20       	jnz	$+12     	;abs 0xb4a8
    b49e:	89 43 00 00 	mov	#0,	0(r9)	;r3 As==00
    b4a2:	ba 40 8a 00 	mov	#138,	0(r10)	;#0x008a
    b4a6:	00 00 
    b4a8:	31 50 14 00 	add	#20,	r1	;#0x0014
    b4ac:	30 40 ac 51 	br	#0x51ac		;

0000b4b0 <wcrtomb>:
    b4b0:	0a 12       	push	r10		;
    b4b2:	09 12       	push	r9		;
    b4b4:	21 83       	decd	r1		;
    b4b6:	09 4c       	mov	r12,	r9	;
    b4b8:	0a 4d       	mov	r13,	r10	;
    b4ba:	0b 4e       	mov	r14,	r11	;
    b4bc:	81 4f 00 00 	mov	r15,	0(r1)	;
    b4c0:	1c 42 20 02 	mov	&0x0220,r12	;0x0220
    b4c4:	0d 49       	mov	r9,	r13	;
    b4c6:	0e 4a       	mov	r10,	r14	;
    b4c8:	0f 4b       	mov	r11,	r15	;
    b4ca:	b0 12 3c b4 	call	#46140		;#0xb43c
    b4ce:	21 53       	incd	r1		;
    b4d0:	30 40 ae 51 	br	#0x51ae		;

0000b4d4 <__ascii_wctomb>:
    b4d4:	0d 93       	cmp	#0,	r13	;r3 As==00
    b4d6:	0f 24       	jz	$+32     	;abs 0xb4f6
    b4d8:	3f 40 ff 00 	mov	#255,	r15	;#0x00ff
    b4dc:	0f 9e       	cmp	r14,	r15	;
    b4de:	06 2c       	jc	$+14     	;abs 0xb4ec
    b4e0:	bc 40 8a 00 	mov	#138,	0(r12)	;#0x008a
    b4e4:	00 00 
    b4e6:	3c 43       	mov	#-1,	r12	;r3 As==11
    b4e8:	30 40 f8 b4 	br	#0xb4f8		;
    b4ec:	cd 4e 00 00 	mov.b	r14,	0(r13)	;
    b4f0:	1c 43       	mov	#1,	r12	;r3 As==01
    b4f2:	30 40 f8 b4 	br	#0xb4f8		;
    b4f6:	0c 4d       	mov	r13,	r12	;
    b4f8:	30 41       	ret			

0000b4fa <_wctomb_r>:
    b4fa:	0a 12       	push	r10		;
    b4fc:	09 12       	push	r9		;
    b4fe:	31 80 0a 00 	sub	#10,	r1	;#0x000a
    b502:	09 4c       	mov	r12,	r9	;
    b504:	1a 42 fe 02 	mov	&0x02fe,r10	;0x02fe
    b508:	81 4d 08 00 	mov	r13,	8(r1)	;
    b50c:	81 4e 06 00 	mov	r14,	6(r1)	;
    b510:	81 4f 04 00 	mov	r15,	4(r1)	;
    b514:	b0 12 a2 8e 	call	#36514		;#0x8ea2
    b518:	81 4c 00 00 	mov	r12,	0(r1)	;
    b51c:	91 41 10 00 	mov	16(r1),	2(r1)	;0x00010
    b520:	02 00 
    b522:	0c 49       	mov	r9,	r12	;
    b524:	1d 41 08 00 	mov	8(r1),	r13	;
    b528:	1e 41 06 00 	mov	6(r1),	r14	;
    b52c:	1f 41 04 00 	mov	4(r1),	r15	;
    b530:	8a 12       	call	r10		;
    b532:	31 50 0a 00 	add	#10,	r1	;#0x000a
    b536:	30 40 ae 51 	br	#0x51ae		;

0000b53a <_fpadd_parts>:
    b53a:	0a 12       	push	r10		;
    b53c:	09 12       	push	r9		;
    b53e:	08 12       	push	r8		;
    b540:	07 12       	push	r7		;
    b542:	06 12       	push	r6		;
    b544:	05 12       	push	r5		;
    b546:	04 12       	push	r4		;
    b548:	31 80 18 00 	sub	#24,	r1	;#0x0018
    b54c:	2f 4c       	mov	@r12,	r15	;
    b54e:	16 43       	mov	#1,	r6	;r3 As==01
    b550:	06 9f       	cmp	r15,	r6	;
    b552:	02 28       	jnc	$+6      	;abs 0xb558
    b554:	30 40 1e bb 	br	#0xbb1e		;
    b558:	29 4d       	mov	@r13,	r9	;
    b55a:	06 99       	cmp	r9,	r6	;
    b55c:	02 28       	jnc	$+6      	;abs 0xb562
    b55e:	30 40 0c bb 	br	#0xbb0c		;
    b562:	2f 92       	cmp	#4,	r15	;r2 As==10
    b564:	0e 20       	jnz	$+30     	;abs 0xb582
    b566:	29 92       	cmp	#4,	r9	;r2 As==10
    b568:	02 24       	jz	$+6      	;abs 0xb56e
    b56a:	30 40 1e bb 	br	#0xbb1e		;
    b56e:	9c 9d 02 00 	cmp	2(r13),	2(r12)	;
    b572:	02 00 
    b574:	02 20       	jnz	$+6      	;abs 0xb57a
    b576:	30 40 1e bb 	br	#0xbb1e		;
    b57a:	3c 40 16 46 	mov	#17942,	r12	;#0x4616
    b57e:	30 40 1e bb 	br	#0xbb1e		;
    b582:	29 92       	cmp	#4,	r9	;r2 As==10
    b584:	02 20       	jnz	$+6      	;abs 0xb58a
    b586:	30 40 0c bb 	br	#0xbb0c		;
    b58a:	0a 4e       	mov	r14,	r10	;
    b58c:	81 4d 0a 00 	mov	r13,	10(r1)	; 0x000a
    b590:	81 4c 06 00 	mov	r12,	6(r1)	;
    b594:	29 93       	cmp	#2,	r9	;r3 As==10
    b596:	17 20       	jnz	$+48     	;abs 0xb5c6
    b598:	2f 93       	cmp	#2,	r15	;r3 As==10
    b59a:	02 24       	jz	$+6      	;abs 0xb5a0
    b59c:	30 40 12 bb 	br	#0xbb12		;
    b5a0:	0c 4e       	mov	r14,	r12	;
    b5a2:	1d 41 06 00 	mov	6(r1),	r13	;
    b5a6:	3e 40 0e 00 	mov	#14,	r14	;#0x000e
    b5aa:	b0 12 18 54 	call	#21528		;#0x5418
    b5ae:	17 41 0a 00 	mov	10(r1),	r7	;0x0000a
    b5b2:	19 47 02 00 	mov	2(r7),	r9	;
    b5b6:	17 41 06 00 	mov	6(r1),	r7	;
    b5ba:	19 f7 02 00 	and	2(r7),	r9	;
    b5be:	8a 49 02 00 	mov	r9,	2(r10)	;
    b5c2:	30 40 06 bb 	br	#0xbb06		;
    b5c6:	2f 93       	cmp	#2,	r15	;r3 As==10
    b5c8:	02 20       	jnz	$+6      	;abs 0xb5ce
    b5ca:	30 40 1a bb 	br	#0xbb1a		;
    b5ce:	16 41 06 00 	mov	6(r1),	r6	;
    b5d2:	91 46 04 00 	mov	4(r6),	8(r1)	;
    b5d6:	08 00 
    b5d8:	17 41 0a 00 	mov	10(r1),	r7	;0x0000a
    b5dc:	1d 47 04 00 	mov	4(r7),	r13	;
    b5e0:	18 46 06 00 	mov	6(r6),	r8	;
    b5e4:	91 46 08 00 	mov	8(r6),	2(r1)	;
    b5e8:	02 00 
    b5ea:	91 46 0a 00 	mov	10(r6),	4(r1)	;0x0000a
    b5ee:	04 00 
    b5f0:	91 46 0c 00 	mov	12(r6),	12(r1)	;0x0000c, 0x000c
    b5f4:	0c 00 
    b5f6:	19 47 06 00 	mov	6(r7),	r9	;
    b5fa:	15 47 08 00 	mov	8(r7),	r5	;
    b5fe:	14 47 0a 00 	mov	10(r7),	r4	;0x0000a
    b602:	91 47 0c 00 	mov	12(r7),	14(r1)	;0x0000c, 0x000e
    b606:	0e 00 
    b608:	1c 41 08 00 	mov	8(r1),	r12	;
    b60c:	0c 8d       	sub	r13,	r12	;
    b60e:	07 4c       	mov	r12,	r7	;
    b610:	0c 93       	cmp	#0,	r12	;r3 As==00
    b612:	02 34       	jge	$+6      	;abs 0xb618
    b614:	07 43       	clr	r7		;
    b616:	07 8c       	sub	r12,	r7	;
    b618:	3e 40 3f 00 	mov	#63,	r14	;#0x003f
    b61c:	0e 97       	cmp	r7,	r14	;
    b61e:	09 39       	jl	$+532    	;abs 0xb832
    b620:	0f 43       	clr	r15		;
    b622:	0f 9c       	cmp	r12,	r15	;
    b624:	77 34       	jge	$+240    	;abs 0xb714
    b626:	81 47 00 00 	mov	r7,	0(r1)	;
    b62a:	0c 49       	mov	r9,	r12	;
    b62c:	0d 45       	mov	r5,	r13	;
    b62e:	0e 44       	mov	r4,	r14	;
    b630:	1f 41 0e 00 	mov	14(r1),	r15	;0x0000e
    b634:	b0 12 90 cb 	call	#52112		;#0xcb90
    b638:	81 4c 10 00 	mov	r12,	16(r1)	; 0x0010
    b63c:	81 4d 12 00 	mov	r13,	18(r1)	; 0x0012
    b640:	81 4e 14 00 	mov	r14,	20(r1)	; 0x0014
    b644:	81 4f 16 00 	mov	r15,	22(r1)	; 0x0016
    b648:	1c 43       	mov	#1,	r12	;r3 As==01
    b64a:	0d 43       	clr	r13		;
    b64c:	0e 4d       	mov	r13,	r14	;
    b64e:	0f 4d       	mov	r13,	r15	;
    b650:	b0 12 0c cc 	call	#52236		;#0xcc0c
    b654:	06 4c       	mov	r12,	r6	;
    b656:	36 53       	add	#-1,	r6	;r3 As==11
    b658:	1b 43       	mov	#1,	r11	;r3 As==01
    b65a:	0c 93       	cmp	#0,	r12	;r3 As==00
    b65c:	01 20       	jnz	$+4      	;abs 0xb660
    b65e:	0b 43       	clr	r11		;
    b660:	0c 4d       	mov	r13,	r12	;
    b662:	3c 53       	add	#-1,	r12	;r3 As==11
    b664:	17 43       	mov	#1,	r7	;r3 As==01
    b666:	0c 9d       	cmp	r13,	r12	;
    b668:	01 28       	jnc	$+4      	;abs 0xb66c
    b66a:	07 43       	clr	r7		;
    b66c:	0b 5c       	add	r12,	r11	;
    b66e:	1d 43       	mov	#1,	r13	;r3 As==01
    b670:	0b 9c       	cmp	r12,	r11	;
    b672:	01 28       	jnc	$+4      	;abs 0xb676
    b674:	0d 43       	clr	r13		;
    b676:	07 dd       	bis	r13,	r7	;
    b678:	0d 4e       	mov	r14,	r13	;
    b67a:	3d 53       	add	#-1,	r13	;r3 As==11
    b67c:	1c 43       	mov	#1,	r12	;r3 As==01
    b67e:	0d 9e       	cmp	r14,	r13	;
    b680:	01 28       	jnc	$+4      	;abs 0xb684
    b682:	0c 43       	clr	r12		;
    b684:	07 5d       	add	r13,	r7	;
    b686:	1e 43       	mov	#1,	r14	;r3 As==01
    b688:	07 9d       	cmp	r13,	r7	;
    b68a:	01 28       	jnc	$+4      	;abs 0xb68e
    b68c:	0e 43       	clr	r14		;
    b68e:	0c de       	bis	r14,	r12	;
    b690:	3f 53       	add	#-1,	r15	;r3 As==11
    b692:	0f 5c       	add	r12,	r15	;
    b694:	09 f6       	and	r6,	r9	;
    b696:	05 fb       	and	r11,	r5	;
    b698:	07 f4       	and	r4,	r7	;
    b69a:	1f f1 0e 00 	and	14(r1),	r15	;0x0000e
    b69e:	0c 43       	clr	r12		;
    b6a0:	0c 89       	sub	r9,	r12	;
    b6a2:	14 43       	mov	#1,	r4	;r3 As==01
    b6a4:	0c 93       	cmp	#0,	r12	;r3 As==00
    b6a6:	01 20       	jnz	$+4      	;abs 0xb6aa
    b6a8:	04 4c       	mov	r12,	r4	;
    b6aa:	0e 43       	clr	r14		;
    b6ac:	0e 85       	sub	r5,	r14	;
    b6ae:	16 43       	mov	#1,	r6	;r3 As==01
    b6b0:	0e 93       	cmp	#0,	r14	;r3 As==00
    b6b2:	01 20       	jnz	$+4      	;abs 0xb6b6
    b6b4:	06 4e       	mov	r14,	r6	;
    b6b6:	0d 4e       	mov	r14,	r13	;
    b6b8:	0d 84       	sub	r4,	r13	;
    b6ba:	14 43       	mov	#1,	r4	;r3 As==01
    b6bc:	0e 9d       	cmp	r13,	r14	;
    b6be:	01 28       	jnc	$+4      	;abs 0xb6c2
    b6c0:	04 43       	clr	r4		;
    b6c2:	06 d4       	bis	r4,	r6	;
    b6c4:	0b 43       	clr	r11		;
    b6c6:	0b 87       	sub	r7,	r11	;
    b6c8:	14 43       	mov	#1,	r4	;r3 As==01
    b6ca:	0b 93       	cmp	#0,	r11	;r3 As==00
    b6cc:	01 20       	jnz	$+4      	;abs 0xb6d0
    b6ce:	04 4b       	mov	r11,	r4	;
    b6d0:	0e 4b       	mov	r11,	r14	;
    b6d2:	0e 86       	sub	r6,	r14	;
    b6d4:	16 43       	mov	#1,	r6	;r3 As==01
    b6d6:	0b 9e       	cmp	r14,	r11	;
    b6d8:	01 28       	jnc	$+4      	;abs 0xb6dc
    b6da:	06 43       	clr	r6		;
    b6dc:	04 d6       	bis	r6,	r4	;
    b6de:	0b 43       	clr	r11		;
    b6e0:	0b 8f       	sub	r15,	r11	;
    b6e2:	0b 84       	sub	r4,	r11	;
    b6e4:	b1 40 3f 00 	mov	#63,	0(r1)	;#0x003f
    b6e8:	00 00 
    b6ea:	0c d9       	bis	r9,	r12	;
    b6ec:	0d d5       	bis	r5,	r13	;
    b6ee:	0e d7       	bis	r7,	r14	;
    b6f0:	0f db       	bis	r11,	r15	;
    b6f2:	b0 12 90 cb 	call	#52112		;#0xcb90
    b6f6:	19 41 10 00 	mov	16(r1),	r9	;0x00010
    b6fa:	09 dc       	bis	r12,	r9	;
    b6fc:	15 41 12 00 	mov	18(r1),	r5	;0x00012
    b700:	05 dd       	bis	r13,	r5	;
    b702:	14 41 14 00 	mov	20(r1),	r4	;0x00014
    b706:	04 de       	bis	r14,	r4	;
    b708:	1f d1 16 00 	bis	22(r1),	r15	;0x00016
    b70c:	81 4f 0e 00 	mov	r15,	14(r1)	; 0x000e
    b710:	30 40 58 b8 	br	#0xb858		;
    b714:	0c 93       	cmp	#0,	r12	;r3 As==00
    b716:	a0 24       	jz	$+322    	;abs 0xb858
    b718:	81 57 08 00 	add	r7,	8(r1)	;
    b71c:	81 47 00 00 	mov	r7,	0(r1)	;
    b720:	0c 48       	mov	r8,	r12	;
    b722:	1d 41 02 00 	mov	2(r1),	r13	;
    b726:	1e 41 04 00 	mov	4(r1),	r14	;
    b72a:	1f 41 0c 00 	mov	12(r1),	r15	;0x0000c
    b72e:	b0 12 90 cb 	call	#52112		;#0xcb90
    b732:	81 4c 10 00 	mov	r12,	16(r1)	; 0x0010
    b736:	81 4d 12 00 	mov	r13,	18(r1)	; 0x0012
    b73a:	81 4e 14 00 	mov	r14,	20(r1)	; 0x0014
    b73e:	81 4f 16 00 	mov	r15,	22(r1)	; 0x0016
    b742:	1c 43       	mov	#1,	r12	;r3 As==01
    b744:	0d 43       	clr	r13		;
    b746:	0e 4d       	mov	r13,	r14	;
    b748:	0f 4d       	mov	r13,	r15	;
    b74a:	b0 12 0c cc 	call	#52236		;#0xcc0c
    b74e:	07 4d       	mov	r13,	r7	;
    b750:	0b 4c       	mov	r12,	r11	;
    b752:	3b 53       	add	#-1,	r11	;r3 As==11
    b754:	1d 43       	mov	#1,	r13	;r3 As==01
    b756:	0c 93       	cmp	#0,	r12	;r3 As==00
    b758:	01 20       	jnz	$+4      	;abs 0xb75c
    b75a:	0d 43       	clr	r13		;
    b75c:	06 47       	mov	r7,	r6	;
    b75e:	36 53       	add	#-1,	r6	;r3 As==11
    b760:	1c 43       	mov	#1,	r12	;r3 As==01
    b762:	06 97       	cmp	r7,	r6	;
    b764:	01 28       	jnc	$+4      	;abs 0xb768
    b766:	0c 43       	clr	r12		;
    b768:	0d 56       	add	r6,	r13	;
    b76a:	17 43       	mov	#1,	r7	;r3 As==01
    b76c:	0d 96       	cmp	r6,	r13	;
    b76e:	01 28       	jnc	$+4      	;abs 0xb772
    b770:	07 43       	clr	r7		;
    b772:	0c d7       	bis	r7,	r12	;
    b774:	06 4e       	mov	r14,	r6	;
    b776:	36 53       	add	#-1,	r6	;r3 As==11
    b778:	17 43       	mov	#1,	r7	;r3 As==01
    b77a:	06 9e       	cmp	r14,	r6	;
    b77c:	01 28       	jnc	$+4      	;abs 0xb780
    b77e:	07 43       	clr	r7		;
    b780:	0e 4c       	mov	r12,	r14	;
    b782:	0e 56       	add	r6,	r14	;
    b784:	1c 43       	mov	#1,	r12	;r3 As==01
    b786:	0e 96       	cmp	r6,	r14	;
    b788:	01 28       	jnc	$+4      	;abs 0xb78c
    b78a:	0c 43       	clr	r12		;
    b78c:	07 dc       	bis	r12,	r7	;
    b78e:	3f 53       	add	#-1,	r15	;r3 As==11
    b790:	0f 57       	add	r7,	r15	;
    b792:	0b f8       	and	r8,	r11	;
    b794:	1d f1 02 00 	and	2(r1),	r13	;
    b798:	1e f1 04 00 	and	4(r1),	r14	;
    b79c:	1f f1 0c 00 	and	12(r1),	r15	;0x0000c
    b7a0:	81 4f 0c 00 	mov	r15,	12(r1)	; 0x000c
    b7a4:	0c 43       	clr	r12		;
    b7a6:	0c 8b       	sub	r11,	r12	;
    b7a8:	1f 43       	mov	#1,	r15	;r3 As==01
    b7aa:	0c 93       	cmp	#0,	r12	;r3 As==00
    b7ac:	01 20       	jnz	$+4      	;abs 0xb7b0
    b7ae:	0f 4c       	mov	r12,	r15	;
    b7b0:	08 43       	clr	r8		;
    b7b2:	08 8d       	sub	r13,	r8	;
    b7b4:	16 43       	mov	#1,	r6	;r3 As==01
    b7b6:	08 93       	cmp	#0,	r8	;r3 As==00
    b7b8:	01 20       	jnz	$+4      	;abs 0xb7bc
    b7ba:	06 48       	mov	r8,	r6	;
    b7bc:	07 48       	mov	r8,	r7	;
    b7be:	07 8f       	sub	r15,	r7	;
    b7c0:	81 47 02 00 	mov	r7,	2(r1)	;
    b7c4:	17 43       	mov	#1,	r7	;r3 As==01
    b7c6:	18 91 02 00 	cmp	2(r1),	r8	;
    b7ca:	01 28       	jnc	$+4      	;abs 0xb7ce
    b7cc:	07 43       	clr	r7		;
    b7ce:	06 d7       	bis	r7,	r6	;
    b7d0:	07 43       	clr	r7		;
    b7d2:	07 8e       	sub	r14,	r7	;
    b7d4:	18 43       	mov	#1,	r8	;r3 As==01
    b7d6:	07 93       	cmp	#0,	r7	;r3 As==00
    b7d8:	01 20       	jnz	$+4      	;abs 0xb7dc
    b7da:	08 47       	mov	r7,	r8	;
    b7dc:	0f 47       	mov	r7,	r15	;
    b7de:	0f 86       	sub	r6,	r15	;
    b7e0:	81 4f 04 00 	mov	r15,	4(r1)	;
    b7e4:	16 43       	mov	#1,	r6	;r3 As==01
    b7e6:	07 9f       	cmp	r15,	r7	;
    b7e8:	01 28       	jnc	$+4      	;abs 0xb7ec
    b7ea:	06 43       	clr	r6		;
    b7ec:	08 d6       	bis	r6,	r8	;
    b7ee:	07 43       	clr	r7		;
    b7f0:	17 81 0c 00 	sub	12(r1),	r7	;0x0000c
    b7f4:	07 88       	sub	r8,	r7	;
    b7f6:	b1 40 3f 00 	mov	#63,	0(r1)	;#0x003f
    b7fa:	00 00 
    b7fc:	0c db       	bis	r11,	r12	;
    b7fe:	1d d1 02 00 	bis	2(r1),	r13	;
    b802:	1e d1 04 00 	bis	4(r1),	r14	;
    b806:	1f 41 0c 00 	mov	12(r1),	r15	;0x0000c
    b80a:	0f d7       	bis	r7,	r15	;
    b80c:	b0 12 90 cb 	call	#52112		;#0xcb90
    b810:	18 41 10 00 	mov	16(r1),	r8	;0x00010
    b814:	08 dc       	bis	r12,	r8	;
    b816:	1d d1 12 00 	bis	18(r1),	r13	;0x00012
    b81a:	81 4d 02 00 	mov	r13,	2(r1)	;
    b81e:	1e d1 14 00 	bis	20(r1),	r14	;0x00014
    b822:	81 4e 04 00 	mov	r14,	4(r1)	;
    b826:	1f d1 16 00 	bis	22(r1),	r15	;0x00016
    b82a:	81 4f 0c 00 	mov	r15,	12(r1)	; 0x000c
    b82e:	30 40 58 b8 	br	#0xb858		;
    b832:	1d 91 08 00 	cmp	8(r1),	r13	;
    b836:	0b 38       	jl	$+24     	;abs 0xb84e
    b838:	81 4d 08 00 	mov	r13,	8(r1)	;
    b83c:	08 43       	clr	r8		;
    b83e:	81 48 02 00 	mov	r8,	2(r1)	;
    b842:	81 48 04 00 	mov	r8,	4(r1)	;
    b846:	81 48 0c 00 	mov	r8,	12(r1)	; 0x000c
    b84a:	30 40 58 b8 	br	#0xb858		;
    b84e:	09 43       	clr	r9		;
    b850:	05 49       	mov	r9,	r5	;
    b852:	04 49       	mov	r9,	r4	;
    b854:	81 49 0e 00 	mov	r9,	14(r1)	; 0x000e
    b858:	16 41 06 00 	mov	6(r1),	r6	;
    b85c:	1c 46 02 00 	mov	2(r6),	r12	;
    b860:	17 41 0a 00 	mov	10(r1),	r7	;0x0000a
    b864:	1c 97 02 00 	cmp	2(r7),	r12	;
    b868:	fb 24       	jz	$+504    	;abs 0xba60
    b86a:	0c 93       	cmp	#0,	r12	;r3 As==00
    b86c:	28 24       	jz	$+82     	;abs 0xb8be
    b86e:	07 49       	mov	r9,	r7	;
    b870:	07 88       	sub	r8,	r7	;
    b872:	1d 43       	mov	#1,	r13	;r3 As==01
    b874:	09 97       	cmp	r7,	r9	;
    b876:	01 28       	jnc	$+4      	;abs 0xb87a
    b878:	0d 43       	clr	r13		;
    b87a:	0c 45       	mov	r5,	r12	;
    b87c:	1c 81 02 00 	sub	2(r1),	r12	;
    b880:	1f 43       	mov	#1,	r15	;r3 As==01
    b882:	05 9c       	cmp	r12,	r5	;
    b884:	01 28       	jnc	$+4      	;abs 0xb888
    b886:	0f 43       	clr	r15		;
    b888:	0e 4c       	mov	r12,	r14	;
    b88a:	0e 8d       	sub	r13,	r14	;
    b88c:	1d 43       	mov	#1,	r13	;r3 As==01
    b88e:	0c 9e       	cmp	r14,	r12	;
    b890:	01 28       	jnc	$+4      	;abs 0xb894
    b892:	0d 43       	clr	r13		;
    b894:	0f dd       	bis	r13,	r15	;
    b896:	09 44       	mov	r4,	r9	;
    b898:	19 81 04 00 	sub	4(r1),	r9	;
    b89c:	1d 43       	mov	#1,	r13	;r3 As==01
    b89e:	04 99       	cmp	r9,	r4	;
    b8a0:	01 28       	jnc	$+4      	;abs 0xb8a4
    b8a2:	0d 43       	clr	r13		;
    b8a4:	0c 49       	mov	r9,	r12	;
    b8a6:	0c 8f       	sub	r15,	r12	;
    b8a8:	1f 43       	mov	#1,	r15	;r3 As==01
    b8aa:	09 9c       	cmp	r12,	r9	;
    b8ac:	01 28       	jnc	$+4      	;abs 0xb8b0
    b8ae:	0f 43       	clr	r15		;
    b8b0:	0d df       	bis	r15,	r13	;
    b8b2:	1f 41 0e 00 	mov	14(r1),	r15	;0x0000e
    b8b6:	1f 81 0c 00 	sub	12(r1),	r15	;0x0000c
    b8ba:	30 40 0e b9 	br	#0xb90e		;
    b8be:	07 48       	mov	r8,	r7	;
    b8c0:	07 89       	sub	r9,	r7	;
    b8c2:	1d 43       	mov	#1,	r13	;r3 As==01
    b8c4:	08 97       	cmp	r7,	r8	;
    b8c6:	01 28       	jnc	$+4      	;abs 0xb8ca
    b8c8:	0d 4c       	mov	r12,	r13	;
    b8ca:	1c 41 02 00 	mov	2(r1),	r12	;
    b8ce:	0c 85       	sub	r5,	r12	;
    b8d0:	1f 43       	mov	#1,	r15	;r3 As==01
    b8d2:	81 9c 02 00 	cmp	r12,	2(r1)	;
    b8d6:	01 28       	jnc	$+4      	;abs 0xb8da
    b8d8:	0f 43       	clr	r15		;
    b8da:	0e 4c       	mov	r12,	r14	;
    b8dc:	0e 8d       	sub	r13,	r14	;
    b8de:	1d 43       	mov	#1,	r13	;r3 As==01
    b8e0:	0c 9e       	cmp	r14,	r12	;
    b8e2:	01 28       	jnc	$+4      	;abs 0xb8e6
    b8e4:	0d 43       	clr	r13		;
    b8e6:	0f dd       	bis	r13,	r15	;
    b8e8:	19 41 04 00 	mov	4(r1),	r9	;
    b8ec:	09 84       	sub	r4,	r9	;
    b8ee:	1d 43       	mov	#1,	r13	;r3 As==01
    b8f0:	81 99 04 00 	cmp	r9,	4(r1)	;
    b8f4:	01 28       	jnc	$+4      	;abs 0xb8f8
    b8f6:	0d 43       	clr	r13		;
    b8f8:	0c 49       	mov	r9,	r12	;
    b8fa:	0c 8f       	sub	r15,	r12	;
    b8fc:	1f 43       	mov	#1,	r15	;r3 As==01
    b8fe:	09 9c       	cmp	r12,	r9	;
    b900:	01 28       	jnc	$+4      	;abs 0xb904
    b902:	0f 43       	clr	r15		;
    b904:	0d df       	bis	r15,	r13	;
    b906:	1f 41 0c 00 	mov	12(r1),	r15	;0x0000c
    b90a:	1f 81 0e 00 	sub	14(r1),	r15	;0x0000e
    b90e:	0f 8d       	sub	r13,	r15	;
    b910:	0f 93       	cmp	#0,	r15	;r3 As==00
    b912:	0f 38       	jl	$+32     	;abs 0xb932
    b914:	8a 43 02 00 	mov	#0,	2(r10)	;r3 As==00
    b918:	9a 41 08 00 	mov	8(r1),	4(r10)	;
    b91c:	04 00 
    b91e:	8a 47 06 00 	mov	r7,	6(r10)	;
    b922:	8a 4e 08 00 	mov	r14,	8(r10)	;
    b926:	8a 4c 0a 00 	mov	r12,	10(r10)	; 0x000a
    b92a:	8a 4f 0c 00 	mov	r15,	12(r10)	; 0x000c
    b92e:	30 40 2c ba 	br	#0xba2c		;
    b932:	9a 43 02 00 	mov	#1,	2(r10)	;r3 As==01
    b936:	9a 41 08 00 	mov	8(r1),	4(r10)	;
    b93a:	04 00 
    b93c:	09 43       	clr	r9		;
    b93e:	09 87       	sub	r7,	r9	;
    b940:	18 43       	mov	#1,	r8	;r3 As==01
    b942:	09 93       	cmp	#0,	r9	;r3 As==00
    b944:	01 20       	jnz	$+4      	;abs 0xb948
    b946:	08 49       	mov	r9,	r8	;
    b948:	0d 43       	clr	r13		;
    b94a:	0d 8e       	sub	r14,	r13	;
    b94c:	1e 43       	mov	#1,	r14	;r3 As==01
    b94e:	0d 93       	cmp	#0,	r13	;r3 As==00
    b950:	01 20       	jnz	$+4      	;abs 0xb954
    b952:	0e 4d       	mov	r13,	r14	;
    b954:	07 4d       	mov	r13,	r7	;
    b956:	07 88       	sub	r8,	r7	;
    b958:	18 43       	mov	#1,	r8	;r3 As==01
    b95a:	0d 97       	cmp	r7,	r13	;
    b95c:	01 28       	jnc	$+4      	;abs 0xb960
    b95e:	08 43       	clr	r8		;
    b960:	0e d8       	bis	r8,	r14	;
    b962:	0d 43       	clr	r13		;
    b964:	0d 8c       	sub	r12,	r13	;
    b966:	1c 43       	mov	#1,	r12	;r3 As==01
    b968:	0d 93       	cmp	#0,	r13	;r3 As==00
    b96a:	01 20       	jnz	$+4      	;abs 0xb96e
    b96c:	0c 4d       	mov	r13,	r12	;
    b96e:	08 4d       	mov	r13,	r8	;
    b970:	08 8e       	sub	r14,	r8	;
    b972:	1e 43       	mov	#1,	r14	;r3 As==01
    b974:	0d 98       	cmp	r8,	r13	;
    b976:	01 28       	jnc	$+4      	;abs 0xb97a
    b978:	0e 43       	clr	r14		;
    b97a:	0c de       	bis	r14,	r12	;
    b97c:	0d 43       	clr	r13		;
    b97e:	0d 8f       	sub	r15,	r13	;
    b980:	8a 49 06 00 	mov	r9,	6(r10)	;
    b984:	8a 47 08 00 	mov	r7,	8(r10)	;
    b988:	8a 48 0a 00 	mov	r8,	10(r10)	; 0x000a
    b98c:	0d 8c       	sub	r12,	r13	;
    b98e:	8a 4d 0c 00 	mov	r13,	12(r10)	; 0x000c
    b992:	30 40 2c ba 	br	#0xba2c		;
    b996:	0c 4f       	mov	r15,	r12	;
    b998:	3c 53       	add	#-1,	r12	;r3 As==11
    b99a:	1d 43       	mov	#1,	r13	;r3 As==01
    b99c:	0c 9f       	cmp	r15,	r12	;
    b99e:	01 28       	jnc	$+4      	;abs 0xb9a2
    b9a0:	0d 43       	clr	r13		;
    b9a2:	07 5c       	add	r12,	r7	;
    b9a4:	16 43       	mov	#1,	r6	;r3 As==01
    b9a6:	07 9c       	cmp	r12,	r7	;
    b9a8:	01 28       	jnc	$+4      	;abs 0xb9ac
    b9aa:	06 43       	clr	r6		;
    b9ac:	0d d6       	bis	r6,	r13	;
    b9ae:	0c 49       	mov	r9,	r12	;
    b9b0:	3c 53       	add	#-1,	r12	;r3 As==11
    b9b2:	16 43       	mov	#1,	r6	;r3 As==01
    b9b4:	0c 99       	cmp	r9,	r12	;
    b9b6:	01 28       	jnc	$+4      	;abs 0xb9ba
    b9b8:	06 43       	clr	r6		;
    b9ba:	0d 5c       	add	r12,	r13	;
    b9bc:	14 43       	mov	#1,	r4	;r3 As==01
    b9be:	0d 9c       	cmp	r12,	r13	;
    b9c0:	01 28       	jnc	$+4      	;abs 0xb9c4
    b9c2:	04 43       	clr	r4		;
    b9c4:	06 d4       	bis	r4,	r6	;
    b9c6:	0c 48       	mov	r8,	r12	;
    b9c8:	3c 53       	add	#-1,	r12	;r3 As==11
    b9ca:	0c 56       	add	r6,	r12	;
    b9cc:	36 40 ff 0f 	mov	#4095,	r6	;#0x0fff
    b9d0:	06 9c       	cmp	r12,	r6	;
    b9d2:	79 28       	jnc	$+244    	;abs 0xbac6
    b9d4:	0c 96       	cmp	r6,	r12	;
    b9d6:	3a 24       	jz	$+118    	;abs 0xba4c
    b9d8:	07 4e       	mov	r14,	r7	;
    b9da:	07 5e       	add	r14,	r7	;
    b9dc:	1d 43       	mov	#1,	r13	;r3 As==01
    b9de:	07 9e       	cmp	r14,	r7	;
    b9e0:	01 28       	jnc	$+4      	;abs 0xb9e4
    b9e2:	0d 43       	clr	r13		;
    b9e4:	0e 4f       	mov	r15,	r14	;
    b9e6:	0e 5f       	add	r15,	r14	;
    b9e8:	1c 43       	mov	#1,	r12	;r3 As==01
    b9ea:	0e 9f       	cmp	r15,	r14	;
    b9ec:	01 28       	jnc	$+4      	;abs 0xb9f0
    b9ee:	0c 43       	clr	r12		;
    b9f0:	0d 5e       	add	r14,	r13	;
    b9f2:	1f 43       	mov	#1,	r15	;r3 As==01
    b9f4:	0d 9e       	cmp	r14,	r13	;
    b9f6:	01 28       	jnc	$+4      	;abs 0xb9fa
    b9f8:	0f 43       	clr	r15		;
    b9fa:	0c df       	bis	r15,	r12	;
    b9fc:	0f 49       	mov	r9,	r15	;
    b9fe:	0f 59       	add	r9,	r15	;
    ba00:	1e 43       	mov	#1,	r14	;r3 As==01
    ba02:	0f 99       	cmp	r9,	r15	;
    ba04:	01 28       	jnc	$+4      	;abs 0xba08
    ba06:	0e 43       	clr	r14		;
    ba08:	0c 5f       	add	r15,	r12	;
    ba0a:	19 43       	mov	#1,	r9	;r3 As==01
    ba0c:	0c 9f       	cmp	r15,	r12	;
    ba0e:	01 28       	jnc	$+4      	;abs 0xba12
    ba10:	09 43       	clr	r9		;
    ba12:	0e d9       	bis	r9,	r14	;
    ba14:	08 58       	rla	r8		;
    ba16:	8a 47 06 00 	mov	r7,	6(r10)	;
    ba1a:	8a 4d 08 00 	mov	r13,	8(r10)	;
    ba1e:	8a 4c 0a 00 	mov	r12,	10(r10)	; 0x000a
    ba22:	0e 58       	add	r8,	r14	;
    ba24:	8a 4e 0c 00 	mov	r14,	12(r10)	; 0x000c
    ba28:	ba 53 04 00 	add	#-1,	4(r10)	;r3 As==11
    ba2c:	1e 4a 06 00 	mov	6(r10),	r14	;
    ba30:	1f 4a 08 00 	mov	8(r10),	r15	;
    ba34:	19 4a 0a 00 	mov	10(r10),r9	;0x0000a
    ba38:	18 4a 0c 00 	mov	12(r10),r8	;0x0000c
    ba3c:	05 4e       	mov	r14,	r5	;
    ba3e:	35 53       	add	#-1,	r5	;r3 As==11
    ba40:	17 43       	mov	#1,	r7	;r3 As==01
    ba42:	05 9e       	cmp	r14,	r5	;
    ba44:	a8 2b       	jnc	$-174    	;abs 0xb996
    ba46:	07 43       	clr	r7		;
    ba48:	30 40 96 b9 	br	#0xb996		;
    ba4c:	3d 93       	cmp	#-1,	r13	;r3 As==11
    ba4e:	c4 23       	jnz	$-118    	;abs 0xb9d8
    ba50:	37 93       	cmp	#-1,	r7	;r3 As==11
    ba52:	c2 23       	jnz	$-122    	;abs 0xb9d8
    ba54:	37 40 fe ff 	mov	#65534,	r7	;#0xfffe
    ba58:	07 95       	cmp	r5,	r7	;
    ba5a:	be 2f       	jc	$-130    	;abs 0xb9d8
    ba5c:	30 40 c6 ba 	br	#0xbac6		;
    ba60:	8a 4c 02 00 	mov	r12,	2(r10)	;
    ba64:	9a 41 08 00 	mov	8(r1),	4(r10)	;
    ba68:	04 00 
    ba6a:	0b 49       	mov	r9,	r11	;
    ba6c:	0b 58       	add	r8,	r11	;
    ba6e:	1e 43       	mov	#1,	r14	;r3 As==01
    ba70:	0b 99       	cmp	r9,	r11	;
    ba72:	01 28       	jnc	$+4      	;abs 0xba76
    ba74:	0e 43       	clr	r14		;
    ba76:	1d 41 02 00 	mov	2(r1),	r13	;
    ba7a:	0d 55       	add	r5,	r13	;
    ba7c:	1c 43       	mov	#1,	r12	;r3 As==01
    ba7e:	0d 95       	cmp	r5,	r13	;
    ba80:	01 28       	jnc	$+4      	;abs 0xba84
    ba82:	0c 43       	clr	r12		;
    ba84:	09 4e       	mov	r14,	r9	;
    ba86:	09 5d       	add	r13,	r9	;
    ba88:	1e 43       	mov	#1,	r14	;r3 As==01
    ba8a:	09 9d       	cmp	r13,	r9	;
    ba8c:	01 28       	jnc	$+4      	;abs 0xba90
    ba8e:	0e 43       	clr	r14		;
    ba90:	0c de       	bis	r14,	r12	;
    ba92:	1e 41 04 00 	mov	4(r1),	r14	;
    ba96:	0e 54       	add	r4,	r14	;
    ba98:	1d 43       	mov	#1,	r13	;r3 As==01
    ba9a:	0e 94       	cmp	r4,	r14	;
    ba9c:	01 28       	jnc	$+4      	;abs 0xbaa0
    ba9e:	0d 43       	clr	r13		;
    baa0:	0c 5e       	add	r14,	r12	;
    baa2:	1f 43       	mov	#1,	r15	;r3 As==01
    baa4:	0c 9e       	cmp	r14,	r12	;
    baa6:	01 28       	jnc	$+4      	;abs 0xbaaa
    baa8:	0f 43       	clr	r15		;
    baaa:	0d df       	bis	r15,	r13	;
    baac:	1f 41 0e 00 	mov	14(r1),	r15	;0x0000e
    bab0:	1f 51 0c 00 	add	12(r1),	r15	;0x0000c
    bab4:	8a 4b 06 00 	mov	r11,	6(r10)	;
    bab8:	8a 49 08 00 	mov	r9,	8(r10)	;
    babc:	8a 4c 0a 00 	mov	r12,	10(r10)	; 0x000a
    bac0:	0d 5f       	add	r15,	r13	;
    bac2:	8a 4d 0c 00 	mov	r13,	12(r10)	; 0x000c
    bac6:	ba 40 03 00 	mov	#3,	0(r10)	;
    baca:	00 00 
    bacc:	1c 4a 06 00 	mov	6(r10),	r12	;
    bad0:	1d 4a 08 00 	mov	8(r10),	r13	;
    bad4:	1e 4a 0a 00 	mov	10(r10),r14	;0x0000a
    bad8:	1f 4a 0c 00 	mov	12(r10),r15	;0x0000c
    badc:	39 40 ff 1f 	mov	#8191,	r9	;#0x1fff
    bae0:	09 9f       	cmp	r15,	r9	;
    bae2:	11 2c       	jc	$+36     	;abs 0xbb06
    bae4:	09 4c       	mov	r12,	r9	;
    bae6:	19 f3       	and	#1,	r9	;r3 As==01
    bae8:	91 43 00 00 	mov	#1,	0(r1)	;r3 As==01
    baec:	b0 12 90 cb 	call	#52112		;#0xcb90
    baf0:	09 dc       	bis	r12,	r9	;
    baf2:	8a 49 06 00 	mov	r9,	6(r10)	;
    baf6:	8a 4d 08 00 	mov	r13,	8(r10)	;
    bafa:	8a 4e 0a 00 	mov	r14,	10(r10)	; 0x000a
    bafe:	8a 4f 0c 00 	mov	r15,	12(r10)	; 0x000c
    bb02:	9a 53 04 00 	inc	4(r10)		;
    bb06:	0c 4a       	mov	r10,	r12	;
    bb08:	30 40 1e bb 	br	#0xbb1e		;
    bb0c:	0c 4d       	mov	r13,	r12	;
    bb0e:	30 40 1e bb 	br	#0xbb1e		;
    bb12:	1c 41 06 00 	mov	6(r1),	r12	;
    bb16:	30 40 1e bb 	br	#0xbb1e		;
    bb1a:	1c 41 0a 00 	mov	10(r1),	r12	;0x0000a
    bb1e:	31 50 18 00 	add	#24,	r1	;#0x0018
    bb22:	30 40 a4 51 	br	#0x51a4		;

0000bb26 <__mspabi_addd>:
    bb26:	0a 12       	push	r10		;
    bb28:	09 12       	push	r9		;
    bb2a:	08 12       	push	r8		;
    bb2c:	31 80 3a 00 	sub	#58,	r1	;#0x003a
    bb30:	81 48 00 00 	mov	r8,	0(r1)	;
    bb34:	81 49 02 00 	mov	r9,	2(r1)	;
    bb38:	81 4a 04 00 	mov	r10,	4(r1)	;
    bb3c:	81 4b 06 00 	mov	r11,	6(r1)	;
    bb40:	81 4c 08 00 	mov	r12,	8(r1)	;
    bb44:	81 4d 0a 00 	mov	r13,	10(r1)	; 0x000a
    bb48:	81 4e 0c 00 	mov	r14,	12(r1)	; 0x000c
    bb4c:	81 4f 0e 00 	mov	r15,	14(r1)	; 0x000e
    bb50:	3a 40 92 cf 	mov	#53138,	r10	;#0xcf92
    bb54:	0c 41       	mov	r1,	r12	;
    bb56:	0d 41       	mov	r1,	r13	;
    bb58:	3d 50 10 00 	add	#16,	r13	;#0x0010
    bb5c:	8a 12       	call	r10		;
    bb5e:	0c 41       	mov	r1,	r12	;
    bb60:	3c 52       	add	#8,	r12	;r2 As==11
    bb62:	0d 41       	mov	r1,	r13	;
    bb64:	3d 50 1e 00 	add	#30,	r13	;#0x001e
    bb68:	8a 12       	call	r10		;
    bb6a:	0c 41       	mov	r1,	r12	;
    bb6c:	3c 50 10 00 	add	#16,	r12	;#0x0010
    bb70:	0d 41       	mov	r1,	r13	;
    bb72:	3d 50 1e 00 	add	#30,	r13	;#0x001e
    bb76:	0e 41       	mov	r1,	r14	;
    bb78:	3e 50 2c 00 	add	#44,	r14	;#0x002c
    bb7c:	b0 12 3a b5 	call	#46394		;#0xb53a
    bb80:	b0 12 d8 cc 	call	#52440		;#0xccd8
    bb84:	31 50 3a 00 	add	#58,	r1	;#0x003a
    bb88:	30 40 ac 51 	br	#0x51ac		;

0000bb8c <__mspabi_subd>:
    bb8c:	0a 12       	push	r10		;
    bb8e:	09 12       	push	r9		;
    bb90:	08 12       	push	r8		;
    bb92:	31 80 3a 00 	sub	#58,	r1	;#0x003a
    bb96:	81 48 00 00 	mov	r8,	0(r1)	;
    bb9a:	81 49 02 00 	mov	r9,	2(r1)	;
    bb9e:	81 4a 04 00 	mov	r10,	4(r1)	;
    bba2:	81 4b 06 00 	mov	r11,	6(r1)	;
    bba6:	81 4c 08 00 	mov	r12,	8(r1)	;
    bbaa:	81 4d 0a 00 	mov	r13,	10(r1)	; 0x000a
    bbae:	81 4e 0c 00 	mov	r14,	12(r1)	; 0x000c
    bbb2:	81 4f 0e 00 	mov	r15,	14(r1)	; 0x000e
    bbb6:	3a 40 92 cf 	mov	#53138,	r10	;#0xcf92
    bbba:	0c 41       	mov	r1,	r12	;
    bbbc:	0d 41       	mov	r1,	r13	;
    bbbe:	3d 50 10 00 	add	#16,	r13	;#0x0010
    bbc2:	8a 12       	call	r10		;
    bbc4:	0c 41       	mov	r1,	r12	;
    bbc6:	3c 52       	add	#8,	r12	;r2 As==11
    bbc8:	0d 41       	mov	r1,	r13	;
    bbca:	3d 50 1e 00 	add	#30,	r13	;#0x001e
    bbce:	8a 12       	call	r10		;
    bbd0:	91 e3 20 00 	xor	#1,	32(r1)	;r3 As==01, 0x0020
    bbd4:	0c 41       	mov	r1,	r12	;
    bbd6:	3c 50 10 00 	add	#16,	r12	;#0x0010
    bbda:	0d 41       	mov	r1,	r13	;
    bbdc:	3d 50 1e 00 	add	#30,	r13	;#0x001e
    bbe0:	0e 41       	mov	r1,	r14	;
    bbe2:	3e 50 2c 00 	add	#44,	r14	;#0x002c
    bbe6:	b0 12 3a b5 	call	#46394		;#0xb53a
    bbea:	b0 12 d8 cc 	call	#52440		;#0xccd8
    bbee:	31 50 3a 00 	add	#58,	r1	;#0x003a
    bbf2:	30 40 ac 51 	br	#0x51ac		;

0000bbf6 <__mspabi_mpyd>:
    bbf6:	0a 12       	push	r10		;
    bbf8:	09 12       	push	r9		;
    bbfa:	08 12       	push	r8		;
    bbfc:	07 12       	push	r7		;
    bbfe:	06 12       	push	r6		;
    bc00:	05 12       	push	r5		;
    bc02:	04 12       	push	r4		;
    bc04:	31 80 58 00 	sub	#88,	r1	;#0x0058
    bc08:	81 48 1e 00 	mov	r8,	30(r1)	; 0x001e
    bc0c:	81 49 20 00 	mov	r9,	32(r1)	; 0x0020
    bc10:	81 4a 22 00 	mov	r10,	34(r1)	; 0x0022
    bc14:	81 4b 24 00 	mov	r11,	36(r1)	; 0x0024
    bc18:	81 4c 26 00 	mov	r12,	38(r1)	; 0x0026
    bc1c:	81 4d 28 00 	mov	r13,	40(r1)	; 0x0028
    bc20:	81 4e 2a 00 	mov	r14,	42(r1)	; 0x002a
    bc24:	81 4f 2c 00 	mov	r15,	44(r1)	; 0x002c
    bc28:	3a 40 92 cf 	mov	#53138,	r10	;#0xcf92
    bc2c:	0c 41       	mov	r1,	r12	;
    bc2e:	3c 50 1e 00 	add	#30,	r12	;#0x001e
    bc32:	0d 41       	mov	r1,	r13	;
    bc34:	3d 50 2e 00 	add	#46,	r13	;#0x002e
    bc38:	8a 12       	call	r10		;
    bc3a:	0c 41       	mov	r1,	r12	;
    bc3c:	3c 50 26 00 	add	#38,	r12	;#0x0026
    bc40:	0d 41       	mov	r1,	r13	;
    bc42:	3d 50 3c 00 	add	#60,	r13	;#0x003c
    bc46:	8a 12       	call	r10		;
    bc48:	1d 41 2e 00 	mov	46(r1),	r13	;0x0002e
    bc4c:	1c 43       	mov	#1,	r12	;r3 As==01
    bc4e:	0c 9d       	cmp	r13,	r12	;
    bc50:	10 28       	jnc	$+34     	;abs 0xbc72
    bc52:	1c 41 30 00 	mov	48(r1),	r12	;0x00030
    bc56:	1c e1 3e 00 	xor	62(r1),	r12	;0x0003e
    bc5a:	0d 43       	clr	r13		;
    bc5c:	0d 8c       	sub	r12,	r13	;
    bc5e:	0c dd       	bis	r13,	r12	;
    bc60:	b0 12 b4 51 	call	#20916		;#0x51b4
    bc64:	81 4c 30 00 	mov	r12,	48(r1)	; 0x0030
    bc68:	0c 41       	mov	r1,	r12	;
    bc6a:	3c 50 2e 00 	add	#46,	r12	;#0x002e
    bc6e:	30 40 d0 c0 	br	#0xc0d0		;
    bc72:	1c 41 3c 00 	mov	60(r1),	r12	;0x0003c
    bc76:	1e 43       	mov	#1,	r14	;r3 As==01
    bc78:	0e 9c       	cmp	r12,	r14	;
    bc7a:	10 28       	jnc	$+34     	;abs 0xbc9c
    bc7c:	1c 41 30 00 	mov	48(r1),	r12	;0x00030
    bc80:	1c e1 3e 00 	xor	62(r1),	r12	;0x0003e
    bc84:	0d 43       	clr	r13		;
    bc86:	0d 8c       	sub	r12,	r13	;
    bc88:	0c dd       	bis	r13,	r12	;
    bc8a:	b0 12 b4 51 	call	#20916		;#0x51b4
    bc8e:	81 4c 3e 00 	mov	r12,	62(r1)	; 0x003e
    bc92:	0c 41       	mov	r1,	r12	;
    bc94:	3c 50 3c 00 	add	#60,	r12	;#0x003c
    bc98:	30 40 d0 c0 	br	#0xc0d0		;
    bc9c:	2d 92       	cmp	#4,	r13	;r2 As==10
    bc9e:	06 20       	jnz	$+14     	;abs 0xbcac
    bca0:	2c 93       	cmp	#2,	r12	;r3 As==10
    bca2:	02 20       	jnz	$+6      	;abs 0xbca8
    bca4:	30 40 cc c0 	br	#0xc0cc		;
    bca8:	30 40 52 bc 	br	#0xbc52		;
    bcac:	2c 92       	cmp	#4,	r12	;r2 As==10
    bcae:	06 20       	jnz	$+14     	;abs 0xbcbc
    bcb0:	2d 93       	cmp	#2,	r13	;r3 As==10
    bcb2:	02 20       	jnz	$+6      	;abs 0xbcb8
    bcb4:	30 40 cc c0 	br	#0xc0cc		;
    bcb8:	30 40 7c bc 	br	#0xbc7c		;
    bcbc:	2d 93       	cmp	#2,	r13	;r3 As==10
    bcbe:	c9 27       	jz	$-108    	;abs 0xbc52
    bcc0:	2c 93       	cmp	#2,	r12	;r3 As==10
    bcc2:	dc 27       	jz	$-70     	;abs 0xbc7c
    bcc4:	16 41 34 00 	mov	52(r1),	r6	;0x00034
    bcc8:	91 41 36 00 	mov	54(r1),	2(r1)	;0x00036
    bccc:	02 00 
    bcce:	91 41 38 00 	mov	56(r1),	20(r1)	;0x00038, 0x0014
    bcd2:	14 00 
    bcd4:	91 41 3a 00 	mov	58(r1),	22(r1)	;0x0003a, 0x0016
    bcd8:	16 00 
    bcda:	91 41 42 00 	mov	66(r1),	4(r1)	;0x00042
    bcde:	04 00 
    bce0:	91 41 44 00 	mov	68(r1),	6(r1)	;0x00044
    bce4:	06 00 
    bce6:	14 41 46 00 	mov	70(r1),	r4	;0x00046
    bcea:	15 41 48 00 	mov	72(r1),	r5	;0x00048
    bcee:	37 40 2e ca 	mov	#51758,	r7	;#0xca2e
    bcf2:	08 46       	mov	r6,	r8	;
    bcf4:	19 41 02 00 	mov	2(r1),	r9	;
    bcf8:	0a 43       	clr	r10		;
    bcfa:	0b 4a       	mov	r10,	r11	;
    bcfc:	1c 41 04 00 	mov	4(r1),	r12	;
    bd00:	1d 41 06 00 	mov	6(r1),	r13	;
    bd04:	0e 4a       	mov	r10,	r14	;
    bd06:	0f 4a       	mov	r10,	r15	;
    bd08:	87 12       	call	r7		;
    bd0a:	81 4c 18 00 	mov	r12,	24(r1)	; 0x0018
    bd0e:	81 4d 0a 00 	mov	r13,	10(r1)	; 0x000a
    bd12:	81 4e 0c 00 	mov	r14,	12(r1)	; 0x000c
    bd16:	81 4f 0e 00 	mov	r15,	14(r1)	; 0x000e
    bd1a:	b1 40 20 00 	mov	#32,	0(r1)	;#0x0020
    bd1e:	00 00 
    bd20:	1c 41 04 00 	mov	4(r1),	r12	;
    bd24:	1d 41 06 00 	mov	6(r1),	r13	;
    bd28:	0e 44       	mov	r4,	r14	;
    bd2a:	0f 45       	mov	r5,	r15	;
    bd2c:	b0 12 90 cb 	call	#52112		;#0xcb90
    bd30:	81 4c 08 00 	mov	r12,	8(r1)	;
    bd34:	05 4d       	mov	r13,	r5	;
    bd36:	08 4c       	mov	r12,	r8	;
    bd38:	09 4d       	mov	r13,	r9	;
    bd3a:	0b 4a       	mov	r10,	r11	;
    bd3c:	0c 46       	mov	r6,	r12	;
    bd3e:	1d 41 02 00 	mov	2(r1),	r13	;
    bd42:	0e 4a       	mov	r10,	r14	;
    bd44:	0f 4a       	mov	r10,	r15	;
    bd46:	87 12       	call	r7		;
    bd48:	81 4c 1a 00 	mov	r12,	26(r1)	; 0x001a
    bd4c:	04 4d       	mov	r13,	r4	;
    bd4e:	81 4e 10 00 	mov	r14,	16(r1)	; 0x0010
    bd52:	81 4f 12 00 	mov	r15,	18(r1)	; 0x0012
    bd56:	0c 46       	mov	r6,	r12	;
    bd58:	1d 41 02 00 	mov	2(r1),	r13	;
    bd5c:	1e 41 14 00 	mov	20(r1),	r14	;0x00014
    bd60:	1f 41 16 00 	mov	22(r1),	r15	;0x00016
    bd64:	b0 12 90 cb 	call	#52112		;#0xcb90
    bd68:	08 4c       	mov	r12,	r8	;
    bd6a:	09 4d       	mov	r13,	r9	;
    bd6c:	0b 4a       	mov	r10,	r11	;
    bd6e:	1c 41 08 00 	mov	8(r1),	r12	;
    bd72:	0d 45       	mov	r5,	r13	;
    bd74:	0e 4a       	mov	r10,	r14	;
    bd76:	0f 4a       	mov	r10,	r15	;
    bd78:	87 12       	call	r7		;
    bd7a:	81 4c 08 00 	mov	r12,	8(r1)	;
    bd7e:	81 4d 14 00 	mov	r13,	20(r1)	; 0x0014
    bd82:	81 4e 16 00 	mov	r14,	22(r1)	; 0x0016
    bd86:	81 4f 1c 00 	mov	r15,	28(r1)	; 0x001c
    bd8a:	0b 4a       	mov	r10,	r11	;
    bd8c:	1c 41 04 00 	mov	4(r1),	r12	;
    bd90:	1d 41 06 00 	mov	6(r1),	r13	;
    bd94:	0e 4a       	mov	r10,	r14	;
    bd96:	0f 4a       	mov	r10,	r15	;
    bd98:	87 12       	call	r7		;
    bd9a:	17 41 1a 00 	mov	26(r1),	r7	;0x0001a
    bd9e:	07 5c       	add	r12,	r7	;
    bda0:	19 43       	mov	#1,	r9	;r3 As==01
    bda2:	07 9c       	cmp	r12,	r7	;
    bda4:	01 28       	jnc	$+4      	;abs 0xbda8
    bda6:	09 4a       	mov	r10,	r9	;
    bda8:	0c 4d       	mov	r13,	r12	;
    bdaa:	0c 54       	add	r4,	r12	;
    bdac:	18 43       	mov	#1,	r8	;r3 As==01
    bdae:	0c 9d       	cmp	r13,	r12	;
    bdb0:	01 28       	jnc	$+4      	;abs 0xbdb4
    bdb2:	08 43       	clr	r8		;
    bdb4:	0a 49       	mov	r9,	r10	;
    bdb6:	0a 5c       	add	r12,	r10	;
    bdb8:	1d 43       	mov	#1,	r13	;r3 As==01
    bdba:	0a 9c       	cmp	r12,	r10	;
    bdbc:	01 28       	jnc	$+4      	;abs 0xbdc0
    bdbe:	0d 43       	clr	r13		;
    bdc0:	08 dd       	bis	r13,	r8	;
    bdc2:	1d 41 10 00 	mov	16(r1),	r13	;0x00010
    bdc6:	0d 5e       	add	r14,	r13	;
    bdc8:	1c 43       	mov	#1,	r12	;r3 As==01
    bdca:	0d 9e       	cmp	r14,	r13	;
    bdcc:	01 28       	jnc	$+4      	;abs 0xbdd0
    bdce:	0c 43       	clr	r12		;
    bdd0:	08 5d       	add	r13,	r8	;
    bdd2:	1e 43       	mov	#1,	r14	;r3 As==01
    bdd4:	08 9d       	cmp	r13,	r8	;
    bdd6:	01 28       	jnc	$+4      	;abs 0xbdda
    bdd8:	0e 43       	clr	r14		;
    bdda:	0c de       	bis	r14,	r12	;
    bddc:	1f 51 12 00 	add	18(r1),	r15	;0x00012
    bde0:	05 4c       	mov	r12,	r5	;
    bde2:	05 5f       	add	r15,	r5	;
    bde4:	15 91 12 00 	cmp	18(r1),	r5	;0x00012
    bde8:	10 28       	jnc	$+34     	;abs 0xbe0a
    bdea:	81 95 12 00 	cmp	r5,	18(r1)	; 0x0012
    bdee:	12 20       	jnz	$+38     	;abs 0xbe14
    bdf0:	18 91 10 00 	cmp	16(r1),	r8	;0x00010
    bdf4:	0a 28       	jnc	$+22     	;abs 0xbe0a
    bdf6:	81 98 10 00 	cmp	r8,	16(r1)	; 0x0010
    bdfa:	0c 20       	jnz	$+26     	;abs 0xbe14
    bdfc:	0a 94       	cmp	r4,	r10	;
    bdfe:	05 28       	jnc	$+12     	;abs 0xbe0a
    be00:	04 9a       	cmp	r10,	r4	;
    be02:	08 20       	jnz	$+18     	;abs 0xbe14
    be04:	17 91 1a 00 	cmp	26(r1),	r7	;0x0001a
    be08:	05 2c       	jc	$+12     	;abs 0xbe14
    be0a:	04 43       	clr	r4		;
    be0c:	91 43 06 00 	mov	#1,	6(r1)	;r3 As==01
    be10:	30 40 1a be 	br	#0xbe1a		;
    be14:	04 43       	clr	r4		;
    be16:	81 44 06 00 	mov	r4,	6(r1)	;
    be1a:	b1 40 20 00 	mov	#32,	0(r1)	;#0x0020
    be1e:	00 00 
    be20:	0c 47       	mov	r7,	r12	;
    be22:	0d 4a       	mov	r10,	r13	;
    be24:	0e 43       	clr	r14		;
    be26:	0f 4e       	mov	r14,	r15	;
    be28:	b0 12 0c cc 	call	#52236		;#0xcc0c
    be2c:	1b 41 18 00 	mov	24(r1),	r11	;0x00018
    be30:	0b 5c       	add	r12,	r11	;
    be32:	19 43       	mov	#1,	r9	;r3 As==01
    be34:	0b 9c       	cmp	r12,	r11	;
    be36:	01 28       	jnc	$+4      	;abs 0xbe3a
    be38:	09 43       	clr	r9		;
    be3a:	1c 41 0a 00 	mov	10(r1),	r12	;0x0000a
    be3e:	0c 5d       	add	r13,	r12	;
    be40:	16 43       	mov	#1,	r6	;r3 As==01
    be42:	0c 9d       	cmp	r13,	r12	;
    be44:	01 28       	jnc	$+4      	;abs 0xbe48
    be46:	06 43       	clr	r6		;
    be48:	09 5c       	add	r12,	r9	;
    be4a:	1d 43       	mov	#1,	r13	;r3 As==01
    be4c:	09 9c       	cmp	r12,	r9	;
    be4e:	01 28       	jnc	$+4      	;abs 0xbe52
    be50:	0d 43       	clr	r13		;
    be52:	06 dd       	bis	r13,	r6	;
    be54:	1d 41 0c 00 	mov	12(r1),	r13	;0x0000c
    be58:	0d 5e       	add	r14,	r13	;
    be5a:	1c 43       	mov	#1,	r12	;r3 As==01
    be5c:	0d 9e       	cmp	r14,	r13	;
    be5e:	01 28       	jnc	$+4      	;abs 0xbe62
    be60:	0c 43       	clr	r12		;
    be62:	06 5d       	add	r13,	r6	;
    be64:	1e 43       	mov	#1,	r14	;r3 As==01
    be66:	06 9d       	cmp	r13,	r6	;
    be68:	01 28       	jnc	$+4      	;abs 0xbe6c
    be6a:	0e 43       	clr	r14		;
    be6c:	0c de       	bis	r14,	r12	;
    be6e:	1f 51 0e 00 	add	14(r1),	r15	;0x0000e
    be72:	81 4b 04 00 	mov	r11,	4(r1)	;
    be76:	0c 5f       	add	r15,	r12	;
    be78:	81 4c 02 00 	mov	r12,	2(r1)	;
    be7c:	1c 91 0e 00 	cmp	14(r1),	r12	;0x0000e
    be80:	12 28       	jnc	$+38     	;abs 0xbea6
    be82:	81 9c 0e 00 	cmp	r12,	14(r1)	; 0x000e
    be86:	10 20       	jnz	$+34     	;abs 0xbea8
    be88:	16 91 0c 00 	cmp	12(r1),	r6	;0x0000c
    be8c:	0c 28       	jnc	$+26     	;abs 0xbea6
    be8e:	81 96 0c 00 	cmp	r6,	12(r1)	; 0x000c
    be92:	0a 20       	jnz	$+22     	;abs 0xbea8
    be94:	19 91 0a 00 	cmp	10(r1),	r9	;0x0000a
    be98:	06 28       	jnc	$+14     	;abs 0xbea6
    be9a:	81 99 0a 00 	cmp	r9,	10(r1)	; 0x000a
    be9e:	04 20       	jnz	$+10     	;abs 0xbea8
    bea0:	1b 91 18 00 	cmp	24(r1),	r11	;0x00018
    bea4:	01 2c       	jc	$+4      	;abs 0xbea8
    bea6:	14 43       	mov	#1,	r4	;r3 As==01
    bea8:	b1 40 20 00 	mov	#32,	0(r1)	;#0x0020
    beac:	00 00 
    beae:	0c 47       	mov	r7,	r12	;
    beb0:	0d 4a       	mov	r10,	r13	;
    beb2:	0e 48       	mov	r8,	r14	;
    beb4:	0f 45       	mov	r5,	r15	;
    beb6:	b0 12 90 cb 	call	#52112		;#0xcb90
    beba:	17 41 08 00 	mov	8(r1),	r7	;
    bebe:	07 5c       	add	r12,	r7	;
    bec0:	18 43       	mov	#1,	r8	;r3 As==01
    bec2:	07 9c       	cmp	r12,	r7	;
    bec4:	01 28       	jnc	$+4      	;abs 0xbec8
    bec6:	08 43       	clr	r8		;
    bec8:	1a 41 14 00 	mov	20(r1),	r10	;0x00014
    becc:	0a 5d       	add	r13,	r10	;
    bece:	1c 43       	mov	#1,	r12	;r3 As==01
    bed0:	0a 9d       	cmp	r13,	r10	;
    bed2:	01 28       	jnc	$+4      	;abs 0xbed6
    bed4:	0c 43       	clr	r12		;
    bed6:	0d 48       	mov	r8,	r13	;
    bed8:	0d 5a       	add	r10,	r13	;
    beda:	18 43       	mov	#1,	r8	;r3 As==01
    bedc:	0d 9a       	cmp	r10,	r13	;
    bede:	01 28       	jnc	$+4      	;abs 0xbee2
    bee0:	08 43       	clr	r8		;
    bee2:	0c d8       	bis	r8,	r12	;
    bee4:	1a 41 16 00 	mov	22(r1),	r10	;0x00016
    bee8:	0a 5e       	add	r14,	r10	;
    beea:	18 43       	mov	#1,	r8	;r3 As==01
    beec:	0a 9e       	cmp	r14,	r10	;
    beee:	01 28       	jnc	$+4      	;abs 0xbef2
    bef0:	08 43       	clr	r8		;
    bef2:	0c 5a       	add	r10,	r12	;
    bef4:	1e 43       	mov	#1,	r14	;r3 As==01
    bef6:	0c 9a       	cmp	r10,	r12	;
    bef8:	01 28       	jnc	$+4      	;abs 0xbefc
    befa:	0e 43       	clr	r14		;
    befc:	08 de       	bis	r14,	r8	;
    befe:	1f 51 1c 00 	add	28(r1),	r15	;0x0001c
    bf02:	0f 58       	add	r8,	r15	;
    bf04:	0e 47       	mov	r7,	r14	;
    bf06:	0e 54       	add	r4,	r14	;
    bf08:	1b 43       	mov	#1,	r11	;r3 As==01
    bf0a:	0e 97       	cmp	r7,	r14	;
    bf0c:	01 28       	jnc	$+4      	;abs 0xbf10
    bf0e:	0b 43       	clr	r11		;
    bf10:	08 4d       	mov	r13,	r8	;
    bf12:	07 43       	clr	r7		;
    bf14:	0b 5d       	add	r13,	r11	;
    bf16:	1d 43       	mov	#1,	r13	;r3 As==01
    bf18:	0b 98       	cmp	r8,	r11	;
    bf1a:	01 28       	jnc	$+4      	;abs 0xbf1e
    bf1c:	0d 47       	mov	r7,	r13	;
    bf1e:	07 dd       	bis	r13,	r7	;
    bf20:	1d 41 06 00 	mov	6(r1),	r13	;
    bf24:	0d 5c       	add	r12,	r13	;
    bf26:	1a 43       	mov	#1,	r10	;r3 As==01
    bf28:	0d 9c       	cmp	r12,	r13	;
    bf2a:	01 28       	jnc	$+4      	;abs 0xbf2e
    bf2c:	0a 43       	clr	r10		;
    bf2e:	07 5d       	add	r13,	r7	;
    bf30:	1c 43       	mov	#1,	r12	;r3 As==01
    bf32:	07 9d       	cmp	r13,	r7	;
    bf34:	01 28       	jnc	$+4      	;abs 0xbf38
    bf36:	0c 43       	clr	r12		;
    bf38:	0a dc       	bis	r12,	r10	;
    bf3a:	08 4e       	mov	r14,	r8	;
    bf3c:	04 4b       	mov	r11,	r4	;
    bf3e:	0a 5f       	add	r15,	r10	;
    bf40:	15 41 32 00 	mov	50(r1),	r5	;0x00032
    bf44:	15 51 40 00 	add	64(r1),	r5	;0x00040
    bf48:	1c 41 30 00 	mov	48(r1),	r12	;0x00030
    bf4c:	1c e1 3e 00 	xor	62(r1),	r12	;0x0003e
    bf50:	0d 43       	clr	r13		;
    bf52:	0d 8c       	sub	r12,	r13	;
    bf54:	0c dd       	bis	r13,	r12	;
    bf56:	b0 12 b4 51 	call	#20916		;#0x51b4
    bf5a:	81 4c 4c 00 	mov	r12,	76(r1)	; 0x004c
    bf5e:	25 52       	add	#4,	r5	;r2 As==10
    bf60:	3c 40 ff 1f 	mov	#8191,	r12	;#0x1fff
    bf64:	0c 9a       	cmp	r10,	r12	;
    bf66:	76 2c       	jc	$+238    	;abs 0xc054
    bf68:	18 b3       	bit	#1,	r8	;r3 As==01
    bf6a:	12 24       	jz	$+38     	;abs 0xbf90
    bf6c:	91 43 00 00 	mov	#1,	0(r1)	;r3 As==01
    bf70:	1c 41 04 00 	mov	4(r1),	r12	;
    bf74:	0d 49       	mov	r9,	r13	;
    bf76:	0e 46       	mov	r6,	r14	;
    bf78:	1f 41 02 00 	mov	2(r1),	r15	;
    bf7c:	b0 12 90 cb 	call	#52112		;#0xcb90
    bf80:	81 4c 04 00 	mov	r12,	4(r1)	;
    bf84:	09 4d       	mov	r13,	r9	;
    bf86:	06 4e       	mov	r14,	r6	;
    bf88:	3f d0 00 80 	bis	#32768,	r15	;#0x8000
    bf8c:	81 4f 02 00 	mov	r15,	2(r1)	;
    bf90:	91 43 00 00 	mov	#1,	0(r1)	;r3 As==01
    bf94:	0c 48       	mov	r8,	r12	;
    bf96:	0d 44       	mov	r4,	r13	;
    bf98:	0e 47       	mov	r7,	r14	;
    bf9a:	0f 4a       	mov	r10,	r15	;
    bf9c:	b0 12 90 cb 	call	#52112		;#0xcb90
    bfa0:	08 4c       	mov	r12,	r8	;
    bfa2:	04 4d       	mov	r13,	r4	;
    bfa4:	07 4e       	mov	r14,	r7	;
    bfa6:	0a 4f       	mov	r15,	r10	;
    bfa8:	15 53       	inc	r5		;
    bfaa:	30 40 60 bf 	br	#0xbf60		;
    bfae:	0e 48       	mov	r8,	r14	;
    bfb0:	0e 58       	add	r8,	r14	;
    bfb2:	1d 43       	mov	#1,	r13	;r3 As==01
    bfb4:	0e 98       	cmp	r8,	r14	;
    bfb6:	01 28       	jnc	$+4      	;abs 0xbfba
    bfb8:	0d 43       	clr	r13		;
    bfba:	0f 44       	mov	r4,	r15	;
    bfbc:	0f 54       	add	r4,	r15	;
    bfbe:	1c 43       	mov	#1,	r12	;r3 As==01
    bfc0:	0f 94       	cmp	r4,	r15	;
    bfc2:	01 28       	jnc	$+4      	;abs 0xbfc6
    bfc4:	0c 43       	clr	r12		;
    bfc6:	0b 4d       	mov	r13,	r11	;
    bfc8:	0b 5f       	add	r15,	r11	;
    bfca:	1d 43       	mov	#1,	r13	;r3 As==01
    bfcc:	0b 9f       	cmp	r15,	r11	;
    bfce:	01 28       	jnc	$+4      	;abs 0xbfd2
    bfd0:	0d 43       	clr	r13		;
    bfd2:	0c dd       	bis	r13,	r12	;
    bfd4:	0f 47       	mov	r7,	r15	;
    bfd6:	0f 57       	add	r7,	r15	;
    bfd8:	1d 43       	mov	#1,	r13	;r3 As==01
    bfda:	0f 97       	cmp	r7,	r15	;
    bfdc:	01 28       	jnc	$+4      	;abs 0xbfe0
    bfde:	0d 43       	clr	r13		;
    bfe0:	07 4c       	mov	r12,	r7	;
    bfe2:	07 5f       	add	r15,	r7	;
    bfe4:	1c 43       	mov	#1,	r12	;r3 As==01
    bfe6:	07 9f       	cmp	r15,	r7	;
    bfe8:	01 28       	jnc	$+4      	;abs 0xbfec
    bfea:	0c 43       	clr	r12		;
    bfec:	0d dc       	bis	r12,	r13	;
    bfee:	0a 5a       	rla	r10		;
    bff0:	08 4e       	mov	r14,	r8	;
    bff2:	04 4b       	mov	r11,	r4	;
    bff4:	0a 5d       	add	r13,	r10	;
    bff6:	81 93 02 00 	cmp	#0,	2(r1)	;r3 As==00
    bffa:	01 34       	jge	$+4      	;abs 0xbffe
    bffc:	18 d3       	bis	#1,	r8	;r3 As==01
    bffe:	1e 41 04 00 	mov	4(r1),	r14	;
    c002:	0e 5e       	rla	r14		;
    c004:	1f 43       	mov	#1,	r15	;r3 As==01
    c006:	1e 91 04 00 	cmp	4(r1),	r14	;
    c00a:	01 28       	jnc	$+4      	;abs 0xc00e
    c00c:	0f 43       	clr	r15		;
    c00e:	0d 49       	mov	r9,	r13	;
    c010:	0d 59       	add	r9,	r13	;
    c012:	1c 43       	mov	#1,	r12	;r3 As==01
    c014:	0d 99       	cmp	r9,	r13	;
    c016:	01 28       	jnc	$+4      	;abs 0xc01a
    c018:	0c 43       	clr	r12		;
    c01a:	09 4f       	mov	r15,	r9	;
    c01c:	09 5d       	add	r13,	r9	;
    c01e:	1f 43       	mov	#1,	r15	;r3 As==01
    c020:	09 9d       	cmp	r13,	r9	;
    c022:	01 28       	jnc	$+4      	;abs 0xc026
    c024:	0f 43       	clr	r15		;
    c026:	0c df       	bis	r15,	r12	;
    c028:	0f 46       	mov	r6,	r15	;
    c02a:	0f 56       	add	r6,	r15	;
    c02c:	1d 43       	mov	#1,	r13	;r3 As==01
    c02e:	0f 96       	cmp	r6,	r15	;
    c030:	01 28       	jnc	$+4      	;abs 0xc034
    c032:	0d 43       	clr	r13		;
    c034:	06 4c       	mov	r12,	r6	;
    c036:	06 5f       	add	r15,	r6	;
    c038:	1c 43       	mov	#1,	r12	;r3 As==01
    c03a:	06 9f       	cmp	r15,	r6	;
    c03c:	01 28       	jnc	$+4      	;abs 0xc040
    c03e:	0c 43       	clr	r12		;
    c040:	0d dc       	bis	r12,	r13	;
    c042:	1f 41 02 00 	mov	2(r1),	r15	;
    c046:	0f 5f       	rla	r15		;
    c048:	81 4e 04 00 	mov	r14,	4(r1)	;
    c04c:	0d 5f       	add	r15,	r13	;
    c04e:	81 4d 02 00 	mov	r13,	2(r1)	;
    c052:	35 53       	add	#-1,	r5	;r3 As==11
    c054:	3e 40 ff 0f 	mov	#4095,	r14	;#0x0fff
    c058:	0e 9a       	cmp	r10,	r14	;
    c05a:	a9 2f       	jc	$-172    	;abs 0xbfae
    c05c:	81 45 4e 00 	mov	r5,	78(r1)	; 0x004e
    c060:	78 90 80 ff 	cmp.b	#65408,	r8	;#0xff80
    c064:	23 20       	jnz	$+72     	;abs 0xc0ac
    c066:	0c 48       	mov	r8,	r12	;
    c068:	3c f0 00 01 	and	#256,	r12	;#0x0100
    c06c:	0c 93       	cmp	#0,	r12	;r3 As==00
    c06e:	1e 20       	jnz	$+62     	;abs 0xc0ac
    c070:	19 d1 04 00 	bis	4(r1),	r9	;
    c074:	09 d6       	bis	r6,	r9	;
    c076:	19 d1 02 00 	bis	2(r1),	r9	;
    c07a:	09 93       	cmp	#0,	r9	;r3 As==00
    c07c:	17 24       	jz	$+48     	;abs 0xc0ac
    c07e:	0f 48       	mov	r8,	r15	;
    c080:	3f 50 80 00 	add	#128,	r15	;#0x0080
    c084:	1d 43       	mov	#1,	r13	;r3 As==01
    c086:	0f 98       	cmp	r8,	r15	;
    c088:	01 28       	jnc	$+4      	;abs 0xc08c
    c08a:	0d 4c       	mov	r12,	r13	;
    c08c:	0d 54       	add	r4,	r13	;
    c08e:	1c 43       	mov	#1,	r12	;r3 As==01
    c090:	0d 94       	cmp	r4,	r13	;
    c092:	01 28       	jnc	$+4      	;abs 0xc096
    c094:	0c 43       	clr	r12		;
    c096:	0c 57       	add	r7,	r12	;
    c098:	1e 43       	mov	#1,	r14	;r3 As==01
    c09a:	0c 97       	cmp	r7,	r12	;
    c09c:	01 28       	jnc	$+4      	;abs 0xc0a0
    c09e:	0e 43       	clr	r14		;
    c0a0:	08 4f       	mov	r15,	r8	;
    c0a2:	38 f0 00 ff 	and	#65280,	r8	;#0xff00
    c0a6:	04 4d       	mov	r13,	r4	;
    c0a8:	07 4c       	mov	r12,	r7	;
    c0aa:	0a 5e       	add	r14,	r10	;
    c0ac:	81 48 50 00 	mov	r8,	80(r1)	; 0x0050
    c0b0:	81 44 52 00 	mov	r4,	82(r1)	; 0x0052
    c0b4:	81 47 54 00 	mov	r7,	84(r1)	; 0x0054
    c0b8:	81 4a 56 00 	mov	r10,	86(r1)	; 0x0056
    c0bc:	b1 40 03 00 	mov	#3,	74(r1)	; 0x004a
    c0c0:	4a 00 
    c0c2:	0c 41       	mov	r1,	r12	;
    c0c4:	3c 50 4a 00 	add	#74,	r12	;#0x004a
    c0c8:	30 40 d0 c0 	br	#0xc0d0		;
    c0cc:	3c 40 16 46 	mov	#17942,	r12	;#0x4616
    c0d0:	b0 12 d8 cc 	call	#52440		;#0xccd8
    c0d4:	31 50 58 00 	add	#88,	r1	;#0x0058
    c0d8:	30 40 a4 51 	br	#0x51a4		;

0000c0dc <__mspabi_divd>:
    c0dc:	0a 12       	push	r10		;
    c0de:	09 12       	push	r9		;
    c0e0:	08 12       	push	r8		;
    c0e2:	07 12       	push	r7		;
    c0e4:	06 12       	push	r6		;
    c0e6:	05 12       	push	r5		;
    c0e8:	04 12       	push	r4		;
    c0ea:	31 80 40 00 	sub	#64,	r1	;#0x0040
    c0ee:	81 48 14 00 	mov	r8,	20(r1)	; 0x0014
    c0f2:	81 49 16 00 	mov	r9,	22(r1)	; 0x0016
    c0f6:	81 4a 18 00 	mov	r10,	24(r1)	; 0x0018
    c0fa:	81 4b 1a 00 	mov	r11,	26(r1)	; 0x001a
    c0fe:	81 4c 1c 00 	mov	r12,	28(r1)	; 0x001c
    c102:	81 4d 1e 00 	mov	r13,	30(r1)	; 0x001e
    c106:	81 4e 20 00 	mov	r14,	32(r1)	; 0x0020
    c10a:	81 4f 22 00 	mov	r15,	34(r1)	; 0x0022
    c10e:	3a 40 92 cf 	mov	#53138,	r10	;#0xcf92
    c112:	0c 41       	mov	r1,	r12	;
    c114:	3c 50 14 00 	add	#20,	r12	;#0x0014
    c118:	0d 41       	mov	r1,	r13	;
    c11a:	3d 50 24 00 	add	#36,	r13	;#0x0024
    c11e:	8a 12       	call	r10		;
    c120:	0c 41       	mov	r1,	r12	;
    c122:	3c 50 1c 00 	add	#28,	r12	;#0x001c
    c126:	0d 41       	mov	r1,	r13	;
    c128:	3d 50 32 00 	add	#50,	r13	;#0x0032
    c12c:	8a 12       	call	r10		;
    c12e:	1d 41 24 00 	mov	36(r1),	r13	;0x00024
    c132:	17 43       	mov	#1,	r7	;r3 As==01
    c134:	07 9d       	cmp	r13,	r7	;
    c136:	33 2d       	jc	$+616    	;abs 0xc39e
    c138:	1c 41 32 00 	mov	50(r1),	r12	;0x00032
    c13c:	1e 43       	mov	#1,	r14	;r3 As==01
    c13e:	0e 9c       	cmp	r12,	r14	;
    c140:	33 2d       	jc	$+616    	;abs 0xc3a8
    c142:	91 e1 34 00 	xor	52(r1),	38(r1)	;0x00034, 0x0026
    c146:	26 00 
    c148:	2d 92       	cmp	#4,	r13	;r2 As==10
    c14a:	02 24       	jz	$+6      	;abs 0xc150
    c14c:	2d 93       	cmp	#2,	r13	;r3 As==10
    c14e:	04 20       	jnz	$+10     	;abs 0xc158
    c150:	0d 9c       	cmp	r12,	r13	;
    c152:	25 21       	jnz	$+588    	;abs 0xc39e
    c154:	30 40 b2 c3 	br	#0xc3b2		;
    c158:	2c 92       	cmp	#4,	r12	;r2 As==10
    c15a:	0c 20       	jnz	$+26     	;abs 0xc174
    c15c:	81 43 2a 00 	mov	#0,	42(r1)	;r3 As==00, 0x002a
    c160:	81 43 2c 00 	mov	#0,	44(r1)	;r3 As==00, 0x002c
    c164:	81 43 2e 00 	mov	#0,	46(r1)	;r3 As==00, 0x002e
    c168:	81 43 30 00 	mov	#0,	48(r1)	;r3 As==00, 0x0030
    c16c:	81 43 28 00 	mov	#0,	40(r1)	;r3 As==00, 0x0028
    c170:	30 40 9e c3 	br	#0xc39e		;
    c174:	2c 93       	cmp	#2,	r12	;r3 As==10
    c176:	04 20       	jnz	$+10     	;abs 0xc180
    c178:	a1 42 24 00 	mov	#4,	36(r1)	;r2 As==10, 0x0024
    c17c:	30 40 9e c3 	br	#0xc39e		;
    c180:	1e 41 28 00 	mov	40(r1),	r14	;0x00028
    c184:	1e 81 36 00 	sub	54(r1),	r14	;0x00036
    c188:	81 4e 28 00 	mov	r14,	40(r1)	; 0x0028
    c18c:	17 41 2a 00 	mov	42(r1),	r7	;0x0002a
    c190:	18 41 2c 00 	mov	44(r1),	r8	;0x0002c
    c194:	19 41 2e 00 	mov	46(r1),	r9	;0x0002e
    c198:	1a 41 30 00 	mov	48(r1),	r10	;0x00030
    c19c:	91 41 38 00 	mov	56(r1),	16(r1)	;0x00038, 0x0010
    c1a0:	10 00 
    c1a2:	91 41 3a 00 	mov	58(r1),	2(r1)	;0x0003a
    c1a6:	02 00 
    c1a8:	91 41 3c 00 	mov	60(r1),	4(r1)	;0x0003c
    c1ac:	04 00 
    c1ae:	91 41 3e 00 	mov	62(r1),	6(r1)	;0x0003e
    c1b2:	06 00 
    c1b4:	1a 91 06 00 	cmp	6(r1),	r10	;
    c1b8:	12 28       	jnc	$+38     	;abs 0xc1de
    c1ba:	81 9a 06 00 	cmp	r10,	6(r1)	;
    c1be:	35 20       	jnz	$+108    	;abs 0xc22a
    c1c0:	19 91 04 00 	cmp	4(r1),	r9	;
    c1c4:	0c 28       	jnc	$+26     	;abs 0xc1de
    c1c6:	81 99 04 00 	cmp	r9,	4(r1)	;
    c1ca:	2f 20       	jnz	$+96     	;abs 0xc22a
    c1cc:	18 91 02 00 	cmp	2(r1),	r8	;
    c1d0:	06 28       	jnc	$+14     	;abs 0xc1de
    c1d2:	81 98 02 00 	cmp	r8,	2(r1)	;
    c1d6:	29 20       	jnz	$+84     	;abs 0xc22a
    c1d8:	17 91 10 00 	cmp	16(r1),	r7	;0x00010
    c1dc:	26 2c       	jc	$+78     	;abs 0xc22a
    c1de:	0f 47       	mov	r7,	r15	;
    c1e0:	0f 57       	add	r7,	r15	;
    c1e2:	16 43       	mov	#1,	r6	;r3 As==01
    c1e4:	0f 97       	cmp	r7,	r15	;
    c1e6:	01 28       	jnc	$+4      	;abs 0xc1ea
    c1e8:	06 43       	clr	r6		;
    c1ea:	0d 48       	mov	r8,	r13	;
    c1ec:	0d 58       	add	r8,	r13	;
    c1ee:	1c 43       	mov	#1,	r12	;r3 As==01
    c1f0:	0d 98       	cmp	r8,	r13	;
    c1f2:	01 28       	jnc	$+4      	;abs 0xc1f6
    c1f4:	0c 43       	clr	r12		;
    c1f6:	08 46       	mov	r6,	r8	;
    c1f8:	08 5d       	add	r13,	r8	;
    c1fa:	17 43       	mov	#1,	r7	;r3 As==01
    c1fc:	08 9d       	cmp	r13,	r8	;
    c1fe:	01 28       	jnc	$+4      	;abs 0xc202
    c200:	07 43       	clr	r7		;
    c202:	0c d7       	bis	r7,	r12	;
    c204:	07 49       	mov	r9,	r7	;
    c206:	07 59       	add	r9,	r7	;
    c208:	1d 43       	mov	#1,	r13	;r3 As==01
    c20a:	07 99       	cmp	r9,	r7	;
    c20c:	01 28       	jnc	$+4      	;abs 0xc210
    c20e:	0d 43       	clr	r13		;
    c210:	09 4c       	mov	r12,	r9	;
    c212:	09 57       	add	r7,	r9	;
    c214:	1c 43       	mov	#1,	r12	;r3 As==01
    c216:	09 97       	cmp	r7,	r9	;
    c218:	01 28       	jnc	$+4      	;abs 0xc21c
    c21a:	0c 43       	clr	r12		;
    c21c:	0d dc       	bis	r12,	r13	;
    c21e:	0a 5a       	rla	r10		;
    c220:	07 4f       	mov	r15,	r7	;
    c222:	0a 5d       	add	r13,	r10	;
    c224:	3e 53       	add	#-1,	r14	;r3 As==11
    c226:	81 4e 28 00 	mov	r14,	40(r1)	; 0x0028
    c22a:	b1 40 3d 00 	mov	#61,	12(r1)	;#0x003d, 0x000c
    c22e:	0c 00 
    c230:	0c 43       	clr	r12		;
    c232:	0d 4c       	mov	r12,	r13	;
    c234:	81 4c 12 00 	mov	r12,	18(r1)	; 0x0012
    c238:	3f 40 00 10 	mov	#4096,	r15	;#0x1000
    c23c:	06 4c       	mov	r12,	r6	;
    c23e:	81 4c 08 00 	mov	r12,	8(r1)	;
    c242:	81 4c 0a 00 	mov	r12,	10(r1)	; 0x000a
    c246:	81 4c 0e 00 	mov	r12,	14(r1)	; 0x000e
    c24a:	1a 91 06 00 	cmp	6(r1),	r10	;
    c24e:	43 28       	jnc	$+136    	;abs 0xc2d6
    c250:	81 9a 06 00 	cmp	r10,	6(r1)	;
    c254:	0f 20       	jnz	$+32     	;abs 0xc274
    c256:	19 91 04 00 	cmp	4(r1),	r9	;
    c25a:	3d 28       	jnc	$+124    	;abs 0xc2d6
    c25c:	81 99 04 00 	cmp	r9,	4(r1)	;
    c260:	09 20       	jnz	$+20     	;abs 0xc274
    c262:	18 91 02 00 	cmp	2(r1),	r8	;
    c266:	37 28       	jnc	$+112    	;abs 0xc2d6
    c268:	81 98 02 00 	cmp	r8,	2(r1)	;
    c26c:	03 20       	jnz	$+8      	;abs 0xc274
    c26e:	17 91 10 00 	cmp	16(r1),	r7	;0x00010
    c272:	31 28       	jnc	$+100    	;abs 0xc2d6
    c274:	06 dc       	bis	r12,	r6	;
    c276:	81 dd 08 00 	bis	r13,	8(r1)	;
    c27a:	91 d1 12 00 	bis	18(r1),	10(r1)	;0x00012, 0x000a
    c27e:	0a 00 
    c280:	81 df 0e 00 	bis	r15,	14(r1)	; 0x000e
    c284:	05 47       	mov	r7,	r5	;
    c286:	15 81 10 00 	sub	16(r1),	r5	;0x00010
    c28a:	1e 43       	mov	#1,	r14	;r3 As==01
    c28c:	07 95       	cmp	r5,	r7	;
    c28e:	01 28       	jnc	$+4      	;abs 0xc292
    c290:	0e 43       	clr	r14		;
    c292:	07 48       	mov	r8,	r7	;
    c294:	17 81 02 00 	sub	2(r1),	r7	;
    c298:	04 47       	mov	r7,	r4	;
    c29a:	17 43       	mov	#1,	r7	;r3 As==01
    c29c:	08 94       	cmp	r4,	r8	;
    c29e:	01 28       	jnc	$+4      	;abs 0xc2a2
    c2a0:	07 43       	clr	r7		;
    c2a2:	08 44       	mov	r4,	r8	;
    c2a4:	08 8e       	sub	r14,	r8	;
    c2a6:	1e 43       	mov	#1,	r14	;r3 As==01
    c2a8:	04 98       	cmp	r8,	r4	;
    c2aa:	01 28       	jnc	$+4      	;abs 0xc2ae
    c2ac:	0e 43       	clr	r14		;
    c2ae:	07 de       	bis	r14,	r7	;
    c2b0:	0e 49       	mov	r9,	r14	;
    c2b2:	1e 81 04 00 	sub	4(r1),	r14	;
    c2b6:	04 4e       	mov	r14,	r4	;
    c2b8:	1e 43       	mov	#1,	r14	;r3 As==01
    c2ba:	09 94       	cmp	r4,	r9	;
    c2bc:	01 28       	jnc	$+4      	;abs 0xc2c0
    c2be:	0e 43       	clr	r14		;
    c2c0:	09 44       	mov	r4,	r9	;
    c2c2:	09 87       	sub	r7,	r9	;
    c2c4:	17 43       	mov	#1,	r7	;r3 As==01
    c2c6:	04 99       	cmp	r9,	r4	;
    c2c8:	01 28       	jnc	$+4      	;abs 0xc2cc
    c2ca:	07 43       	clr	r7		;
    c2cc:	0e d7       	bis	r7,	r14	;
    c2ce:	1a 81 06 00 	sub	6(r1),	r10	;
    c2d2:	07 45       	mov	r5,	r7	;
    c2d4:	0a 8e       	sub	r14,	r10	;
    c2d6:	91 43 00 00 	mov	#1,	0(r1)	;r3 As==01
    c2da:	1e 41 12 00 	mov	18(r1),	r14	;0x00012
    c2de:	b0 12 90 cb 	call	#52112		;#0xcb90
    c2e2:	81 4e 12 00 	mov	r14,	18(r1)	; 0x0012
    c2e6:	05 47       	mov	r7,	r5	;
    c2e8:	05 57       	add	r7,	r5	;
    c2ea:	1e 43       	mov	#1,	r14	;r3 As==01
    c2ec:	05 97       	cmp	r7,	r5	;
    c2ee:	01 28       	jnc	$+4      	;abs 0xc2f2
    c2f0:	0e 43       	clr	r14		;
    c2f2:	04 48       	mov	r8,	r4	;
    c2f4:	04 58       	add	r8,	r4	;
    c2f6:	17 43       	mov	#1,	r7	;r3 As==01
    c2f8:	04 98       	cmp	r8,	r4	;
    c2fa:	01 28       	jnc	$+4      	;abs 0xc2fe
    c2fc:	07 43       	clr	r7		;
    c2fe:	0e 54       	add	r4,	r14	;
    c300:	18 43       	mov	#1,	r8	;r3 As==01
    c302:	0e 94       	cmp	r4,	r14	;
    c304:	01 28       	jnc	$+4      	;abs 0xc308
    c306:	08 43       	clr	r8		;
    c308:	07 d8       	bis	r8,	r7	;
    c30a:	08 49       	mov	r9,	r8	;
    c30c:	08 59       	add	r9,	r8	;
    c30e:	1b 43       	mov	#1,	r11	;r3 As==01
    c310:	08 99       	cmp	r9,	r8	;
    c312:	01 28       	jnc	$+4      	;abs 0xc316
    c314:	0b 43       	clr	r11		;
    c316:	04 47       	mov	r7,	r4	;
    c318:	04 58       	add	r8,	r4	;
    c31a:	19 43       	mov	#1,	r9	;r3 As==01
    c31c:	04 98       	cmp	r8,	r4	;
    c31e:	01 28       	jnc	$+4      	;abs 0xc322
    c320:	09 43       	clr	r9		;
    c322:	0b d9       	bis	r9,	r11	;
    c324:	0a 5a       	rla	r10		;
    c326:	07 45       	mov	r5,	r7	;
    c328:	08 4e       	mov	r14,	r8	;
    c32a:	09 44       	mov	r4,	r9	;
    c32c:	0a 5b       	add	r11,	r10	;
    c32e:	b1 53 0c 00 	add	#-1,	12(r1)	;r3 As==11, 0x000c
    c332:	81 93 0c 00 	cmp	#0,	12(r1)	;r3 As==00, 0x000c
    c336:	89 23       	jnz	$-236    	;abs 0xc24a
    c338:	09 46       	mov	r6,	r9	;
    c33a:	1d 41 08 00 	mov	8(r1),	r13	;
    c33e:	1c 41 0a 00 	mov	10(r1),	r12	;0x0000a
    c342:	1f 41 0e 00 	mov	14(r1),	r15	;0x0000e
    c346:	76 90 80 ff 	cmp.b	#65408,	r6	;#0xff80
    c34a:	21 20       	jnz	$+68     	;abs 0xc38e
    c34c:	36 b0 00 01 	bit	#256,	r6	;#0x0100
    c350:	1e 20       	jnz	$+62     	;abs 0xc38e
    c352:	0e d5       	bis	r5,	r14	;
    c354:	0e d4       	bis	r4,	r14	;
    c356:	0e da       	bis	r10,	r14	;
    c358:	0e 93       	cmp	#0,	r14	;r3 As==00
    c35a:	19 24       	jz	$+52     	;abs 0xc38e
    c35c:	39 50 80 00 	add	#128,	r9	;#0x0080
    c360:	1d 43       	mov	#1,	r13	;r3 As==01
    c362:	09 96       	cmp	r6,	r9	;
    c364:	02 28       	jnc	$+6      	;abs 0xc36a
    c366:	1d 41 0c 00 	mov	12(r1),	r13	;0x0000c
    c36a:	1d 51 08 00 	add	8(r1),	r13	;
    c36e:	1c 43       	mov	#1,	r12	;r3 As==01
    c370:	1d 91 08 00 	cmp	8(r1),	r13	;
    c374:	01 28       	jnc	$+4      	;abs 0xc378
    c376:	0c 43       	clr	r12		;
    c378:	1c 51 0a 00 	add	10(r1),	r12	;0x0000a
    c37c:	1f 43       	mov	#1,	r15	;r3 As==01
    c37e:	1c 91 0a 00 	cmp	10(r1),	r12	;0x0000a
    c382:	01 28       	jnc	$+4      	;abs 0xc386
    c384:	0f 43       	clr	r15		;
    c386:	39 f0 00 ff 	and	#65280,	r9	;#0xff00
    c38a:	1f 51 0e 00 	add	14(r1),	r15	;0x0000e
    c38e:	81 49 2a 00 	mov	r9,	42(r1)	; 0x002a
    c392:	81 4d 2c 00 	mov	r13,	44(r1)	; 0x002c
    c396:	81 4c 2e 00 	mov	r12,	46(r1)	; 0x002e
    c39a:	81 4f 30 00 	mov	r15,	48(r1)	; 0x0030
    c39e:	0c 41       	mov	r1,	r12	;
    c3a0:	3c 50 24 00 	add	#36,	r12	;#0x0024
    c3a4:	30 40 b6 c3 	br	#0xc3b6		;
    c3a8:	0c 41       	mov	r1,	r12	;
    c3aa:	3c 50 32 00 	add	#50,	r12	;#0x0032
    c3ae:	30 40 b6 c3 	br	#0xc3b6		;
    c3b2:	3c 40 16 46 	mov	#17942,	r12	;#0x4616
    c3b6:	b0 12 d8 cc 	call	#52440		;#0xccd8
    c3ba:	31 50 40 00 	add	#64,	r1	;#0x0040
    c3be:	30 40 a4 51 	br	#0x51a4		;

0000c3c2 <__eqdf2>:
    c3c2:	0a 12       	push	r10		;
    c3c4:	31 80 2c 00 	sub	#44,	r1	;#0x002c
    c3c8:	81 4c 00 00 	mov	r12,	0(r1)	;
    c3cc:	81 4d 02 00 	mov	r13,	2(r1)	;
    c3d0:	81 4e 04 00 	mov	r14,	4(r1)	;
    c3d4:	81 4f 06 00 	mov	r15,	6(r1)	;
    c3d8:	91 41 30 00 	mov	48(r1),	8(r1)	;0x00030
    c3dc:	08 00 
    c3de:	91 41 32 00 	mov	50(r1),	10(r1)	;0x00032, 0x000a
    c3e2:	0a 00 
    c3e4:	91 41 34 00 	mov	52(r1),	12(r1)	;0x00034, 0x000c
    c3e8:	0c 00 
    c3ea:	91 41 36 00 	mov	54(r1),	14(r1)	;0x00036, 0x000e
    c3ee:	0e 00 
    c3f0:	3a 40 92 cf 	mov	#53138,	r10	;#0xcf92
    c3f4:	0c 41       	mov	r1,	r12	;
    c3f6:	0d 41       	mov	r1,	r13	;
    c3f8:	3d 50 10 00 	add	#16,	r13	;#0x0010
    c3fc:	8a 12       	call	r10		;
    c3fe:	0c 41       	mov	r1,	r12	;
    c400:	3c 52       	add	#8,	r12	;r2 As==11
    c402:	0d 41       	mov	r1,	r13	;
    c404:	3d 50 1e 00 	add	#30,	r13	;#0x001e
    c408:	8a 12       	call	r10		;
    c40a:	1c 43       	mov	#1,	r12	;r3 As==01
    c40c:	1c 91 10 00 	cmp	16(r1),	r12	;0x00010
    c410:	0d 2c       	jc	$+28     	;abs 0xc42c
    c412:	1c 91 1e 00 	cmp	30(r1),	r12	;0x0001e
    c416:	0a 2c       	jc	$+22     	;abs 0xc42c
    c418:	0c 41       	mov	r1,	r12	;
    c41a:	3c 50 10 00 	add	#16,	r12	;#0x0010
    c41e:	0d 41       	mov	r1,	r13	;
    c420:	3d 50 1e 00 	add	#30,	r13	;#0x001e
    c424:	b0 12 0c d7 	call	#55052		;#0xd70c
    c428:	30 40 2e c4 	br	#0xc42e		;
    c42c:	1c 43       	mov	#1,	r12	;r3 As==01
    c42e:	31 50 2c 00 	add	#44,	r1	;#0x002c
    c432:	3a 41       	pop	r10		;
    c434:	30 41       	ret			

0000c436 <__nedf2>:
    c436:	0a 12       	push	r10		;
    c438:	31 80 2c 00 	sub	#44,	r1	;#0x002c
    c43c:	81 4c 00 00 	mov	r12,	0(r1)	;
    c440:	81 4d 02 00 	mov	r13,	2(r1)	;
    c444:	81 4e 04 00 	mov	r14,	4(r1)	;
    c448:	81 4f 06 00 	mov	r15,	6(r1)	;
    c44c:	91 41 30 00 	mov	48(r1),	8(r1)	;0x00030
    c450:	08 00 
    c452:	91 41 32 00 	mov	50(r1),	10(r1)	;0x00032, 0x000a
    c456:	0a 00 
    c458:	91 41 34 00 	mov	52(r1),	12(r1)	;0x00034, 0x000c
    c45c:	0c 00 
    c45e:	91 41 36 00 	mov	54(r1),	14(r1)	;0x00036, 0x000e
    c462:	0e 00 
    c464:	3a 40 92 cf 	mov	#53138,	r10	;#0xcf92
    c468:	0c 41       	mov	r1,	r12	;
    c46a:	0d 41       	mov	r1,	r13	;
    c46c:	3d 50 10 00 	add	#16,	r13	;#0x0010
    c470:	8a 12       	call	r10		;
    c472:	0c 41       	mov	r1,	r12	;
    c474:	3c 52       	add	#8,	r12	;r2 As==11
    c476:	0d 41       	mov	r1,	r13	;
    c478:	3d 50 1e 00 	add	#30,	r13	;#0x001e
    c47c:	8a 12       	call	r10		;
    c47e:	1c 43       	mov	#1,	r12	;r3 As==01
    c480:	1c 91 10 00 	cmp	16(r1),	r12	;0x00010
    c484:	0d 2c       	jc	$+28     	;abs 0xc4a0
    c486:	1c 91 1e 00 	cmp	30(r1),	r12	;0x0001e
    c48a:	0a 2c       	jc	$+22     	;abs 0xc4a0
    c48c:	0c 41       	mov	r1,	r12	;
    c48e:	3c 50 10 00 	add	#16,	r12	;#0x0010
    c492:	0d 41       	mov	r1,	r13	;
    c494:	3d 50 1e 00 	add	#30,	r13	;#0x001e
    c498:	b0 12 0c d7 	call	#55052		;#0xd70c
    c49c:	30 40 a2 c4 	br	#0xc4a2		;
    c4a0:	1c 43       	mov	#1,	r12	;r3 As==01
    c4a2:	31 50 2c 00 	add	#44,	r1	;#0x002c
    c4a6:	3a 41       	pop	r10		;
    c4a8:	30 41       	ret			

0000c4aa <__gtdf2>:
    c4aa:	0a 12       	push	r10		;
    c4ac:	31 80 2c 00 	sub	#44,	r1	;#0x002c
    c4b0:	81 4c 00 00 	mov	r12,	0(r1)	;
    c4b4:	81 4d 02 00 	mov	r13,	2(r1)	;
    c4b8:	81 4e 04 00 	mov	r14,	4(r1)	;
    c4bc:	81 4f 06 00 	mov	r15,	6(r1)	;
    c4c0:	91 41 30 00 	mov	48(r1),	8(r1)	;0x00030
    c4c4:	08 00 
    c4c6:	91 41 32 00 	mov	50(r1),	10(r1)	;0x00032, 0x000a
    c4ca:	0a 00 
    c4cc:	91 41 34 00 	mov	52(r1),	12(r1)	;0x00034, 0x000c
    c4d0:	0c 00 
    c4d2:	91 41 36 00 	mov	54(r1),	14(r1)	;0x00036, 0x000e
    c4d6:	0e 00 
    c4d8:	3a 40 92 cf 	mov	#53138,	r10	;#0xcf92
    c4dc:	0c 41       	mov	r1,	r12	;
    c4de:	0d 41       	mov	r1,	r13	;
    c4e0:	3d 50 10 00 	add	#16,	r13	;#0x0010
    c4e4:	8a 12       	call	r10		;
    c4e6:	0c 41       	mov	r1,	r12	;
    c4e8:	3c 52       	add	#8,	r12	;r2 As==11
    c4ea:	0d 41       	mov	r1,	r13	;
    c4ec:	3d 50 1e 00 	add	#30,	r13	;#0x001e
    c4f0:	8a 12       	call	r10		;
    c4f2:	1c 43       	mov	#1,	r12	;r3 As==01
    c4f4:	1c 91 10 00 	cmp	16(r1),	r12	;0x00010
    c4f8:	0d 2c       	jc	$+28     	;abs 0xc514
    c4fa:	1c 91 1e 00 	cmp	30(r1),	r12	;0x0001e
    c4fe:	0a 2c       	jc	$+22     	;abs 0xc514
    c500:	0c 41       	mov	r1,	r12	;
    c502:	3c 50 10 00 	add	#16,	r12	;#0x0010
    c506:	0d 41       	mov	r1,	r13	;
    c508:	3d 50 1e 00 	add	#30,	r13	;#0x001e
    c50c:	b0 12 0c d7 	call	#55052		;#0xd70c
    c510:	30 40 16 c5 	br	#0xc516		;
    c514:	3c 43       	mov	#-1,	r12	;r3 As==11
    c516:	31 50 2c 00 	add	#44,	r1	;#0x002c
    c51a:	3a 41       	pop	r10		;
    c51c:	30 41       	ret			

0000c51e <__gedf2>:
    c51e:	0a 12       	push	r10		;
    c520:	31 80 2c 00 	sub	#44,	r1	;#0x002c
    c524:	81 4c 00 00 	mov	r12,	0(r1)	;
    c528:	81 4d 02 00 	mov	r13,	2(r1)	;
    c52c:	81 4e 04 00 	mov	r14,	4(r1)	;
    c530:	81 4f 06 00 	mov	r15,	6(r1)	;
    c534:	91 41 30 00 	mov	48(r1),	8(r1)	;0x00030
    c538:	08 00 
    c53a:	91 41 32 00 	mov	50(r1),	10(r1)	;0x00032, 0x000a
    c53e:	0a 00 
    c540:	91 41 34 00 	mov	52(r1),	12(r1)	;0x00034, 0x000c
    c544:	0c 00 
    c546:	91 41 36 00 	mov	54(r1),	14(r1)	;0x00036, 0x000e
    c54a:	0e 00 
    c54c:	3a 40 92 cf 	mov	#53138,	r10	;#0xcf92
    c550:	0c 41       	mov	r1,	r12	;
    c552:	0d 41       	mov	r1,	r13	;
    c554:	3d 50 10 00 	add	#16,	r13	;#0x0010
    c558:	8a 12       	call	r10		;
    c55a:	0c 41       	mov	r1,	r12	;
    c55c:	3c 52       	add	#8,	r12	;r2 As==11
    c55e:	0d 41       	mov	r1,	r13	;
    c560:	3d 50 1e 00 	add	#30,	r13	;#0x001e
    c564:	8a 12       	call	r10		;
    c566:	1c 43       	mov	#1,	r12	;r3 As==01
    c568:	1c 91 10 00 	cmp	16(r1),	r12	;0x00010
    c56c:	0d 2c       	jc	$+28     	;abs 0xc588
    c56e:	1c 91 1e 00 	cmp	30(r1),	r12	;0x0001e
    c572:	0a 2c       	jc	$+22     	;abs 0xc588
    c574:	0c 41       	mov	r1,	r12	;
    c576:	3c 50 10 00 	add	#16,	r12	;#0x0010
    c57a:	0d 41       	mov	r1,	r13	;
    c57c:	3d 50 1e 00 	add	#30,	r13	;#0x001e
    c580:	b0 12 0c d7 	call	#55052		;#0xd70c
    c584:	30 40 8a c5 	br	#0xc58a		;
    c588:	3c 43       	mov	#-1,	r12	;r3 As==11
    c58a:	31 50 2c 00 	add	#44,	r1	;#0x002c
    c58e:	3a 41       	pop	r10		;
    c590:	30 41       	ret			

0000c592 <__ltdf2>:
    c592:	0a 12       	push	r10		;
    c594:	31 80 2c 00 	sub	#44,	r1	;#0x002c
    c598:	81 4c 00 00 	mov	r12,	0(r1)	;
    c59c:	81 4d 02 00 	mov	r13,	2(r1)	;
    c5a0:	81 4e 04 00 	mov	r14,	4(r1)	;
    c5a4:	81 4f 06 00 	mov	r15,	6(r1)	;
    c5a8:	91 41 30 00 	mov	48(r1),	8(r1)	;0x00030
    c5ac:	08 00 
    c5ae:	91 41 32 00 	mov	50(r1),	10(r1)	;0x00032, 0x000a
    c5b2:	0a 00 
    c5b4:	91 41 34 00 	mov	52(r1),	12(r1)	;0x00034, 0x000c
    c5b8:	0c 00 
    c5ba:	91 41 36 00 	mov	54(r1),	14(r1)	;0x00036, 0x000e
    c5be:	0e 00 
    c5c0:	3a 40 92 cf 	mov	#53138,	r10	;#0xcf92
    c5c4:	0c 41       	mov	r1,	r12	;
    c5c6:	0d 41       	mov	r1,	r13	;
    c5c8:	3d 50 10 00 	add	#16,	r13	;#0x0010
    c5cc:	8a 12       	call	r10		;
    c5ce:	0c 41       	mov	r1,	r12	;
    c5d0:	3c 52       	add	#8,	r12	;r2 As==11
    c5d2:	0d 41       	mov	r1,	r13	;
    c5d4:	3d 50 1e 00 	add	#30,	r13	;#0x001e
    c5d8:	8a 12       	call	r10		;
    c5da:	1c 43       	mov	#1,	r12	;r3 As==01
    c5dc:	1c 91 10 00 	cmp	16(r1),	r12	;0x00010
    c5e0:	0d 2c       	jc	$+28     	;abs 0xc5fc
    c5e2:	1c 91 1e 00 	cmp	30(r1),	r12	;0x0001e
    c5e6:	0a 2c       	jc	$+22     	;abs 0xc5fc
    c5e8:	0c 41       	mov	r1,	r12	;
    c5ea:	3c 50 10 00 	add	#16,	r12	;#0x0010
    c5ee:	0d 41       	mov	r1,	r13	;
    c5f0:	3d 50 1e 00 	add	#30,	r13	;#0x001e
    c5f4:	b0 12 0c d7 	call	#55052		;#0xd70c
    c5f8:	30 40 fe c5 	br	#0xc5fe		;
    c5fc:	1c 43       	mov	#1,	r12	;r3 As==01
    c5fe:	31 50 2c 00 	add	#44,	r1	;#0x002c
    c602:	3a 41       	pop	r10		;
    c604:	30 41       	ret			

0000c606 <__mspabi_fltlid>:
    c606:	09 12       	push	r9		;
    c608:	08 12       	push	r8		;
    c60a:	07 12       	push	r7		;
    c60c:	06 12       	push	r6		;
    c60e:	31 80 10 00 	sub	#16,	r1	;#0x0010
    c612:	08 4c       	mov	r12,	r8	;
    c614:	09 4d       	mov	r13,	r9	;
    c616:	b1 40 03 00 	mov	#3,	2(r1)	;
    c61a:	02 00 
    c61c:	0c 4d       	mov	r13,	r12	;
    c61e:	b0 12 b4 51 	call	#20916		;#0x51b4
    c622:	3c f0 ff 00 	and	#255,	r12	;#0x00ff
    c626:	81 4c 04 00 	mov	r12,	4(r1)	;
    c62a:	0d 48       	mov	r8,	r13	;
    c62c:	0d d9       	bis	r9,	r13	;
    c62e:	0d 93       	cmp	#0,	r13	;r3 As==00
    c630:	04 20       	jnz	$+10     	;abs 0xc63a
    c632:	a1 43 02 00 	mov	#2,	2(r1)	;r3 As==10
    c636:	30 40 90 c6 	br	#0xc690		;
    c63a:	0c 93       	cmp	#0,	r12	;r3 As==00
    c63c:	0b 24       	jz	$+24     	;abs 0xc654
    c63e:	08 93       	cmp	#0,	r8	;r3 As==00
    c640:	03 20       	jnz	$+8      	;abs 0xc648
    c642:	39 90 00 80 	cmp	#32768,	r9	;#0x8000
    c646:	2a 24       	jz	$+86     	;abs 0xc69c
    c648:	06 43       	clr	r6		;
    c64a:	07 43       	clr	r7		;
    c64c:	06 88       	sub	r8,	r6	;
    c64e:	07 79       	subc	r9,	r7	;
    c650:	30 40 58 c6 	br	#0xc658		;
    c654:	06 48       	mov	r8,	r6	;
    c656:	07 49       	mov	r9,	r7	;
    c658:	0c 46       	mov	r6,	r12	;
    c65a:	0d 47       	mov	r7,	r13	;
    c65c:	b0 12 88 cc 	call	#52360		;#0xcc88
    c660:	09 4c       	mov	r12,	r9	;
    c662:	39 50 1d 00 	add	#29,	r9	;#0x001d
    c666:	0d 47       	mov	r7,	r13	;
    c668:	81 49 00 00 	mov	r9,	0(r1)	;
    c66c:	0c 46       	mov	r6,	r12	;
    c66e:	0e 43       	clr	r14		;
    c670:	0f 4e       	mov	r14,	r15	;
    c672:	b0 12 0c cc 	call	#52236		;#0xcc0c
    c676:	81 4c 08 00 	mov	r12,	8(r1)	;
    c67a:	81 4d 0a 00 	mov	r13,	10(r1)	; 0x000a
    c67e:	81 4e 0c 00 	mov	r14,	12(r1)	; 0x000c
    c682:	81 4f 0e 00 	mov	r15,	14(r1)	; 0x000e
    c686:	3c 40 3c 00 	mov	#60,	r12	;#0x003c
    c68a:	0c 89       	sub	r9,	r12	;
    c68c:	81 4c 06 00 	mov	r12,	6(r1)	;
    c690:	0c 41       	mov	r1,	r12	;
    c692:	2c 53       	incd	r12		;
    c694:	b0 12 d8 cc 	call	#52440		;#0xccd8
    c698:	30 40 a6 c6 	br	#0xc6a6		;
    c69c:	0c 48       	mov	r8,	r12	;
    c69e:	0d 48       	mov	r8,	r13	;
    c6a0:	0e 48       	mov	r8,	r14	;
    c6a2:	3f 40 e0 c1 	mov	#49632,	r15	;#0xc1e0
    c6a6:	31 50 10 00 	add	#16,	r1	;#0x0010
    c6aa:	36 41       	pop	r6		;
    c6ac:	37 41       	pop	r7		;
    c6ae:	38 41       	pop	r8		;
    c6b0:	39 41       	pop	r9		;
    c6b2:	30 41       	ret			

0000c6b4 <__mspabi_fixdli>:
    c6b4:	0a 12       	push	r10		;
    c6b6:	31 80 18 00 	sub	#24,	r1	;#0x0018
    c6ba:	81 4c 02 00 	mov	r12,	2(r1)	;
    c6be:	81 4d 04 00 	mov	r13,	4(r1)	;
    c6c2:	81 4e 06 00 	mov	r14,	6(r1)	;
    c6c6:	81 4f 08 00 	mov	r15,	8(r1)	;
    c6ca:	0c 41       	mov	r1,	r12	;
    c6cc:	2c 53       	incd	r12		;
    c6ce:	0d 41       	mov	r1,	r13	;
    c6d0:	3d 50 0a 00 	add	#10,	r13	;#0x000a
    c6d4:	b0 12 92 cf 	call	#53138		;#0xcf92
    c6d8:	1c 41 0a 00 	mov	10(r1),	r12	;0x0000a
    c6dc:	2d 43       	mov	#2,	r13	;r3 As==10
    c6de:	0d 9c       	cmp	r12,	r13	;
    c6e0:	31 2c       	jc	$+100    	;abs 0xc744
    c6e2:	2c 92       	cmp	#4,	r12	;r2 As==10
    c6e4:	0b 20       	jnz	$+24     	;abs 0xc6fc
    c6e6:	0c 43       	clr	r12		;
    c6e8:	3d 40 00 80 	mov	#32768,	r13	;#0x8000
    c6ec:	81 93 0c 00 	cmp	#0,	12(r1)	;r3 As==00, 0x000c
    c6f0:	2b 20       	jnz	$+88     	;abs 0xc748
    c6f2:	3c 43       	mov	#-1,	r12	;r3 As==11
    c6f4:	3d 40 ff 7f 	mov	#32767,	r13	;#0x7fff
    c6f8:	30 40 48 c7 	br	#0xc748		;
    c6fc:	1c 41 0e 00 	mov	14(r1),	r12	;0x0000e
    c700:	0c 93       	cmp	#0,	r12	;r3 As==00
    c702:	20 38       	jl	$+66     	;abs 0xc744
    c704:	3d 40 1e 00 	mov	#30,	r13	;#0x001e
    c708:	0d 9c       	cmp	r12,	r13	;
    c70a:	ed 3b       	jl	$-36     	;abs 0xc6e6
    c70c:	3d 40 3c 00 	mov	#60,	r13	;#0x003c
    c710:	0d 8c       	sub	r12,	r13	;
    c712:	81 4d 00 00 	mov	r13,	0(r1)	;
    c716:	1c 41 10 00 	mov	16(r1),	r12	;0x00010
    c71a:	1d 41 12 00 	mov	18(r1),	r13	;0x00012
    c71e:	1e 41 14 00 	mov	20(r1),	r14	;0x00014
    c722:	1f 41 16 00 	mov	22(r1),	r15	;0x00016
    c726:	b0 12 90 cb 	call	#52112		;#0xcb90
    c72a:	0a 4c       	mov	r12,	r10	;
    c72c:	0b 4d       	mov	r13,	r11	;
    c72e:	81 93 0c 00 	cmp	#0,	12(r1)	;r3 As==00, 0x000c
    c732:	0a 24       	jz	$+22     	;abs 0xc748
    c734:	0e 43       	clr	r14		;
    c736:	0f 43       	clr	r15		;
    c738:	0c 4e       	mov	r14,	r12	;
    c73a:	0d 4f       	mov	r15,	r13	;
    c73c:	0c 8a       	sub	r10,	r12	;
    c73e:	0d 7b       	subc	r11,	r13	;
    c740:	30 40 48 c7 	br	#0xc748		;
    c744:	0c 43       	clr	r12		;
    c746:	0d 43       	clr	r13		;
    c748:	31 50 18 00 	add	#24,	r1	;#0x0018
    c74c:	3a 41       	pop	r10		;
    c74e:	30 41       	ret			

0000c750 <__mspabi_fltuld>:
    c750:	0a 12       	push	r10		;
    c752:	09 12       	push	r9		;
    c754:	08 12       	push	r8		;
    c756:	31 80 10 00 	sub	#16,	r1	;#0x0010
    c75a:	08 4c       	mov	r12,	r8	;
    c75c:	09 4d       	mov	r13,	r9	;
    c75e:	81 43 04 00 	mov	#0,	4(r1)	;r3 As==00
    c762:	0e 4c       	mov	r12,	r14	;
    c764:	0e dd       	bis	r13,	r14	;
    c766:	0e 93       	cmp	#0,	r14	;r3 As==00
    c768:	04 20       	jnz	$+10     	;abs 0xc772
    c76a:	a1 43 02 00 	mov	#2,	2(r1)	;r3 As==10
    c76e:	30 40 ac c7 	br	#0xc7ac		;
    c772:	b1 40 03 00 	mov	#3,	2(r1)	;
    c776:	02 00 
    c778:	b0 12 88 cc 	call	#52360		;#0xcc88
    c77c:	0a 4c       	mov	r12,	r10	;
    c77e:	3a 50 1d 00 	add	#29,	r10	;#0x001d
    c782:	0c 48       	mov	r8,	r12	;
    c784:	81 4a 00 00 	mov	r10,	0(r1)	;
    c788:	0d 49       	mov	r9,	r13	;
    c78a:	0e 43       	clr	r14		;
    c78c:	0f 4e       	mov	r14,	r15	;
    c78e:	b0 12 0c cc 	call	#52236		;#0xcc0c
    c792:	81 4c 08 00 	mov	r12,	8(r1)	;
    c796:	81 4d 0a 00 	mov	r13,	10(r1)	; 0x000a
    c79a:	81 4e 0c 00 	mov	r14,	12(r1)	; 0x000c
    c79e:	81 4f 0e 00 	mov	r15,	14(r1)	; 0x000e
    c7a2:	3c 40 3c 00 	mov	#60,	r12	;#0x003c
    c7a6:	0c 8a       	sub	r10,	r12	;
    c7a8:	81 4c 06 00 	mov	r12,	6(r1)	;
    c7ac:	0c 41       	mov	r1,	r12	;
    c7ae:	2c 53       	incd	r12		;
    c7b0:	b0 12 d8 cc 	call	#52440		;#0xccd8
    c7b4:	31 50 10 00 	add	#16,	r1	;#0x0010
    c7b8:	30 40 ac 51 	br	#0x51ac		;

0000c7bc <udivmodsi4>:
    c7bc:	0a 12       	push	r10		;
    c7be:	09 12       	push	r9		;
    c7c0:	08 12       	push	r8		;
    c7c2:	07 12       	push	r7		;
    c7c4:	06 12       	push	r6		;
    c7c6:	0a 4c       	mov	r12,	r10	;
    c7c8:	0b 4d       	mov	r13,	r11	;
    c7ca:	3c 40 21 00 	mov	#33,	r12	;#0x0021
    c7ce:	18 43       	mov	#1,	r8	;r3 As==01
    c7d0:	09 43       	clr	r9		;
    c7d2:	0f 9b       	cmp	r11,	r15	;
    c7d4:	04 28       	jnc	$+10     	;abs 0xc7de
    c7d6:	0d 9f       	cmp	r15,	r13	;
    c7d8:	17 20       	jnz	$+48     	;abs 0xc808
    c7da:	0e 9a       	cmp	r10,	r14	;
    c7dc:	15 2c       	jc	$+44     	;abs 0xc808
    c7de:	3c 53       	add	#-1,	r12	;r3 As==11
    c7e0:	0c 93       	cmp	#0,	r12	;r3 As==00
    c7e2:	10 24       	jz	$+34     	;abs 0xc804
    c7e4:	0f 93       	cmp	#0,	r15	;r3 As==00
    c7e6:	10 38       	jl	$+34     	;abs 0xc808
    c7e8:	06 4e       	mov	r14,	r6	;
    c7ea:	07 4f       	mov	r15,	r7	;
    c7ec:	06 5e       	add	r14,	r6	;
    c7ee:	07 6f       	addc	r15,	r7	;
    c7f0:	0e 46       	mov	r6,	r14	;
    c7f2:	0f 47       	mov	r7,	r15	;
    c7f4:	06 48       	mov	r8,	r6	;
    c7f6:	07 49       	mov	r9,	r7	;
    c7f8:	06 58       	add	r8,	r6	;
    c7fa:	07 69       	addc	r9,	r7	;
    c7fc:	08 46       	mov	r6,	r8	;
    c7fe:	09 47       	mov	r7,	r9	;
    c800:	30 40 d2 c7 	br	#0xc7d2		;
    c804:	08 43       	clr	r8		;
    c806:	09 43       	clr	r9		;
    c808:	0c 43       	clr	r12		;
    c80a:	0d 4c       	mov	r12,	r13	;
    c80c:	07 48       	mov	r8,	r7	;
    c80e:	07 d9       	bis	r9,	r7	;
    c810:	07 93       	cmp	#0,	r7	;r3 As==00
    c812:	12 24       	jz	$+38     	;abs 0xc838
    c814:	0b 9f       	cmp	r15,	r11	;
    c816:	08 28       	jnc	$+18     	;abs 0xc828
    c818:	0f 9b       	cmp	r11,	r15	;
    c81a:	02 20       	jnz	$+6      	;abs 0xc820
    c81c:	0a 9e       	cmp	r14,	r10	;
    c81e:	04 28       	jnc	$+10     	;abs 0xc828
    c820:	0a 8e       	sub	r14,	r10	;
    c822:	0b 7f       	subc	r15,	r11	;
    c824:	0c d8       	bis	r8,	r12	;
    c826:	0d d9       	bis	r9,	r13	;
    c828:	12 c3       	clrc			
    c82a:	09 10       	rrc	r9		;
    c82c:	08 10       	rrc	r8		;
    c82e:	12 c3       	clrc			
    c830:	0f 10       	rrc	r15		;
    c832:	0e 10       	rrc	r14		;
    c834:	30 40 0c c8 	br	#0xc80c		;
    c838:	81 93 0c 00 	cmp	#0,	12(r1)	;r3 As==00, 0x000c
    c83c:	02 24       	jz	$+6      	;abs 0xc842
    c83e:	0c 4a       	mov	r10,	r12	;
    c840:	0d 4b       	mov	r11,	r13	;
    c842:	30 40 a8 51 	br	#0x51a8		;

0000c846 <__mspabi_divli>:
    c846:	0a 12       	push	r10		;
    c848:	09 12       	push	r9		;
    c84a:	08 12       	push	r8		;
    c84c:	07 12       	push	r7		;
    c84e:	06 12       	push	r6		;
    c850:	05 12       	push	r5		;
    c852:	21 83       	decd	r1		;
    c854:	0a 4c       	mov	r12,	r10	;
    c856:	0b 4d       	mov	r13,	r11	;
    c858:	08 4e       	mov	r14,	r8	;
    c85a:	09 4f       	mov	r15,	r9	;
    c85c:	37 40 bc c7 	mov	#51132,	r7	;#0xc7bc
    c860:	0d 93       	cmp	#0,	r13	;r3 As==00
    c862:	0d 34       	jge	$+28     	;abs 0xc87e
    c864:	0c 43       	clr	r12		;
    c866:	0d 43       	clr	r13		;
    c868:	05 4c       	mov	r12,	r5	;
    c86a:	06 4d       	mov	r13,	r6	;
    c86c:	05 8a       	sub	r10,	r5	;
    c86e:	06 7b       	subc	r11,	r6	;
    c870:	0a 45       	mov	r5,	r10	;
    c872:	0b 46       	mov	r6,	r11	;
    c874:	0f 93       	cmp	#0,	r15	;r3 As==00
    c876:	1c 34       	jge	$+58     	;abs 0xc8b0
    c878:	16 43       	mov	#1,	r6	;r3 As==01
    c87a:	30 40 86 c8 	br	#0xc886		;
    c87e:	06 4f       	mov	r15,	r6	;
    c880:	0f 93       	cmp	#0,	r15	;r3 As==00
    c882:	1d 34       	jge	$+60     	;abs 0xc8be
    c884:	06 43       	clr	r6		;
    c886:	0e 43       	clr	r14		;
    c888:	0f 43       	clr	r15		;
    c88a:	0e 88       	sub	r8,	r14	;
    c88c:	0f 79       	subc	r9,	r15	;
    c88e:	81 43 00 00 	mov	#0,	0(r1)	;r3 As==00
    c892:	0c 4a       	mov	r10,	r12	;
    c894:	0d 4b       	mov	r11,	r13	;
    c896:	87 12       	call	r7		;
    c898:	16 93       	cmp	#1,	r6	;r3 As==01
    c89a:	14 24       	jz	$+42     	;abs 0xc8c4
    c89c:	0e 43       	clr	r14		;
    c89e:	0f 43       	clr	r15		;
    c8a0:	0a 4e       	mov	r14,	r10	;
    c8a2:	0b 4f       	mov	r15,	r11	;
    c8a4:	0a 8c       	sub	r12,	r10	;
    c8a6:	0b 7d       	subc	r13,	r11	;
    c8a8:	0c 4a       	mov	r10,	r12	;
    c8aa:	0d 4b       	mov	r11,	r13	;
    c8ac:	30 40 c4 c8 	br	#0xc8c4		;
    c8b0:	81 43 00 00 	mov	#0,	0(r1)	;r3 As==00
    c8b4:	0c 45       	mov	r5,	r12	;
    c8b6:	0d 46       	mov	r6,	r13	;
    c8b8:	87 12       	call	r7		;
    c8ba:	30 40 9c c8 	br	#0xc89c		;
    c8be:	81 43 00 00 	mov	#0,	0(r1)	;r3 As==00
    c8c2:	87 12       	call	r7		;
    c8c4:	21 53       	incd	r1		;
    c8c6:	30 40 a6 51 	br	#0x51a6		;

0000c8ca <__mspabi_remli>:
    c8ca:	0a 12       	push	r10		;
    c8cc:	09 12       	push	r9		;
    c8ce:	08 12       	push	r8		;
    c8d0:	07 12       	push	r7		;
    c8d2:	06 12       	push	r6		;
    c8d4:	21 83       	decd	r1		;
    c8d6:	0d 93       	cmp	#0,	r13	;r3 As==00
    c8d8:	0b 34       	jge	$+24     	;abs 0xc8f0
    c8da:	0a 43       	clr	r10		;
    c8dc:	0b 43       	clr	r11		;
    c8de:	06 4a       	mov	r10,	r6	;
    c8e0:	07 4b       	mov	r11,	r7	;
    c8e2:	06 8c       	sub	r12,	r6	;
    c8e4:	07 7d       	subc	r13,	r7	;
    c8e6:	0c 46       	mov	r6,	r12	;
    c8e8:	0d 47       	mov	r7,	r13	;
    c8ea:	1a 43       	mov	#1,	r10	;r3 As==01
    c8ec:	30 40 f2 c8 	br	#0xc8f2		;
    c8f0:	0a 43       	clr	r10		;
    c8f2:	09 4f       	mov	r15,	r9	;
    c8f4:	0f 93       	cmp	#0,	r15	;r3 As==00
    c8f6:	08 34       	jge	$+18     	;abs 0xc908
    c8f8:	08 43       	clr	r8		;
    c8fa:	09 43       	clr	r9		;
    c8fc:	06 48       	mov	r8,	r6	;
    c8fe:	07 49       	mov	r9,	r7	;
    c900:	06 8e       	sub	r14,	r6	;
    c902:	07 7f       	subc	r15,	r7	;
    c904:	0e 46       	mov	r6,	r14	;
    c906:	0f 47       	mov	r7,	r15	;
    c908:	91 43 00 00 	mov	#1,	0(r1)	;r3 As==01
    c90c:	b0 12 bc c7 	call	#51132		;#0xc7bc
    c910:	0a 93       	cmp	#0,	r10	;r3 As==00
    c912:	08 24       	jz	$+18     	;abs 0xc924
    c914:	0e 43       	clr	r14		;
    c916:	0f 43       	clr	r15		;
    c918:	07 4e       	mov	r14,	r7	;
    c91a:	08 4f       	mov	r15,	r8	;
    c91c:	07 8c       	sub	r12,	r7	;
    c91e:	08 7d       	subc	r13,	r8	;
    c920:	0c 47       	mov	r7,	r12	;
    c922:	0d 48       	mov	r8,	r13	;
    c924:	21 53       	incd	r1		;
    c926:	30 40 a8 51 	br	#0x51a8		;

0000c92a <__mspabi_divlu>:
    c92a:	21 83       	decd	r1		;
    c92c:	81 43 00 00 	mov	#0,	0(r1)	;r3 As==00
    c930:	b0 12 bc c7 	call	#51132		;#0xc7bc
    c934:	21 53       	incd	r1		;
    c936:	30 41       	ret			

0000c938 <__mspabi_remul>:
    c938:	21 83       	decd	r1		;
    c93a:	91 43 00 00 	mov	#1,	0(r1)	;r3 As==01
    c93e:	b0 12 bc c7 	call	#51132		;#0xc7bc
    c942:	21 53       	incd	r1		;
    c944:	30 41       	ret			

0000c946 <__mspabi_slli_15>:
    c946:	0c 5c       	rla	r12		;

0000c948 <__mspabi_slli_14>:
    c948:	0c 5c       	rla	r12		;

0000c94a <__mspabi_slli_13>:
    c94a:	0c 5c       	rla	r12		;

0000c94c <__mspabi_slli_12>:
    c94c:	0c 5c       	rla	r12		;

0000c94e <__mspabi_slli_11>:
    c94e:	0c 5c       	rla	r12		;

0000c950 <__mspabi_slli_10>:
    c950:	0c 5c       	rla	r12		;

0000c952 <__mspabi_slli_9>:
    c952:	0c 5c       	rla	r12		;

0000c954 <__mspabi_slli_8>:
    c954:	0c 5c       	rla	r12		;

0000c956 <__mspabi_slli_7>:
    c956:	0c 5c       	rla	r12		;

0000c958 <__mspabi_slli_6>:
    c958:	0c 5c       	rla	r12		;

0000c95a <__mspabi_slli_5>:
    c95a:	0c 5c       	rla	r12		;

0000c95c <__mspabi_slli_4>:
    c95c:	0c 5c       	rla	r12		;

0000c95e <__mspabi_slli_3>:
    c95e:	0c 5c       	rla	r12		;

0000c960 <__mspabi_slli_2>:
    c960:	0c 5c       	rla	r12		;

0000c962 <__mspabi_slli_1>:
    c962:	0c 5c       	rla	r12		;
    c964:	30 41       	ret			
    c966:	3d 53       	add	#-1,	r13	;r3 As==11
    c968:	0c 5c       	rla	r12		;

0000c96a <__mspabi_slli>:
    c96a:	0d 93       	cmp	#0,	r13	;r3 As==00
    c96c:	fc 23       	jnz	$-6      	;abs 0xc966
    c96e:	30 41       	ret			

0000c970 <__mspabi_slll_15>:
    c970:	0c 5c       	rla	r12		;
    c972:	0d 6d       	rlc	r13		;

0000c974 <__mspabi_slll_14>:
    c974:	0c 5c       	rla	r12		;
    c976:	0d 6d       	rlc	r13		;

0000c978 <__mspabi_slll_13>:
    c978:	0c 5c       	rla	r12		;
    c97a:	0d 6d       	rlc	r13		;

0000c97c <__mspabi_slll_12>:
    c97c:	0c 5c       	rla	r12		;
    c97e:	0d 6d       	rlc	r13		;

0000c980 <__mspabi_slll_11>:
    c980:	0c 5c       	rla	r12		;
    c982:	0d 6d       	rlc	r13		;

0000c984 <__mspabi_slll_10>:
    c984:	0c 5c       	rla	r12		;
    c986:	0d 6d       	rlc	r13		;

0000c988 <__mspabi_slll_9>:
    c988:	0c 5c       	rla	r12		;
    c98a:	0d 6d       	rlc	r13		;

0000c98c <__mspabi_slll_8>:
    c98c:	0c 5c       	rla	r12		;
    c98e:	0d 6d       	rlc	r13		;

0000c990 <__mspabi_slll_7>:
    c990:	0c 5c       	rla	r12		;
    c992:	0d 6d       	rlc	r13		;

0000c994 <__mspabi_slll_6>:
    c994:	0c 5c       	rla	r12		;
    c996:	0d 6d       	rlc	r13		;

0000c998 <__mspabi_slll_5>:
    c998:	0c 5c       	rla	r12		;
    c99a:	0d 6d       	rlc	r13		;

0000c99c <__mspabi_slll_4>:
    c99c:	0c 5c       	rla	r12		;
    c99e:	0d 6d       	rlc	r13		;

0000c9a0 <__mspabi_slll_3>:
    c9a0:	0c 5c       	rla	r12		;
    c9a2:	0d 6d       	rlc	r13		;

0000c9a4 <__mspabi_slll_2>:
    c9a4:	0c 5c       	rla	r12		;
    c9a6:	0d 6d       	rlc	r13		;

0000c9a8 <__mspabi_slll_1>:
    c9a8:	0c 5c       	rla	r12		;
    c9aa:	0d 6d       	rlc	r13		;
    c9ac:	30 41       	ret			
    c9ae:	3e 53       	add	#-1,	r14	;r3 As==11
    c9b0:	0c 5c       	rla	r12		;
    c9b2:	0d 6d       	rlc	r13		;

0000c9b4 <__mspabi_slll>:
    c9b4:	0e 93       	cmp	#0,	r14	;r3 As==00
    c9b6:	fb 23       	jnz	$-8      	;abs 0xc9ae
    c9b8:	30 41       	ret			

0000c9ba <__mspabi_srai_15>:
    c9ba:	0c 11       	rra	r12		;

0000c9bc <__mspabi_srai_14>:
    c9bc:	0c 11       	rra	r12		;

0000c9be <__mspabi_srai_13>:
    c9be:	0c 11       	rra	r12		;

0000c9c0 <__mspabi_srai_12>:
    c9c0:	0c 11       	rra	r12		;

0000c9c2 <__mspabi_srai_11>:
    c9c2:	0c 11       	rra	r12		;

0000c9c4 <__mspabi_srai_10>:
    c9c4:	0c 11       	rra	r12		;

0000c9c6 <__mspabi_srai_9>:
    c9c6:	0c 11       	rra	r12		;

0000c9c8 <__mspabi_srai_8>:
    c9c8:	0c 11       	rra	r12		;

0000c9ca <__mspabi_srai_7>:
    c9ca:	0c 11       	rra	r12		;

0000c9cc <__mspabi_srai_6>:
    c9cc:	0c 11       	rra	r12		;

0000c9ce <__mspabi_srai_5>:
    c9ce:	0c 11       	rra	r12		;

0000c9d0 <__mspabi_srai_4>:
    c9d0:	0c 11       	rra	r12		;

0000c9d2 <__mspabi_srai_3>:
    c9d2:	0c 11       	rra	r12		;

0000c9d4 <__mspabi_srai_2>:
    c9d4:	0c 11       	rra	r12		;

0000c9d6 <__mspabi_srai_1>:
    c9d6:	0c 11       	rra	r12		;
    c9d8:	30 41       	ret			
    c9da:	3d 53       	add	#-1,	r13	;r3 As==11
    c9dc:	0c 11       	rra	r12		;

0000c9de <__mspabi_srai>:
    c9de:	0d 93       	cmp	#0,	r13	;r3 As==00
    c9e0:	fc 23       	jnz	$-6      	;abs 0xc9da
    c9e2:	30 41       	ret			

0000c9e4 <__mspabi_sral_15>:
    c9e4:	0d 11       	rra	r13		;
    c9e6:	0c 10       	rrc	r12		;

0000c9e8 <__mspabi_sral_14>:
    c9e8:	0d 11       	rra	r13		;
    c9ea:	0c 10       	rrc	r12		;

0000c9ec <__mspabi_sral_13>:
    c9ec:	0d 11       	rra	r13		;
    c9ee:	0c 10       	rrc	r12		;

0000c9f0 <__mspabi_sral_12>:
    c9f0:	0d 11       	rra	r13		;
    c9f2:	0c 10       	rrc	r12		;

0000c9f4 <__mspabi_sral_11>:
    c9f4:	0d 11       	rra	r13		;
    c9f6:	0c 10       	rrc	r12		;

0000c9f8 <__mspabi_sral_10>:
    c9f8:	0d 11       	rra	r13		;
    c9fa:	0c 10       	rrc	r12		;

0000c9fc <__mspabi_sral_9>:
    c9fc:	0d 11       	rra	r13		;
    c9fe:	0c 10       	rrc	r12		;

0000ca00 <__mspabi_sral_8>:
    ca00:	0d 11       	rra	r13		;
    ca02:	0c 10       	rrc	r12		;

0000ca04 <__mspabi_sral_7>:
    ca04:	0d 11       	rra	r13		;
    ca06:	0c 10       	rrc	r12		;

0000ca08 <__mspabi_sral_6>:
    ca08:	0d 11       	rra	r13		;
    ca0a:	0c 10       	rrc	r12		;

0000ca0c <__mspabi_sral_5>:
    ca0c:	0d 11       	rra	r13		;
    ca0e:	0c 10       	rrc	r12		;

0000ca10 <__mspabi_sral_4>:
    ca10:	0d 11       	rra	r13		;
    ca12:	0c 10       	rrc	r12		;

0000ca14 <__mspabi_sral_3>:
    ca14:	0d 11       	rra	r13		;
    ca16:	0c 10       	rrc	r12		;

0000ca18 <__mspabi_sral_2>:
    ca18:	0d 11       	rra	r13		;
    ca1a:	0c 10       	rrc	r12		;

0000ca1c <__mspabi_sral_1>:
    ca1c:	0d 11       	rra	r13		;
    ca1e:	0c 10       	rrc	r12		;
    ca20:	30 41       	ret			
    ca22:	3e 53       	add	#-1,	r14	;r3 As==11
    ca24:	0d 11       	rra	r13		;
    ca26:	0c 10       	rrc	r12		;

0000ca28 <__mspabi_sral>:
    ca28:	0e 93       	cmp	#0,	r14	;r3 As==00
    ca2a:	fb 23       	jnz	$-8      	;abs 0xca22
    ca2c:	30 41       	ret			

0000ca2e <__mspabi_mpyll>:
    ca2e:	0a 12       	push	r10		;
    ca30:	09 12       	push	r9		;
    ca32:	08 12       	push	r8		;
    ca34:	07 12       	push	r7		;
    ca36:	06 12       	push	r6		;
    ca38:	05 12       	push	r5		;
    ca3a:	04 12       	push	r4		;
    ca3c:	31 80 1e 00 	sub	#30,	r1	;#0x001e
    ca40:	81 49 0e 00 	mov	r9,	14(r1)	; 0x000e
    ca44:	81 4a 16 00 	mov	r10,	22(r1)	; 0x0016
    ca48:	81 4b 18 00 	mov	r11,	24(r1)	; 0x0018
    ca4c:	07 4c       	mov	r12,	r7	;
    ca4e:	06 4d       	mov	r13,	r6	;
    ca50:	81 4e 1a 00 	mov	r14,	26(r1)	; 0x001a
    ca54:	81 4f 1c 00 	mov	r15,	28(r1)	; 0x001c
    ca58:	09 48       	mov	r8,	r9	;
    ca5a:	81 48 10 00 	mov	r8,	16(r1)	; 0x0010
    ca5e:	0c 48       	mov	r8,	r12	;
    ca60:	1d 41 0e 00 	mov	14(r1),	r13	;0x0000e
    ca64:	3e 40 10 00 	mov	#16,	r14	;#0x0010
    ca68:	b0 12 62 52 	call	#21090		;#0x5262
    ca6c:	81 4c 02 00 	mov	r12,	2(r1)	;
    ca70:	81 4d 04 00 	mov	r13,	4(r1)	;
    ca74:	81 47 12 00 	mov	r7,	18(r1)	; 0x0012
    ca78:	0c 47       	mov	r7,	r12	;
    ca7a:	0d 46       	mov	r6,	r13	;
    ca7c:	3e 40 10 00 	mov	#16,	r14	;#0x0010
    ca80:	b0 12 62 52 	call	#21090		;#0x5262
    ca84:	81 4c 06 00 	mov	r12,	6(r1)	;
    ca88:	81 4d 08 00 	mov	r13,	8(r1)	;
    ca8c:	38 40 64 d8 	mov	#55396,	r8	;#0xd864
    ca90:	0c 47       	mov	r7,	r12	;
    ca92:	0d 43       	clr	r13		;
    ca94:	0e 49       	mov	r9,	r14	;
    ca96:	0f 4d       	mov	r13,	r15	;
    ca98:	88 12       	call	r8		;
    ca9a:	04 4c       	mov	r12,	r4	;
    ca9c:	81 4c 14 00 	mov	r12,	20(r1)	; 0x0014
    caa0:	05 4d       	mov	r13,	r5	;
    caa2:	0c 47       	mov	r7,	r12	;
    caa4:	0d 43       	clr	r13		;
    caa6:	1e 41 02 00 	mov	2(r1),	r14	;
    caaa:	1f 41 04 00 	mov	4(r1),	r15	;
    caae:	88 12       	call	r8		;
    cab0:	07 4c       	mov	r12,	r7	;
    cab2:	0a 4d       	mov	r13,	r10	;
    cab4:	1c 41 06 00 	mov	6(r1),	r12	;
    cab8:	1d 41 08 00 	mov	8(r1),	r13	;
    cabc:	1e 41 02 00 	mov	2(r1),	r14	;
    cac0:	1f 41 04 00 	mov	4(r1),	r15	;
    cac4:	88 12       	call	r8		;
    cac6:	81 4c 02 00 	mov	r12,	2(r1)	;
    caca:	81 4d 04 00 	mov	r13,	4(r1)	;
    cace:	1c 41 06 00 	mov	6(r1),	r12	;
    cad2:	1d 41 08 00 	mov	8(r1),	r13	;
    cad6:	0e 49       	mov	r9,	r14	;
    cad8:	0f 43       	clr	r15		;
    cada:	88 12       	call	r8		;
    cadc:	09 47       	mov	r7,	r9	;
    cade:	09 5c       	add	r12,	r9	;
    cae0:	08 4a       	mov	r10,	r8	;
    cae2:	08 6d       	addc	r13,	r8	;
    cae4:	0c 44       	mov	r4,	r12	;
    cae6:	0d 45       	mov	r5,	r13	;
    cae8:	3e 40 10 00 	mov	#16,	r14	;#0x0010
    caec:	b0 12 62 52 	call	#21090		;#0x5262
    caf0:	09 5c       	add	r12,	r9	;
    caf2:	0d 68       	addc	r8,	r13	;
    caf4:	0d 9a       	cmp	r10,	r13	;
    caf6:	04 28       	jnc	$+10     	;abs 0xcb00
    caf8:	0a 9d       	cmp	r13,	r10	;
    cafa:	06 20       	jnz	$+14     	;abs 0xcb08
    cafc:	09 97       	cmp	r7,	r9	;
    cafe:	04 2c       	jc	$+10     	;abs 0xcb08
    cb00:	81 53 02 00 	add	#0,	2(r1)	;r3 As==00
    cb04:	91 63 04 00 	addc	#1,	4(r1)	;r3 As==01
    cb08:	0c 49       	mov	r9,	r12	;
    cb0a:	3e 40 10 00 	mov	#16,	r14	;#0x0010
    cb0e:	b0 12 62 52 	call	#21090		;#0x5262
    cb12:	15 41 02 00 	mov	2(r1),	r5	;
    cb16:	05 5c       	add	r12,	r5	;
    cb18:	1d 61 04 00 	addc	4(r1),	r13	;
    cb1c:	07 4d       	mov	r13,	r7	;
    cb1e:	0c 49       	mov	r9,	r12	;
    cb20:	0d 43       	clr	r13		;
    cb22:	3e 40 10 00 	mov	#16,	r14	;#0x0010
    cb26:	b0 12 b4 c9 	call	#51636		;#0xc9b4
    cb2a:	0f 43       	clr	r15		;
    cb2c:	0e 4f       	mov	r15,	r14	;
    cb2e:	1f 41 14 00 	mov	20(r1),	r15	;0x00014
    cb32:	0c 5f       	add	r15,	r12	;
    cb34:	0d 6e       	addc	r14,	r13	;
    cb36:	08 4c       	mov	r12,	r8	;
    cb38:	09 4d       	mov	r13,	r9	;
    cb3a:	0a 45       	mov	r5,	r10	;
    cb3c:	34 40 64 d8 	mov	#55396,	r4	;#0xd864
    cb40:	1c 41 10 00 	mov	16(r1),	r12	;0x00010
    cb44:	1d 41 0e 00 	mov	14(r1),	r13	;0x0000e
    cb48:	1e 41 1a 00 	mov	26(r1),	r14	;0x0001a
    cb4c:	1f 41 1c 00 	mov	28(r1),	r15	;0x0001c
    cb50:	81 47 00 00 	mov	r7,	0(r1)	;
    cb54:	84 12       	call	r4		;
    cb56:	07 4c       	mov	r12,	r7	;
    cb58:	05 4d       	mov	r13,	r5	;
    cb5a:	1c 41 12 00 	mov	18(r1),	r12	;0x00012
    cb5e:	0d 46       	mov	r6,	r13	;
    cb60:	1e 41 16 00 	mov	22(r1),	r14	;0x00016
    cb64:	1f 41 18 00 	mov	24(r1),	r15	;0x00018
    cb68:	84 12       	call	r4		;
    cb6a:	07 5c       	add	r12,	r7	;
    cb6c:	81 47 0a 00 	mov	r7,	10(r1)	; 0x000a
    cb70:	05 6d       	addc	r13,	r5	;
    cb72:	81 45 0c 00 	mov	r5,	12(r1)	; 0x000c
    cb76:	2b 41       	mov	@r1,	r11	;
    cb78:	1a 51 0a 00 	add	10(r1),	r10	;0x0000a
    cb7c:	1b 61 0c 00 	addc	12(r1),	r11	;0x0000c
    cb80:	0c 48       	mov	r8,	r12	;
    cb82:	0d 49       	mov	r9,	r13	;
    cb84:	0e 4a       	mov	r10,	r14	;
    cb86:	0f 4b       	mov	r11,	r15	;
    cb88:	31 50 1e 00 	add	#30,	r1	;#0x001e
    cb8c:	30 40 a4 51 	br	#0x51a4		;

0000cb90 <__lshrdi3>:
    cb90:	0a 12       	push	r10		;
    cb92:	09 12       	push	r9		;
    cb94:	08 12       	push	r8		;
    cb96:	07 12       	push	r7		;
    cb98:	06 12       	push	r6		;
    cb9a:	05 12       	push	r5		;
    cb9c:	04 12       	push	r4		;
    cb9e:	21 83       	decd	r1		;
    cba0:	14 41 12 00 	mov	18(r1),	r4	;0x00012
    cba4:	04 93       	cmp	#0,	r4	;r3 As==00
    cba6:	2f 24       	jz	$+96     	;abs 0xcc06
    cba8:	05 4d       	mov	r13,	r5	;
    cbaa:	81 4c 00 00 	mov	r12,	0(r1)	;
    cbae:	37 40 20 00 	mov	#32,	r7	;#0x0020
    cbb2:	07 84       	sub	r4,	r7	;
    cbb4:	0c 43       	clr	r12		;
    cbb6:	0c 97       	cmp	r7,	r12	;
    cbb8:	0b 38       	jl	$+24     	;abs 0xcbd0
    cbba:	09 4c       	mov	r12,	r9	;
    cbbc:	08 4c       	mov	r12,	r8	;
    cbbe:	0a 43       	clr	r10		;
    cbc0:	0a 87       	sub	r7,	r10	;
    cbc2:	0c 4e       	mov	r14,	r12	;
    cbc4:	0d 4f       	mov	r15,	r13	;
    cbc6:	0e 4a       	mov	r10,	r14	;
    cbc8:	b0 12 62 52 	call	#21090		;#0x5262
    cbcc:	30 40 02 cc 	br	#0xcc02		;
    cbd0:	0a 4e       	mov	r14,	r10	;
    cbd2:	06 4f       	mov	r15,	r6	;
    cbd4:	0c 4e       	mov	r14,	r12	;
    cbd6:	0d 4f       	mov	r15,	r13	;
    cbd8:	0e 44       	mov	r4,	r14	;
    cbda:	b0 12 62 52 	call	#21090		;#0x5262
    cbde:	09 4c       	mov	r12,	r9	;
    cbe0:	08 4d       	mov	r13,	r8	;
    cbe2:	0c 4a       	mov	r10,	r12	;
    cbe4:	0d 46       	mov	r6,	r13	;
    cbe6:	0e 47       	mov	r7,	r14	;
    cbe8:	b0 12 b4 c9 	call	#51636		;#0xc9b4
    cbec:	06 4c       	mov	r12,	r6	;
    cbee:	07 4d       	mov	r13,	r7	;
    cbf0:	2c 41       	mov	@r1,	r12	;
    cbf2:	0d 45       	mov	r5,	r13	;
    cbf4:	0e 44       	mov	r4,	r14	;
    cbf6:	b0 12 62 52 	call	#21090		;#0x5262
    cbfa:	0d d7       	bis	r7,	r13	;
    cbfc:	0b 46       	mov	r6,	r11	;
    cbfe:	0b dc       	bis	r12,	r11	;
    cc00:	0c 4b       	mov	r11,	r12	;
    cc02:	0e 49       	mov	r9,	r14	;
    cc04:	0f 48       	mov	r8,	r15	;
    cc06:	21 53       	incd	r1		;
    cc08:	30 40 a4 51 	br	#0x51a4		;

0000cc0c <__ashldi3>:
    cc0c:	0a 12       	push	r10		;
    cc0e:	09 12       	push	r9		;
    cc10:	08 12       	push	r8		;
    cc12:	07 12       	push	r7		;
    cc14:	06 12       	push	r6		;
    cc16:	05 12       	push	r5		;
    cc18:	04 12       	push	r4		;
    cc1a:	21 83       	decd	r1		;
    cc1c:	14 41 12 00 	mov	18(r1),	r4	;0x00012
    cc20:	04 93       	cmp	#0,	r4	;r3 As==00
    cc22:	2f 24       	jz	$+96     	;abs 0xcc82
    cc24:	05 4f       	mov	r15,	r5	;
    cc26:	81 4e 00 00 	mov	r14,	0(r1)	;
    cc2a:	0e 4c       	mov	r12,	r14	;
    cc2c:	37 40 20 00 	mov	#32,	r7	;#0x0020
    cc30:	07 84       	sub	r4,	r7	;
    cc32:	0c 43       	clr	r12		;
    cc34:	0c 97       	cmp	r7,	r12	;
    cc36:	0b 38       	jl	$+24     	;abs 0xcc4e
    cc38:	09 4c       	mov	r12,	r9	;
    cc3a:	08 4c       	mov	r12,	r8	;
    cc3c:	0f 43       	clr	r15		;
    cc3e:	0f 87       	sub	r7,	r15	;
    cc40:	0c 4e       	mov	r14,	r12	;
    cc42:	0e 4f       	mov	r15,	r14	;
    cc44:	b0 12 b4 c9 	call	#51636		;#0xc9b4
    cc48:	0e 4c       	mov	r12,	r14	;
    cc4a:	30 40 7c cc 	br	#0xcc7c		;
    cc4e:	0a 4e       	mov	r14,	r10	;
    cc50:	06 4d       	mov	r13,	r6	;
    cc52:	0c 4e       	mov	r14,	r12	;
    cc54:	0e 44       	mov	r4,	r14	;
    cc56:	b0 12 b4 c9 	call	#51636		;#0xc9b4
    cc5a:	09 4c       	mov	r12,	r9	;
    cc5c:	08 4d       	mov	r13,	r8	;
    cc5e:	0c 4a       	mov	r10,	r12	;
    cc60:	0d 46       	mov	r6,	r13	;
    cc62:	0e 47       	mov	r7,	r14	;
    cc64:	b0 12 62 52 	call	#21090		;#0x5262
    cc68:	06 4c       	mov	r12,	r6	;
    cc6a:	07 4d       	mov	r13,	r7	;
    cc6c:	2c 41       	mov	@r1,	r12	;
    cc6e:	0d 45       	mov	r5,	r13	;
    cc70:	0e 44       	mov	r4,	r14	;
    cc72:	b0 12 b4 c9 	call	#51636		;#0xc9b4
    cc76:	0d d7       	bis	r7,	r13	;
    cc78:	0e 46       	mov	r6,	r14	;
    cc7a:	0e dc       	bis	r12,	r14	;
    cc7c:	0f 4d       	mov	r13,	r15	;
    cc7e:	0c 49       	mov	r9,	r12	;
    cc80:	0d 48       	mov	r8,	r13	;
    cc82:	21 53       	incd	r1		;
    cc84:	30 40 a4 51 	br	#0x51a4		;

0000cc88 <__clzsi2>:
    cc88:	09 12       	push	r9		;
    cc8a:	08 12       	push	r8		;
    cc8c:	3e 40 ff 00 	mov	#255,	r14	;#0x00ff
    cc90:	0d 93       	cmp	#0,	r13	;r3 As==00
    cc92:	05 20       	jnz	$+12     	;abs 0xcc9e
    cc94:	0e 9c       	cmp	r12,	r14	;
    cc96:	0d 2c       	jc	$+28     	;abs 0xccb2
    cc98:	3e 42       	mov	#8,	r14	;r2 As==11
    cc9a:	30 40 b4 cc 	br	#0xccb4		;
    cc9e:	0e 9d       	cmp	r13,	r14	;
    cca0:	04 28       	jnc	$+10     	;abs 0xccaa
    cca2:	3e 40 10 00 	mov	#16,	r14	;#0x0010
    cca6:	30 40 b4 cc 	br	#0xccb4		;
    ccaa:	3e 40 18 00 	mov	#24,	r14	;#0x0018
    ccae:	30 40 b4 cc 	br	#0xccb4		;
    ccb2:	0e 43       	clr	r14		;
    ccb4:	0f 43       	clr	r15		;
    ccb6:	38 40 20 00 	mov	#32,	r8	;#0x0020
    ccba:	09 43       	clr	r9		;
    ccbc:	08 8e       	sub	r14,	r8	;
    ccbe:	09 7f       	subc	r15,	r9	;
    ccc0:	b0 12 62 52 	call	#21090		;#0x5262
    ccc4:	5e 4c 24 46 	mov.b	17956(r12),r14	;0x04624
    ccc8:	0f 43       	clr	r15		;
    ccca:	0c 48       	mov	r8,	r12	;
    cccc:	0d 49       	mov	r9,	r13	;
    ccce:	0c 8e       	sub	r14,	r12	;
    ccd0:	0d 7f       	subc	r15,	r13	;
    ccd2:	38 41       	pop	r8		;
    ccd4:	39 41       	pop	r9		;
    ccd6:	30 41       	ret			

0000ccd8 <__pack_d>:
    ccd8:	0a 12       	push	r10		;
    ccda:	09 12       	push	r9		;
    ccdc:	08 12       	push	r8		;
    ccde:	07 12       	push	r7		;
    cce0:	06 12       	push	r6		;
    cce2:	05 12       	push	r5		;
    cce4:	04 12       	push	r4		;
    cce6:	31 80 0a 00 	sub	#10,	r1	;#0x000a
    ccea:	1a 4c 06 00 	mov	6(r12),	r10	;
    ccee:	17 4c 08 00 	mov	8(r12),	r7	;
    ccf2:	18 4c 0a 00 	mov	10(r12),r8	;0x0000a
    ccf6:	19 4c 0c 00 	mov	12(r12),r9	;0x0000c
    ccfa:	91 4c 02 00 	mov	2(r12),	2(r1)	;
    ccfe:	02 00 
    cd00:	2d 4c       	mov	@r12,	r13	;
    cd02:	1e 43       	mov	#1,	r14	;r3 As==01
    cd04:	0e 9d       	cmp	r13,	r14	;
    cd06:	13 28       	jnc	$+40     	;abs 0xcd2e
    cd08:	b1 42 00 00 	mov	#8,	0(r1)	;r2 As==11
    cd0c:	0c 4a       	mov	r10,	r12	;
    cd0e:	0d 47       	mov	r7,	r13	;
    cd10:	0e 48       	mov	r8,	r14	;
    cd12:	0f 49       	mov	r9,	r15	;
    cd14:	b0 12 90 cb 	call	#52112		;#0xcb90
    cd18:	3f f0 07 00 	and	#7,	r15	;
    cd1c:	0a 4c       	mov	r12,	r10	;
    cd1e:	07 4d       	mov	r13,	r7	;
    cd20:	08 4e       	mov	r14,	r8	;
    cd22:	09 4f       	mov	r15,	r9	;
    cd24:	39 d2       	bis	#8,	r9	;r2 As==11
    cd26:	35 40 ff 07 	mov	#2047,	r5	;#0x07ff
    cd2a:	30 40 4a cf 	br	#0xcf4a		;
    cd2e:	2d 92       	cmp	#4,	r13	;r2 As==10
    cd30:	06 25       	jz	$+526    	;abs 0xcf3e
    cd32:	2d 93       	cmp	#2,	r13	;r3 As==10
    cd34:	fd 24       	jz	$+508    	;abs 0xcf30
    cd36:	05 4a       	mov	r10,	r5	;
    cd38:	05 d7       	bis	r7,	r5	;
    cd3a:	05 d8       	bis	r8,	r5	;
    cd3c:	05 d9       	bis	r9,	r5	;
    cd3e:	05 93       	cmp	#0,	r5	;r3 As==00
    cd40:	04 25       	jz	$+522    	;abs 0xcf4a
    cd42:	16 4c 04 00 	mov	4(r12),	r6	;
    cd46:	36 90 02 fc 	cmp	#64514,	r6	;#0xfc02
    cd4a:	a8 34       	jge	$+338    	;abs 0xce9c
    cd4c:	35 40 02 fc 	mov	#64514,	r5	;#0xfc02
    cd50:	05 86       	sub	r6,	r5	;
    cd52:	3c 40 38 00 	mov	#56,	r12	;#0x0038
    cd56:	0c 95       	cmp	r5,	r12	;
    cd58:	72 38       	jl	$+230    	;abs 0xce3e
    cd5a:	81 45 00 00 	mov	r5,	0(r1)	;
    cd5e:	0c 4a       	mov	r10,	r12	;
    cd60:	0d 47       	mov	r7,	r13	;
    cd62:	0e 48       	mov	r8,	r14	;
    cd64:	0f 49       	mov	r9,	r15	;
    cd66:	b0 12 90 cb 	call	#52112		;#0xcb90
    cd6a:	06 4c       	mov	r12,	r6	;
    cd6c:	81 4d 04 00 	mov	r13,	4(r1)	;
    cd70:	81 4e 06 00 	mov	r14,	6(r1)	;
    cd74:	81 4f 08 00 	mov	r15,	8(r1)	;
    cd78:	1c 43       	mov	#1,	r12	;r3 As==01
    cd7a:	0d 43       	clr	r13		;
    cd7c:	0e 4d       	mov	r13,	r14	;
    cd7e:	0f 4d       	mov	r13,	r15	;
    cd80:	b0 12 0c cc 	call	#52236		;#0xcc0c
    cd84:	04 4c       	mov	r12,	r4	;
    cd86:	34 53       	add	#-1,	r4	;r3 As==11
    cd88:	15 43       	mov	#1,	r5	;r3 As==01
    cd8a:	0c 93       	cmp	#0,	r12	;r3 As==00
    cd8c:	01 20       	jnz	$+4      	;abs 0xcd90
    cd8e:	05 43       	clr	r5		;
    cd90:	0c 4d       	mov	r13,	r12	;
    cd92:	3c 53       	add	#-1,	r12	;r3 As==11
    cd94:	1b 43       	mov	#1,	r11	;r3 As==01
    cd96:	0c 9d       	cmp	r13,	r12	;
    cd98:	01 28       	jnc	$+4      	;abs 0xcd9c
    cd9a:	0b 43       	clr	r11		;
    cd9c:	05 5c       	add	r12,	r5	;
    cd9e:	1d 43       	mov	#1,	r13	;r3 As==01
    cda0:	05 9c       	cmp	r12,	r5	;
    cda2:	01 28       	jnc	$+4      	;abs 0xcda6
    cda4:	0d 43       	clr	r13		;
    cda6:	0b dd       	bis	r13,	r11	;
    cda8:	0d 4e       	mov	r14,	r13	;
    cdaa:	3d 53       	add	#-1,	r13	;r3 As==11
    cdac:	1c 43       	mov	#1,	r12	;r3 As==01
    cdae:	0d 9e       	cmp	r14,	r13	;
    cdb0:	01 28       	jnc	$+4      	;abs 0xcdb4
    cdb2:	0c 43       	clr	r12		;
    cdb4:	0b 5d       	add	r13,	r11	;
    cdb6:	1e 43       	mov	#1,	r14	;r3 As==01
    cdb8:	0b 9d       	cmp	r13,	r11	;
    cdba:	01 28       	jnc	$+4      	;abs 0xcdbe
    cdbc:	0e 43       	clr	r14		;
    cdbe:	0c de       	bis	r14,	r12	;
    cdc0:	3f 53       	add	#-1,	r15	;r3 As==11
    cdc2:	0f 5c       	add	r12,	r15	;
    cdc4:	0c 44       	mov	r4,	r12	;
    cdc6:	0c fa       	and	r10,	r12	;
    cdc8:	05 f7       	and	r7,	r5	;
    cdca:	0b f8       	and	r8,	r11	;
    cdcc:	0f f9       	and	r9,	r15	;
    cdce:	09 43       	clr	r9		;
    cdd0:	09 8c       	sub	r12,	r9	;
    cdd2:	1a 43       	mov	#1,	r10	;r3 As==01
    cdd4:	09 93       	cmp	#0,	r9	;r3 As==00
    cdd6:	01 20       	jnz	$+4      	;abs 0xcdda
    cdd8:	0a 49       	mov	r9,	r10	;
    cdda:	0e 43       	clr	r14		;
    cddc:	0e 85       	sub	r5,	r14	;
    cdde:	18 43       	mov	#1,	r8	;r3 As==01
    cde0:	0e 93       	cmp	#0,	r14	;r3 As==00
    cde2:	01 20       	jnz	$+4      	;abs 0xcde6
    cde4:	08 4e       	mov	r14,	r8	;
    cde6:	0d 4e       	mov	r14,	r13	;
    cde8:	0d 8a       	sub	r10,	r13	;
    cdea:	1a 43       	mov	#1,	r10	;r3 As==01
    cdec:	0e 9d       	cmp	r13,	r14	;
    cdee:	01 28       	jnc	$+4      	;abs 0xcdf2
    cdf0:	0a 43       	clr	r10		;
    cdf2:	08 da       	bis	r10,	r8	;
    cdf4:	0a 43       	clr	r10		;
    cdf6:	0a 8b       	sub	r11,	r10	;
    cdf8:	14 43       	mov	#1,	r4	;r3 As==01
    cdfa:	0a 93       	cmp	#0,	r10	;r3 As==00
    cdfc:	01 20       	jnz	$+4      	;abs 0xce00
    cdfe:	04 4a       	mov	r10,	r4	;
    ce00:	0e 4a       	mov	r10,	r14	;
    ce02:	0e 88       	sub	r8,	r14	;
    ce04:	18 43       	mov	#1,	r8	;r3 As==01
    ce06:	0a 9e       	cmp	r14,	r10	;
    ce08:	01 28       	jnc	$+4      	;abs 0xce0c
    ce0a:	08 43       	clr	r8		;
    ce0c:	04 d8       	bis	r8,	r4	;
    ce0e:	0a 43       	clr	r10		;
    ce10:	0a 8f       	sub	r15,	r10	;
    ce12:	0a 84       	sub	r4,	r10	;
    ce14:	b1 40 3f 00 	mov	#63,	0(r1)	;#0x003f
    ce18:	00 00 
    ce1a:	0c d9       	bis	r9,	r12	;
    ce1c:	0d d5       	bis	r5,	r13	;
    ce1e:	0e db       	bis	r11,	r14	;
    ce20:	0f da       	bis	r10,	r15	;
    ce22:	b0 12 90 cb 	call	#52112		;#0xcb90
    ce26:	0c d6       	bis	r6,	r12	;
    ce28:	1d d1 04 00 	bis	4(r1),	r13	;
    ce2c:	1e d1 06 00 	bis	6(r1),	r14	;
    ce30:	1f d1 08 00 	bis	8(r1),	r15	;
    ce34:	7c 90 80 ff 	cmp.b	#65408,	r12	;#0xff80
    ce38:	10 20       	jnz	$+34     	;abs 0xce5a
    ce3a:	30 40 4a ce 	br	#0xce4a		;
    ce3e:	0c 43       	clr	r12		;
    ce40:	0d 4c       	mov	r12,	r13	;
    ce42:	0e 4c       	mov	r12,	r14	;
    ce44:	0f 4c       	mov	r12,	r15	;
    ce46:	30 40 5a ce 	br	#0xce5a		;
    ce4a:	3c b0 00 01 	bit	#256,	r12	;#0x0100
    ce4e:	1a 24       	jz	$+54     	;abs 0xce84
    ce50:	07 4c       	mov	r12,	r7	;
    ce52:	37 50 80 00 	add	#128,	r7	;#0x0080
    ce56:	30 40 60 ce 	br	#0xce60		;
    ce5a:	07 4c       	mov	r12,	r7	;
    ce5c:	37 50 7f 00 	add	#127,	r7	;#0x007f
    ce60:	19 43       	mov	#1,	r9	;r3 As==01
    ce62:	07 9c       	cmp	r12,	r7	;
    ce64:	01 28       	jnc	$+4      	;abs 0xce68
    ce66:	09 43       	clr	r9		;
    ce68:	09 5d       	add	r13,	r9	;
    ce6a:	1a 43       	mov	#1,	r10	;r3 As==01
    ce6c:	09 9d       	cmp	r13,	r9	;
    ce6e:	01 28       	jnc	$+4      	;abs 0xce72
    ce70:	0a 43       	clr	r10		;
    ce72:	0a 5e       	add	r14,	r10	;
    ce74:	18 43       	mov	#1,	r8	;r3 As==01
    ce76:	0a 9e       	cmp	r14,	r10	;
    ce78:	01 28       	jnc	$+4      	;abs 0xce7c
    ce7a:	08 43       	clr	r8		;
    ce7c:	0c 47       	mov	r7,	r12	;
    ce7e:	0d 49       	mov	r9,	r13	;
    ce80:	0e 4a       	mov	r10,	r14	;
    ce82:	0f 58       	add	r8,	r15	;
    ce84:	15 43       	mov	#1,	r5	;r3 As==01
    ce86:	3a 40 ff 0f 	mov	#4095,	r10	;#0x0fff
    ce8a:	0a 9f       	cmp	r15,	r10	;
    ce8c:	01 28       	jnc	$+4      	;abs 0xce90
    ce8e:	05 43       	clr	r5		;
    ce90:	b1 42 00 00 	mov	#8,	0(r1)	;r2 As==11
    ce94:	b0 12 90 cb 	call	#52112		;#0xcb90
    ce98:	30 40 24 cf 	br	#0xcf24		;
    ce9c:	3c 40 ff 03 	mov	#1023,	r12	;#0x03ff
    cea0:	0c 96       	cmp	r6,	r12	;
    cea2:	4d 38       	jl	$+156    	;abs 0xcf3e
    cea4:	7a 90 80 ff 	cmp.b	#65408,	r10	;#0xff80
    cea8:	08 20       	jnz	$+18     	;abs 0xceba
    ceaa:	3a b0 00 01 	bit	#256,	r10	;#0x0100
    ceae:	1a 24       	jz	$+54     	;abs 0xcee4
    ceb0:	0f 4a       	mov	r10,	r15	;
    ceb2:	3f 50 80 00 	add	#128,	r15	;#0x0080
    ceb6:	30 40 c0 ce 	br	#0xcec0		;
    ceba:	0f 4a       	mov	r10,	r15	;
    cebc:	3f 50 7f 00 	add	#127,	r15	;#0x007f
    cec0:	1d 43       	mov	#1,	r13	;r3 As==01
    cec2:	0f 9a       	cmp	r10,	r15	;
    cec4:	01 28       	jnc	$+4      	;abs 0xcec8
    cec6:	0d 43       	clr	r13		;
    cec8:	0d 57       	add	r7,	r13	;
    ceca:	1c 43       	mov	#1,	r12	;r3 As==01
    cecc:	0d 97       	cmp	r7,	r13	;
    cece:	01 28       	jnc	$+4      	;abs 0xced2
    ced0:	0c 43       	clr	r12		;
    ced2:	0c 58       	add	r8,	r12	;
    ced4:	1e 43       	mov	#1,	r14	;r3 As==01
    ced6:	0c 98       	cmp	r8,	r12	;
    ced8:	01 28       	jnc	$+4      	;abs 0xcedc
    ceda:	0e 43       	clr	r14		;
    cedc:	0a 4f       	mov	r15,	r10	;
    cede:	07 4d       	mov	r13,	r7	;
    cee0:	08 4c       	mov	r12,	r8	;
    cee2:	09 5e       	add	r14,	r9	;
    cee4:	34 40 90 cb 	mov	#52112,	r4	;#0xcb90
    cee8:	3e 40 ff 1f 	mov	#8191,	r14	;#0x1fff
    ceec:	0e 99       	cmp	r9,	r14	;
    ceee:	05 28       	jnc	$+12     	;abs 0xcefa
    cef0:	05 46       	mov	r6,	r5	;
    cef2:	35 50 ff 03 	add	#1023,	r5	;#0x03ff
    cef6:	30 40 16 cf 	br	#0xcf16		;
    cefa:	91 43 00 00 	mov	#1,	0(r1)	;r3 As==01
    cefe:	0c 4a       	mov	r10,	r12	;
    cf00:	0d 47       	mov	r7,	r13	;
    cf02:	0e 48       	mov	r8,	r14	;
    cf04:	0f 49       	mov	r9,	r15	;
    cf06:	84 12       	call	r4		;
    cf08:	0a 4c       	mov	r12,	r10	;
    cf0a:	07 4d       	mov	r13,	r7	;
    cf0c:	08 4e       	mov	r14,	r8	;
    cf0e:	09 4f       	mov	r15,	r9	;
    cf10:	05 46       	mov	r6,	r5	;
    cf12:	35 50 00 04 	add	#1024,	r5	;#0x0400
    cf16:	b1 42 00 00 	mov	#8,	0(r1)	;r2 As==11
    cf1a:	0c 4a       	mov	r10,	r12	;
    cf1c:	0d 47       	mov	r7,	r13	;
    cf1e:	0e 48       	mov	r8,	r14	;
    cf20:	0f 49       	mov	r9,	r15	;
    cf22:	84 12       	call	r4		;
    cf24:	0a 4c       	mov	r12,	r10	;
    cf26:	07 4d       	mov	r13,	r7	;
    cf28:	08 4e       	mov	r14,	r8	;
    cf2a:	09 4f       	mov	r15,	r9	;
    cf2c:	30 40 4a cf 	br	#0xcf4a		;
    cf30:	05 43       	clr	r5		;
    cf32:	0a 45       	mov	r5,	r10	;
    cf34:	07 45       	mov	r5,	r7	;
    cf36:	08 45       	mov	r5,	r8	;
    cf38:	09 45       	mov	r5,	r9	;
    cf3a:	30 40 4a cf 	br	#0xcf4a		;
    cf3e:	35 40 ff 07 	mov	#2047,	r5	;#0x07ff
    cf42:	0a 43       	clr	r10		;
    cf44:	07 4a       	mov	r10,	r7	;
    cf46:	08 4a       	mov	r10,	r8	;
    cf48:	09 4a       	mov	r10,	r9	;
    cf4a:	0d 45       	mov	r5,	r13	;
    cf4c:	3d f0 ff 07 	and	#2047,	r13	;#0x07ff
    cf50:	0d 5d       	rla	r13		;
    cf52:	0d 5d       	rla	r13		;
    cf54:	0d 5d       	rla	r13		;
    cf56:	0d 5d       	rla	r13		;
    cf58:	39 f0 0f 00 	and	#15,	r9	;#0x000f
    cf5c:	5c 41 02 00 	mov.b	2(r1),	r12	;
    cf60:	0c 5c       	rla	r12		;
    cf62:	0c 5c       	rla	r12		;
    cf64:	0c 5c       	rla	r12		;
    cf66:	0c 5c       	rla	r12		;
    cf68:	0c 5c       	rla	r12		;
    cf6a:	0c 5c       	rla	r12		;
    cf6c:	0c 5c       	rla	r12		;
    cf6e:	0c 5c       	rla	r12		;
    cf70:	0c 5c       	rla	r12		;
    cf72:	0c 5c       	rla	r12		;
    cf74:	0c 5c       	rla	r12		;
    cf76:	0c 5c       	rla	r12		;
    cf78:	0c 5c       	rla	r12		;
    cf7a:	0c 5c       	rla	r12		;
    cf7c:	0f 4c       	mov	r12,	r15	;
    cf7e:	0f 5c       	add	r12,	r15	;
    cf80:	09 dd       	bis	r13,	r9	;
    cf82:	0c 4a       	mov	r10,	r12	;
    cf84:	0d 47       	mov	r7,	r13	;
    cf86:	0e 48       	mov	r8,	r14	;
    cf88:	0f d9       	bis	r9,	r15	;
    cf8a:	31 50 0a 00 	add	#10,	r1	;#0x000a
    cf8e:	30 40 a4 51 	br	#0x51a4		;

0000cf92 <__unpack_d>:
    cf92:	0a 12       	push	r10		;
    cf94:	09 12       	push	r9		;
    cf96:	08 12       	push	r8		;
    cf98:	07 12       	push	r7		;
    cf9a:	06 12       	push	r6		;
    cf9c:	05 12       	push	r5		;
    cf9e:	04 12       	push	r4		;
    cfa0:	21 83       	decd	r1		;
    cfa2:	06 4c       	mov	r12,	r6	;
    cfa4:	09 4d       	mov	r13,	r9	;
    cfa6:	2e 4c       	mov	@r12,	r14	;
    cfa8:	17 4c 02 00 	mov	2(r12),	r7	;
    cfac:	18 4c 04 00 	mov	4(r12),	r8	;
    cfb0:	55 4c 06 00 	mov.b	6(r12),	r5	;
    cfb4:	0a 45       	mov	r5,	r10	;
    cfb6:	3a f0 0f 00 	and	#15,	r10	;#0x000f
    cfba:	1c 4c 06 00 	mov	6(r12),	r12	;
    cfbe:	81 4e 00 00 	mov	r14,	0(r1)	;
    cfc2:	b0 12 e0 51 	call	#20960		;#0x51e0
    cfc6:	04 4c       	mov	r12,	r4	;
    cfc8:	34 f0 ff 07 	and	#2047,	r4	;#0x07ff
    cfcc:	5c 46 07 00 	mov.b	7(r6),	r12	;
    cfd0:	b0 12 d4 51 	call	#20948		;#0x51d4
    cfd4:	3c f0 ff 00 	and	#255,	r12	;#0x00ff
    cfd8:	89 4c 02 00 	mov	r12,	2(r9)	;
    cfdc:	2e 41       	mov	@r1,	r14	;
    cfde:	04 93       	cmp	#0,	r4	;r3 As==00
    cfe0:	50 21       	jnz	$+674    	;abs 0xd282
    cfe2:	0d 4e       	mov	r14,	r13	;
    cfe4:	0d d7       	bis	r7,	r13	;
    cfe6:	0d d8       	bis	r8,	r13	;
    cfe8:	0d da       	bis	r10,	r13	;
    cfea:	0d 93       	cmp	#0,	r13	;r3 As==00
    cfec:	04 20       	jnz	$+10     	;abs 0xcff6
    cfee:	a9 43 00 00 	mov	#2,	0(r9)	;r3 As==10
    cff2:	30 40 06 d7 	br	#0xd706		;
    cff6:	b9 40 02 fc 	mov	#64514,	4(r9)	;#0xfc02
    cffa:	04 00 
    cffc:	0f 4e       	mov	r14,	r15	;
    cffe:	0f 5e       	add	r14,	r15	;
    d000:	16 43       	mov	#1,	r6	;r3 As==01
    d002:	0f 9e       	cmp	r14,	r15	;
    d004:	01 28       	jnc	$+4      	;abs 0xd008
    d006:	06 44       	mov	r4,	r6	;
    d008:	0d 47       	mov	r7,	r13	;
    d00a:	0d 57       	add	r7,	r13	;
    d00c:	1c 43       	mov	#1,	r12	;r3 As==01
    d00e:	0d 97       	cmp	r7,	r13	;
    d010:	01 28       	jnc	$+4      	;abs 0xd014
    d012:	0c 43       	clr	r12		;
    d014:	07 46       	mov	r6,	r7	;
    d016:	07 5d       	add	r13,	r7	;
    d018:	1e 43       	mov	#1,	r14	;r3 As==01
    d01a:	07 9d       	cmp	r13,	r7	;
    d01c:	01 28       	jnc	$+4      	;abs 0xd020
    d01e:	0e 43       	clr	r14		;
    d020:	0c de       	bis	r14,	r12	;
    d022:	0e 48       	mov	r8,	r14	;
    d024:	0e 58       	add	r8,	r14	;
    d026:	1d 43       	mov	#1,	r13	;r3 As==01
    d028:	0e 98       	cmp	r8,	r14	;
    d02a:	01 28       	jnc	$+4      	;abs 0xd02e
    d02c:	0d 43       	clr	r13		;
    d02e:	0c 5e       	add	r14,	r12	;
    d030:	18 43       	mov	#1,	r8	;r3 As==01
    d032:	0c 9e       	cmp	r14,	r12	;
    d034:	01 28       	jnc	$+4      	;abs 0xd038
    d036:	08 43       	clr	r8		;
    d038:	0d d8       	bis	r8,	r13	;
    d03a:	0e 4a       	mov	r10,	r14	;
    d03c:	0e 5a       	add	r10,	r14	;
    d03e:	0e 5d       	add	r13,	r14	;
    d040:	06 4f       	mov	r15,	r6	;
    d042:	06 5f       	add	r15,	r6	;
    d044:	18 43       	mov	#1,	r8	;r3 As==01
    d046:	06 9f       	cmp	r15,	r6	;
    d048:	01 28       	jnc	$+4      	;abs 0xd04c
    d04a:	08 43       	clr	r8		;
    d04c:	0d 47       	mov	r7,	r13	;
    d04e:	0d 57       	add	r7,	r13	;
    d050:	1f 43       	mov	#1,	r15	;r3 As==01
    d052:	0d 97       	cmp	r7,	r13	;
    d054:	01 28       	jnc	$+4      	;abs 0xd058
    d056:	0f 43       	clr	r15		;
    d058:	08 5d       	add	r13,	r8	;
    d05a:	1a 43       	mov	#1,	r10	;r3 As==01
    d05c:	08 9d       	cmp	r13,	r8	;
    d05e:	01 28       	jnc	$+4      	;abs 0xd062
    d060:	0a 43       	clr	r10		;
    d062:	0f da       	bis	r10,	r15	;
    d064:	0a 4c       	mov	r12,	r10	;
    d066:	0a 5c       	add	r12,	r10	;
    d068:	1d 43       	mov	#1,	r13	;r3 As==01
    d06a:	0a 9c       	cmp	r12,	r10	;
    d06c:	01 28       	jnc	$+4      	;abs 0xd070
    d06e:	0d 43       	clr	r13		;
    d070:	0f 5a       	add	r10,	r15	;
    d072:	1c 43       	mov	#1,	r12	;r3 As==01
    d074:	0f 9a       	cmp	r10,	r15	;
    d076:	01 28       	jnc	$+4      	;abs 0xd07a
    d078:	0c 43       	clr	r12		;
    d07a:	0d dc       	bis	r12,	r13	;
    d07c:	0e 5e       	rla	r14		;
    d07e:	0e 5d       	add	r13,	r14	;
    d080:	05 46       	mov	r6,	r5	;
    d082:	05 56       	add	r6,	r5	;
    d084:	1a 43       	mov	#1,	r10	;r3 As==01
    d086:	05 96       	cmp	r6,	r5	;
    d088:	01 28       	jnc	$+4      	;abs 0xd08c
    d08a:	0a 43       	clr	r10		;
    d08c:	0c 48       	mov	r8,	r12	;
    d08e:	0c 58       	add	r8,	r12	;
    d090:	1d 43       	mov	#1,	r13	;r3 As==01
    d092:	0c 98       	cmp	r8,	r12	;
    d094:	01 28       	jnc	$+4      	;abs 0xd098
    d096:	0d 43       	clr	r13		;
    d098:	08 4a       	mov	r10,	r8	;
    d09a:	08 5c       	add	r12,	r8	;
    d09c:	1a 43       	mov	#1,	r10	;r3 As==01
    d09e:	08 9c       	cmp	r12,	r8	;
    d0a0:	01 28       	jnc	$+4      	;abs 0xd0a4
    d0a2:	0a 43       	clr	r10		;
    d0a4:	0d da       	bis	r10,	r13	;
    d0a6:	0a 4f       	mov	r15,	r10	;
    d0a8:	0a 5f       	add	r15,	r10	;
    d0aa:	1c 43       	mov	#1,	r12	;r3 As==01
    d0ac:	0a 9f       	cmp	r15,	r10	;
    d0ae:	01 28       	jnc	$+4      	;abs 0xd0b2
    d0b0:	0c 43       	clr	r12		;
    d0b2:	0f 4d       	mov	r13,	r15	;
    d0b4:	0f 5a       	add	r10,	r15	;
    d0b6:	1d 43       	mov	#1,	r13	;r3 As==01
    d0b8:	0f 9a       	cmp	r10,	r15	;
    d0ba:	01 28       	jnc	$+4      	;abs 0xd0be
    d0bc:	0d 43       	clr	r13		;
    d0be:	0c dd       	bis	r13,	r12	;
    d0c0:	0e 5e       	rla	r14		;
    d0c2:	0e 5c       	add	r12,	r14	;
    d0c4:	07 45       	mov	r5,	r7	;
    d0c6:	07 55       	add	r5,	r7	;
    d0c8:	1a 43       	mov	#1,	r10	;r3 As==01
    d0ca:	07 95       	cmp	r5,	r7	;
    d0cc:	01 28       	jnc	$+4      	;abs 0xd0d0
    d0ce:	0a 43       	clr	r10		;
    d0d0:	0c 48       	mov	r8,	r12	;
    d0d2:	0c 58       	add	r8,	r12	;
    d0d4:	1d 43       	mov	#1,	r13	;r3 As==01
    d0d6:	0c 98       	cmp	r8,	r12	;
    d0d8:	01 28       	jnc	$+4      	;abs 0xd0dc
    d0da:	0d 43       	clr	r13		;
    d0dc:	0a 5c       	add	r12,	r10	;
    d0de:	18 43       	mov	#1,	r8	;r3 As==01
    d0e0:	0a 9c       	cmp	r12,	r10	;
    d0e2:	01 28       	jnc	$+4      	;abs 0xd0e6
    d0e4:	08 43       	clr	r8		;
    d0e6:	0d d8       	bis	r8,	r13	;
    d0e8:	08 4f       	mov	r15,	r8	;
    d0ea:	08 5f       	add	r15,	r8	;
    d0ec:	1c 43       	mov	#1,	r12	;r3 As==01
    d0ee:	08 9f       	cmp	r15,	r8	;
    d0f0:	01 28       	jnc	$+4      	;abs 0xd0f4
    d0f2:	0c 43       	clr	r12		;
    d0f4:	0f 4d       	mov	r13,	r15	;
    d0f6:	0f 58       	add	r8,	r15	;
    d0f8:	1d 43       	mov	#1,	r13	;r3 As==01
    d0fa:	0f 98       	cmp	r8,	r15	;
    d0fc:	01 28       	jnc	$+4      	;abs 0xd100
    d0fe:	0d 43       	clr	r13		;
    d100:	0c dd       	bis	r13,	r12	;
    d102:	0e 5e       	rla	r14		;
    d104:	0e 5c       	add	r12,	r14	;
    d106:	06 47       	mov	r7,	r6	;
    d108:	06 57       	add	r7,	r6	;
    d10a:	18 43       	mov	#1,	r8	;r3 As==01
    d10c:	06 97       	cmp	r7,	r6	;
    d10e:	01 28       	jnc	$+4      	;abs 0xd112
    d110:	08 43       	clr	r8		;
    d112:	0c 4a       	mov	r10,	r12	;
    d114:	0c 5a       	add	r10,	r12	;
    d116:	1d 43       	mov	#1,	r13	;r3 As==01
    d118:	0c 9a       	cmp	r10,	r12	;
    d11a:	01 28       	jnc	$+4      	;abs 0xd11e
    d11c:	0d 43       	clr	r13		;
    d11e:	08 5c       	add	r12,	r8	;
    d120:	1a 43       	mov	#1,	r10	;r3 As==01
    d122:	08 9c       	cmp	r12,	r8	;
    d124:	01 28       	jnc	$+4      	;abs 0xd128
    d126:	0a 43       	clr	r10		;
    d128:	0d da       	bis	r10,	r13	;
    d12a:	0a 4f       	mov	r15,	r10	;
    d12c:	0a 5f       	add	r15,	r10	;
    d12e:	1c 43       	mov	#1,	r12	;r3 As==01
    d130:	0a 9f       	cmp	r15,	r10	;
    d132:	01 28       	jnc	$+4      	;abs 0xd136
    d134:	0c 43       	clr	r12		;
    d136:	0f 4d       	mov	r13,	r15	;
    d138:	0f 5a       	add	r10,	r15	;
    d13a:	1d 43       	mov	#1,	r13	;r3 As==01
    d13c:	0f 9a       	cmp	r10,	r15	;
    d13e:	01 28       	jnc	$+4      	;abs 0xd142
    d140:	0d 43       	clr	r13		;
    d142:	0c dd       	bis	r13,	r12	;
    d144:	0e 5e       	rla	r14		;
    d146:	0e 5c       	add	r12,	r14	;
    d148:	07 46       	mov	r6,	r7	;
    d14a:	07 56       	add	r6,	r7	;
    d14c:	1a 43       	mov	#1,	r10	;r3 As==01
    d14e:	07 96       	cmp	r6,	r7	;
    d150:	01 28       	jnc	$+4      	;abs 0xd154
    d152:	0a 43       	clr	r10		;
    d154:	0c 48       	mov	r8,	r12	;
    d156:	0c 58       	add	r8,	r12	;
    d158:	1d 43       	mov	#1,	r13	;r3 As==01
    d15a:	0c 98       	cmp	r8,	r12	;
    d15c:	01 28       	jnc	$+4      	;abs 0xd160
    d15e:	0d 43       	clr	r13		;
    d160:	0a 5c       	add	r12,	r10	;
    d162:	18 43       	mov	#1,	r8	;r3 As==01
    d164:	0a 9c       	cmp	r12,	r10	;
    d166:	01 28       	jnc	$+4      	;abs 0xd16a
    d168:	08 43       	clr	r8		;
    d16a:	0d d8       	bis	r8,	r13	;
    d16c:	08 4f       	mov	r15,	r8	;
    d16e:	08 5f       	add	r15,	r8	;
    d170:	1c 43       	mov	#1,	r12	;r3 As==01
    d172:	08 9f       	cmp	r15,	r8	;
    d174:	01 28       	jnc	$+4      	;abs 0xd178
    d176:	0c 43       	clr	r12		;
    d178:	0f 4d       	mov	r13,	r15	;
    d17a:	0f 58       	add	r8,	r15	;
    d17c:	1d 43       	mov	#1,	r13	;r3 As==01
    d17e:	0f 98       	cmp	r8,	r15	;
    d180:	01 28       	jnc	$+4      	;abs 0xd184
    d182:	0d 43       	clr	r13		;
    d184:	0c dd       	bis	r13,	r12	;
    d186:	0e 5e       	rla	r14		;
    d188:	0e 5c       	add	r12,	r14	;
    d18a:	06 47       	mov	r7,	r6	;
    d18c:	06 57       	add	r7,	r6	;
    d18e:	18 43       	mov	#1,	r8	;r3 As==01
    d190:	06 97       	cmp	r7,	r6	;
    d192:	01 28       	jnc	$+4      	;abs 0xd196
    d194:	08 43       	clr	r8		;
    d196:	0c 4a       	mov	r10,	r12	;
    d198:	0c 5a       	add	r10,	r12	;
    d19a:	1d 43       	mov	#1,	r13	;r3 As==01
    d19c:	0c 9a       	cmp	r10,	r12	;
    d19e:	01 28       	jnc	$+4      	;abs 0xd1a2
    d1a0:	0d 43       	clr	r13		;
    d1a2:	08 5c       	add	r12,	r8	;
    d1a4:	1a 43       	mov	#1,	r10	;r3 As==01
    d1a6:	08 9c       	cmp	r12,	r8	;
    d1a8:	01 28       	jnc	$+4      	;abs 0xd1ac
    d1aa:	0a 43       	clr	r10		;
    d1ac:	0d da       	bis	r10,	r13	;
    d1ae:	07 4f       	mov	r15,	r7	;
    d1b0:	07 5f       	add	r15,	r7	;
    d1b2:	1c 43       	mov	#1,	r12	;r3 As==01
    d1b4:	07 9f       	cmp	r15,	r7	;
    d1b6:	01 28       	jnc	$+4      	;abs 0xd1ba
    d1b8:	0c 43       	clr	r12		;
    d1ba:	0a 4d       	mov	r13,	r10	;
    d1bc:	0a 57       	add	r7,	r10	;
    d1be:	1d 43       	mov	#1,	r13	;r3 As==01
    d1c0:	0a 97       	cmp	r7,	r10	;
    d1c2:	01 28       	jnc	$+4      	;abs 0xd1c6
    d1c4:	0d 43       	clr	r13		;
    d1c6:	0c dd       	bis	r13,	r12	;
    d1c8:	0e 5e       	rla	r14		;
    d1ca:	0e 5c       	add	r12,	r14	;
    d1cc:	07 46       	mov	r6,	r7	;
    d1ce:	07 56       	add	r6,	r7	;
    d1d0:	1f 43       	mov	#1,	r15	;r3 As==01
    d1d2:	07 96       	cmp	r6,	r7	;
    d1d4:	01 28       	jnc	$+4      	;abs 0xd1d8
    d1d6:	0f 43       	clr	r15		;
    d1d8:	0c 48       	mov	r8,	r12	;
    d1da:	0c 58       	add	r8,	r12	;
    d1dc:	1d 43       	mov	#1,	r13	;r3 As==01
    d1de:	0c 98       	cmp	r8,	r12	;
    d1e0:	01 28       	jnc	$+4      	;abs 0xd1e4
    d1e2:	0d 43       	clr	r13		;
    d1e4:	0f 5c       	add	r12,	r15	;
    d1e6:	18 43       	mov	#1,	r8	;r3 As==01
    d1e8:	0f 9c       	cmp	r12,	r15	;
    d1ea:	01 28       	jnc	$+4      	;abs 0xd1ee
    d1ec:	08 43       	clr	r8		;
    d1ee:	0d d8       	bis	r8,	r13	;
    d1f0:	08 4a       	mov	r10,	r8	;
    d1f2:	08 5a       	add	r10,	r8	;
    d1f4:	1c 43       	mov	#1,	r12	;r3 As==01
    d1f6:	08 9a       	cmp	r10,	r8	;
    d1f8:	01 28       	jnc	$+4      	;abs 0xd1fc
    d1fa:	0c 43       	clr	r12		;
    d1fc:	0d 58       	add	r8,	r13	;
    d1fe:	1a 43       	mov	#1,	r10	;r3 As==01
    d200:	0d 98       	cmp	r8,	r13	;
    d202:	01 28       	jnc	$+4      	;abs 0xd206
    d204:	0a 43       	clr	r10		;
    d206:	0c da       	bis	r10,	r12	;
    d208:	0e 5e       	rla	r14		;
    d20a:	08 4d       	mov	r13,	r8	;
    d20c:	0c 5e       	add	r14,	r12	;
    d20e:	b9 40 03 00 	mov	#3,	0(r9)	;
    d212:	00 00 
    d214:	14 49 04 00 	mov	4(r9),	r4	;
    d218:	34 53       	add	#-1,	r4	;r3 As==11
    d21a:	05 47       	mov	r7,	r5	;
    d21c:	05 57       	add	r7,	r5	;
    d21e:	16 43       	mov	#1,	r6	;r3 As==01
    d220:	05 97       	cmp	r7,	r5	;
    d222:	01 28       	jnc	$+4      	;abs 0xd226
    d224:	06 43       	clr	r6		;
    d226:	0e 4f       	mov	r15,	r14	;
    d228:	0e 5f       	add	r15,	r14	;
    d22a:	1d 43       	mov	#1,	r13	;r3 As==01
    d22c:	0e 9f       	cmp	r15,	r14	;
    d22e:	01 28       	jnc	$+4      	;abs 0xd232
    d230:	0d 43       	clr	r13		;
    d232:	06 5e       	add	r14,	r6	;
    d234:	1f 43       	mov	#1,	r15	;r3 As==01
    d236:	06 9e       	cmp	r14,	r6	;
    d238:	01 28       	jnc	$+4      	;abs 0xd23c
    d23a:	0f 43       	clr	r15		;
    d23c:	0d df       	bis	r15,	r13	;
    d23e:	0f 48       	mov	r8,	r15	;
    d240:	0f 58       	add	r8,	r15	;
    d242:	1a 43       	mov	#1,	r10	;r3 As==01
    d244:	0f 98       	cmp	r8,	r15	;
    d246:	01 28       	jnc	$+4      	;abs 0xd24a
    d248:	0a 43       	clr	r10		;
    d24a:	0e 4d       	mov	r13,	r14	;
    d24c:	0e 5f       	add	r15,	r14	;
    d24e:	1d 43       	mov	#1,	r13	;r3 As==01
    d250:	0e 9f       	cmp	r15,	r14	;
    d252:	01 28       	jnc	$+4      	;abs 0xd256
    d254:	0d 43       	clr	r13		;
    d256:	0a dd       	bis	r13,	r10	;
    d258:	0c 5c       	rla	r12		;
    d25a:	07 45       	mov	r5,	r7	;
    d25c:	0f 46       	mov	r6,	r15	;
    d25e:	08 4e       	mov	r14,	r8	;
    d260:	0c 5a       	add	r10,	r12	;
    d262:	0d 44       	mov	r4,	r13	;
    d264:	34 53       	add	#-1,	r4	;r3 As==11
    d266:	3a 40 ff 0f 	mov	#4095,	r10	;#0x0fff
    d26a:	0a 9c       	cmp	r12,	r10	;
    d26c:	d6 2f       	jc	$-82     	;abs 0xd21a
    d26e:	89 4d 04 00 	mov	r13,	4(r9)	;
    d272:	89 45 06 00 	mov	r5,	6(r9)	;
    d276:	89 46 08 00 	mov	r6,	8(r9)	;
    d27a:	89 4e 0a 00 	mov	r14,	10(r9)	; 0x000a
    d27e:	30 40 02 d7 	br	#0xd702		;
    d282:	34 90 ff 07 	cmp	#2047,	r4	;#0x07ff
    d286:	24 21       	jnz	$+586    	;abs 0xd4d0
    d288:	0c 4e       	mov	r14,	r12	;
    d28a:	0c d7       	bis	r7,	r12	;
    d28c:	0c d8       	bis	r8,	r12	;
    d28e:	0c da       	bis	r10,	r12	;
    d290:	0c 93       	cmp	#0,	r12	;r3 As==00
    d292:	04 20       	jnz	$+10     	;abs 0xd29c
    d294:	a9 42 00 00 	mov	#4,	0(r9)	;r2 As==10
    d298:	30 40 06 d7 	br	#0xd706		;
    d29c:	35 f2       	and	#8,	r5	;r2 As==11
    d29e:	05 93       	cmp	#0,	r5	;r3 As==00
    d2a0:	04 24       	jz	$+10     	;abs 0xd2aa
    d2a2:	99 43 00 00 	mov	#1,	0(r9)	;r3 As==01
    d2a6:	30 40 ae d2 	br	#0xd2ae		;
    d2aa:	89 45 00 00 	mov	r5,	0(r9)	;
    d2ae:	0d 4a       	mov	r10,	r13	;
    d2b0:	3d c2       	bic	#8,	r13	;r2 As==11
    d2b2:	0f 4e       	mov	r14,	r15	;
    d2b4:	0f 5e       	add	r14,	r15	;
    d2b6:	1a 43       	mov	#1,	r10	;r3 As==01
    d2b8:	0f 9e       	cmp	r14,	r15	;
    d2ba:	01 28       	jnc	$+4      	;abs 0xd2be
    d2bc:	0a 43       	clr	r10		;
    d2be:	0e 47       	mov	r7,	r14	;
    d2c0:	0e 57       	add	r7,	r14	;
    d2c2:	1c 43       	mov	#1,	r12	;r3 As==01
    d2c4:	0e 97       	cmp	r7,	r14	;
    d2c6:	01 28       	jnc	$+4      	;abs 0xd2ca
    d2c8:	0c 43       	clr	r12		;
    d2ca:	07 4a       	mov	r10,	r7	;
    d2cc:	07 5e       	add	r14,	r7	;
    d2ce:	1a 43       	mov	#1,	r10	;r3 As==01
    d2d0:	07 9e       	cmp	r14,	r7	;
    d2d2:	01 28       	jnc	$+4      	;abs 0xd2d6
    d2d4:	0a 43       	clr	r10		;
    d2d6:	0c da       	bis	r10,	r12	;
    d2d8:	06 48       	mov	r8,	r6	;
    d2da:	06 58       	add	r8,	r6	;
    d2dc:	1e 43       	mov	#1,	r14	;r3 As==01
    d2de:	06 98       	cmp	r8,	r6	;
    d2e0:	01 28       	jnc	$+4      	;abs 0xd2e4
    d2e2:	0e 43       	clr	r14		;
    d2e4:	0c 56       	add	r6,	r12	;
    d2e6:	1a 43       	mov	#1,	r10	;r3 As==01
    d2e8:	0c 96       	cmp	r6,	r12	;
    d2ea:	01 28       	jnc	$+4      	;abs 0xd2ee
    d2ec:	0a 43       	clr	r10		;
    d2ee:	0e da       	bis	r10,	r14	;
    d2f0:	0d 5d       	rla	r13		;
    d2f2:	0d 5e       	add	r14,	r13	;
    d2f4:	0a 4f       	mov	r15,	r10	;
    d2f6:	0a 5f       	add	r15,	r10	;
    d2f8:	18 43       	mov	#1,	r8	;r3 As==01
    d2fa:	0a 9f       	cmp	r15,	r10	;
    d2fc:	01 28       	jnc	$+4      	;abs 0xd300
    d2fe:	08 43       	clr	r8		;
    d300:	0e 47       	mov	r7,	r14	;
    d302:	0e 57       	add	r7,	r14	;
    d304:	1f 43       	mov	#1,	r15	;r3 As==01
    d306:	0e 97       	cmp	r7,	r14	;
    d308:	01 28       	jnc	$+4      	;abs 0xd30c
    d30a:	0f 43       	clr	r15		;
    d30c:	08 5e       	add	r14,	r8	;
    d30e:	17 43       	mov	#1,	r7	;r3 As==01
    d310:	08 9e       	cmp	r14,	r8	;
    d312:	01 28       	jnc	$+4      	;abs 0xd316
    d314:	07 43       	clr	r7		;
    d316:	0f d7       	bis	r7,	r15	;
    d318:	07 4c       	mov	r12,	r7	;
    d31a:	07 5c       	add	r12,	r7	;
    d31c:	1e 43       	mov	#1,	r14	;r3 As==01
    d31e:	07 9c       	cmp	r12,	r7	;
    d320:	01 28       	jnc	$+4      	;abs 0xd324
    d322:	0e 43       	clr	r14		;
    d324:	0f 57       	add	r7,	r15	;
    d326:	1c 43       	mov	#1,	r12	;r3 As==01
    d328:	0f 97       	cmp	r7,	r15	;
    d32a:	01 28       	jnc	$+4      	;abs 0xd32e
    d32c:	0c 43       	clr	r12		;
    d32e:	0e dc       	bis	r12,	r14	;
    d330:	0d 5d       	rla	r13		;
    d332:	0d 5e       	add	r14,	r13	;
    d334:	06 4a       	mov	r10,	r6	;
    d336:	06 5a       	add	r10,	r6	;
    d338:	17 43       	mov	#1,	r7	;r3 As==01
    d33a:	06 9a       	cmp	r10,	r6	;
    d33c:	01 28       	jnc	$+4      	;abs 0xd340
    d33e:	07 43       	clr	r7		;
    d340:	0c 48       	mov	r8,	r12	;
    d342:	0c 58       	add	r8,	r12	;
    d344:	1e 43       	mov	#1,	r14	;r3 As==01
    d346:	0c 98       	cmp	r8,	r12	;
    d348:	01 28       	jnc	$+4      	;abs 0xd34c
    d34a:	0e 43       	clr	r14		;
    d34c:	08 47       	mov	r7,	r8	;
    d34e:	08 5c       	add	r12,	r8	;
    d350:	1a 43       	mov	#1,	r10	;r3 As==01
    d352:	08 9c       	cmp	r12,	r8	;
    d354:	01 28       	jnc	$+4      	;abs 0xd358
    d356:	0a 43       	clr	r10		;
    d358:	0e da       	bis	r10,	r14	;
    d35a:	0a 4f       	mov	r15,	r10	;
    d35c:	0a 5f       	add	r15,	r10	;
    d35e:	1c 43       	mov	#1,	r12	;r3 As==01
    d360:	0a 9f       	cmp	r15,	r10	;
    d362:	01 28       	jnc	$+4      	;abs 0xd366
    d364:	0c 43       	clr	r12		;
    d366:	0f 4e       	mov	r14,	r15	;
    d368:	0f 5a       	add	r10,	r15	;
    d36a:	1e 43       	mov	#1,	r14	;r3 As==01
    d36c:	0f 9a       	cmp	r10,	r15	;
    d36e:	01 28       	jnc	$+4      	;abs 0xd372
    d370:	0e 43       	clr	r14		;
    d372:	0c de       	bis	r14,	r12	;
    d374:	0d 5d       	rla	r13		;
    d376:	0d 5c       	add	r12,	r13	;
    d378:	07 46       	mov	r6,	r7	;
    d37a:	07 56       	add	r6,	r7	;
    d37c:	1a 43       	mov	#1,	r10	;r3 As==01
    d37e:	07 96       	cmp	r6,	r7	;
    d380:	01 28       	jnc	$+4      	;abs 0xd384
    d382:	0a 43       	clr	r10		;
    d384:	0c 48       	mov	r8,	r12	;
    d386:	0c 58       	add	r8,	r12	;
    d388:	1e 43       	mov	#1,	r14	;r3 As==01
    d38a:	0c 98       	cmp	r8,	r12	;
    d38c:	01 28       	jnc	$+4      	;abs 0xd390
    d38e:	0e 43       	clr	r14		;
    d390:	0a 5c       	add	r12,	r10	;
    d392:	18 43       	mov	#1,	r8	;r3 As==01
    d394:	0a 9c       	cmp	r12,	r10	;
    d396:	01 28       	jnc	$+4      	;abs 0xd39a
    d398:	08 43       	clr	r8		;
    d39a:	0e d8       	bis	r8,	r14	;
    d39c:	08 4f       	mov	r15,	r8	;
    d39e:	08 5f       	add	r15,	r8	;
    d3a0:	1c 43       	mov	#1,	r12	;r3 As==01
    d3a2:	08 9f       	cmp	r15,	r8	;
    d3a4:	01 28       	jnc	$+4      	;abs 0xd3a8
    d3a6:	0c 43       	clr	r12		;
    d3a8:	0f 4e       	mov	r14,	r15	;
    d3aa:	0f 58       	add	r8,	r15	;
    d3ac:	1e 43       	mov	#1,	r14	;r3 As==01
    d3ae:	0f 98       	cmp	r8,	r15	;
    d3b0:	01 28       	jnc	$+4      	;abs 0xd3b4
    d3b2:	0e 43       	clr	r14		;
    d3b4:	0c de       	bis	r14,	r12	;
    d3b6:	0d 5d       	rla	r13		;
    d3b8:	0d 5c       	add	r12,	r13	;
    d3ba:	06 47       	mov	r7,	r6	;
    d3bc:	06 57       	add	r7,	r6	;
    d3be:	18 43       	mov	#1,	r8	;r3 As==01
    d3c0:	06 97       	cmp	r7,	r6	;
    d3c2:	01 28       	jnc	$+4      	;abs 0xd3c6
    d3c4:	08 43       	clr	r8		;
    d3c6:	0c 4a       	mov	r10,	r12	;
    d3c8:	0c 5a       	add	r10,	r12	;
    d3ca:	1e 43       	mov	#1,	r14	;r3 As==01
    d3cc:	0c 9a       	cmp	r10,	r12	;
    d3ce:	01 28       	jnc	$+4      	;abs 0xd3d2
    d3d0:	0e 43       	clr	r14		;
    d3d2:	08 5c       	add	r12,	r8	;
    d3d4:	1a 43       	mov	#1,	r10	;r3 As==01
    d3d6:	08 9c       	cmp	r12,	r8	;
    d3d8:	01 28       	jnc	$+4      	;abs 0xd3dc
    d3da:	0a 43       	clr	r10		;
    d3dc:	0e da       	bis	r10,	r14	;
    d3de:	0a 4f       	mov	r15,	r10	;
    d3e0:	0a 5f       	add	r15,	r10	;
    d3e2:	1c 43       	mov	#1,	r12	;r3 As==01
    d3e4:	0a 9f       	cmp	r15,	r10	;
    d3e6:	01 28       	jnc	$+4      	;abs 0xd3ea
    d3e8:	0c 43       	clr	r12		;
    d3ea:	0e 5a       	add	r10,	r14	;
    d3ec:	1f 43       	mov	#1,	r15	;r3 As==01
    d3ee:	0e 9a       	cmp	r10,	r14	;
    d3f0:	01 28       	jnc	$+4      	;abs 0xd3f4
    d3f2:	0f 43       	clr	r15		;
    d3f4:	0c df       	bis	r15,	r12	;
    d3f6:	0d 5d       	rla	r13		;
    d3f8:	0d 5c       	add	r12,	r13	;
    d3fa:	07 46       	mov	r6,	r7	;
    d3fc:	07 56       	add	r6,	r7	;
    d3fe:	1a 43       	mov	#1,	r10	;r3 As==01
    d400:	07 96       	cmp	r6,	r7	;
    d402:	01 28       	jnc	$+4      	;abs 0xd406
    d404:	0a 43       	clr	r10		;
    d406:	0c 48       	mov	r8,	r12	;
    d408:	0c 58       	add	r8,	r12	;
    d40a:	1f 43       	mov	#1,	r15	;r3 As==01
    d40c:	0c 98       	cmp	r8,	r12	;
    d40e:	01 28       	jnc	$+4      	;abs 0xd412
    d410:	0f 43       	clr	r15		;
    d412:	0a 5c       	add	r12,	r10	;
    d414:	18 43       	mov	#1,	r8	;r3 As==01
    d416:	0a 9c       	cmp	r12,	r10	;
    d418:	01 28       	jnc	$+4      	;abs 0xd41c
    d41a:	08 43       	clr	r8		;
    d41c:	0f d8       	bis	r8,	r15	;
    d41e:	08 4e       	mov	r14,	r8	;
    d420:	08 5e       	add	r14,	r8	;
    d422:	1c 43       	mov	#1,	r12	;r3 As==01
    d424:	08 9e       	cmp	r14,	r8	;
    d426:	01 28       	jnc	$+4      	;abs 0xd42a
    d428:	0c 43       	clr	r12		;
    d42a:	0f 58       	add	r8,	r15	;
    d42c:	1e 43       	mov	#1,	r14	;r3 As==01
    d42e:	0f 98       	cmp	r8,	r15	;
    d430:	01 28       	jnc	$+4      	;abs 0xd434
    d432:	0e 43       	clr	r14		;
    d434:	0c de       	bis	r14,	r12	;
    d436:	0d 5d       	rla	r13		;
    d438:	0d 5c       	add	r12,	r13	;
    d43a:	06 47       	mov	r7,	r6	;
    d43c:	06 57       	add	r7,	r6	;
    d43e:	18 43       	mov	#1,	r8	;r3 As==01
    d440:	06 97       	cmp	r7,	r6	;
    d442:	01 28       	jnc	$+4      	;abs 0xd446
    d444:	08 43       	clr	r8		;
    d446:	0c 4a       	mov	r10,	r12	;
    d448:	0c 5a       	add	r10,	r12	;
    d44a:	1e 43       	mov	#1,	r14	;r3 As==01
    d44c:	0c 9a       	cmp	r10,	r12	;
    d44e:	01 28       	jnc	$+4      	;abs 0xd452
    d450:	0e 43       	clr	r14		;
    d452:	08 5c       	add	r12,	r8	;
    d454:	1a 43       	mov	#1,	r10	;r3 As==01
    d456:	08 9c       	cmp	r12,	r8	;
    d458:	01 28       	jnc	$+4      	;abs 0xd45c
    d45a:	0a 43       	clr	r10		;
    d45c:	0e da       	bis	r10,	r14	;
    d45e:	0a 4f       	mov	r15,	r10	;
    d460:	0a 5f       	add	r15,	r10	;
    d462:	1c 43       	mov	#1,	r12	;r3 As==01
    d464:	0a 9f       	cmp	r15,	r10	;
    d466:	01 28       	jnc	$+4      	;abs 0xd46a
    d468:	0c 43       	clr	r12		;
    d46a:	0e 5a       	add	r10,	r14	;
    d46c:	1f 43       	mov	#1,	r15	;r3 As==01
    d46e:	0e 9a       	cmp	r10,	r14	;
    d470:	01 28       	jnc	$+4      	;abs 0xd474
    d472:	0f 43       	clr	r15		;
    d474:	0c df       	bis	r15,	r12	;
    d476:	0d 5d       	rla	r13		;
    d478:	0d 5c       	add	r12,	r13	;
    d47a:	07 46       	mov	r6,	r7	;
    d47c:	07 56       	add	r6,	r7	;
    d47e:	1a 43       	mov	#1,	r10	;r3 As==01
    d480:	07 96       	cmp	r6,	r7	;
    d482:	01 28       	jnc	$+4      	;abs 0xd486
    d484:	0a 43       	clr	r10		;
    d486:	0f 48       	mov	r8,	r15	;
    d488:	0f 58       	add	r8,	r15	;
    d48a:	1c 43       	mov	#1,	r12	;r3 As==01
    d48c:	0f 98       	cmp	r8,	r15	;
    d48e:	01 28       	jnc	$+4      	;abs 0xd492
    d490:	0c 43       	clr	r12		;
    d492:	08 4a       	mov	r10,	r8	;
    d494:	08 5f       	add	r15,	r8	;
    d496:	1a 43       	mov	#1,	r10	;r3 As==01
    d498:	08 9f       	cmp	r15,	r8	;
    d49a:	01 28       	jnc	$+4      	;abs 0xd49e
    d49c:	0a 43       	clr	r10		;
    d49e:	0c da       	bis	r10,	r12	;
    d4a0:	0a 4e       	mov	r14,	r10	;
    d4a2:	0a 5e       	add	r14,	r10	;
    d4a4:	1f 43       	mov	#1,	r15	;r3 As==01
    d4a6:	0a 9e       	cmp	r14,	r10	;
    d4a8:	01 28       	jnc	$+4      	;abs 0xd4ac
    d4aa:	0f 43       	clr	r15		;
    d4ac:	0c 5a       	add	r10,	r12	;
    d4ae:	1e 43       	mov	#1,	r14	;r3 As==01
    d4b0:	0c 9a       	cmp	r10,	r12	;
    d4b2:	01 28       	jnc	$+4      	;abs 0xd4b6
    d4b4:	0e 43       	clr	r14		;
    d4b6:	0f de       	bis	r14,	r15	;
    d4b8:	0d 5d       	rla	r13		;
    d4ba:	89 47 06 00 	mov	r7,	6(r9)	;
    d4be:	89 48 08 00 	mov	r8,	8(r9)	;
    d4c2:	89 4c 0a 00 	mov	r12,	10(r9)	; 0x000a
    d4c6:	0f 5d       	add	r13,	r15	;
    d4c8:	89 4f 0c 00 	mov	r15,	12(r9)	; 0x000c
    d4cc:	30 40 06 d7 	br	#0xd706		;
    d4d0:	34 50 01 fc 	add	#64513,	r4	;#0xfc01
    d4d4:	89 44 04 00 	mov	r4,	4(r9)	;
    d4d8:	b9 40 03 00 	mov	#3,	0(r9)	;
    d4dc:	00 00 
    d4de:	06 4e       	mov	r14,	r6	;
    d4e0:	06 5e       	add	r14,	r6	;
    d4e2:	1f 43       	mov	#1,	r15	;r3 As==01
    d4e4:	06 9e       	cmp	r14,	r6	;
    d4e6:	01 28       	jnc	$+4      	;abs 0xd4ea
    d4e8:	0f 43       	clr	r15		;
    d4ea:	0c 47       	mov	r7,	r12	;
    d4ec:	0c 57       	add	r7,	r12	;
    d4ee:	1d 43       	mov	#1,	r13	;r3 As==01
    d4f0:	0c 97       	cmp	r7,	r12	;
    d4f2:	01 28       	jnc	$+4      	;abs 0xd4f6
    d4f4:	0d 43       	clr	r13		;
    d4f6:	07 4f       	mov	r15,	r7	;
    d4f8:	07 5c       	add	r12,	r7	;
    d4fa:	1e 43       	mov	#1,	r14	;r3 As==01
    d4fc:	07 9c       	cmp	r12,	r7	;
    d4fe:	01 28       	jnc	$+4      	;abs 0xd502
    d500:	0e 43       	clr	r14		;
    d502:	0d de       	bis	r14,	r13	;
    d504:	0f 48       	mov	r8,	r15	;
    d506:	0f 58       	add	r8,	r15	;
    d508:	1c 43       	mov	#1,	r12	;r3 As==01
    d50a:	0f 98       	cmp	r8,	r15	;
    d50c:	01 28       	jnc	$+4      	;abs 0xd510
    d50e:	0c 43       	clr	r12		;
    d510:	0e 4d       	mov	r13,	r14	;
    d512:	0e 5f       	add	r15,	r14	;
    d514:	1d 43       	mov	#1,	r13	;r3 As==01
    d516:	0e 9f       	cmp	r15,	r14	;
    d518:	01 28       	jnc	$+4      	;abs 0xd51c
    d51a:	0d 43       	clr	r13		;
    d51c:	0c dd       	bis	r13,	r12	;
    d51e:	0a 5a       	rla	r10		;
    d520:	0a 5c       	add	r12,	r10	;
    d522:	08 46       	mov	r6,	r8	;
    d524:	08 56       	add	r6,	r8	;
    d526:	1f 43       	mov	#1,	r15	;r3 As==01
    d528:	08 96       	cmp	r6,	r8	;
    d52a:	01 28       	jnc	$+4      	;abs 0xd52e
    d52c:	0f 43       	clr	r15		;
    d52e:	0d 47       	mov	r7,	r13	;
    d530:	0d 57       	add	r7,	r13	;
    d532:	1c 43       	mov	#1,	r12	;r3 As==01
    d534:	0d 97       	cmp	r7,	r13	;
    d536:	01 28       	jnc	$+4      	;abs 0xd53a
    d538:	0c 43       	clr	r12		;
    d53a:	0f 5d       	add	r13,	r15	;
    d53c:	17 43       	mov	#1,	r7	;r3 As==01
    d53e:	0f 9d       	cmp	r13,	r15	;
    d540:	01 28       	jnc	$+4      	;abs 0xd544
    d542:	07 43       	clr	r7		;
    d544:	0c d7       	bis	r7,	r12	;
    d546:	06 4e       	mov	r14,	r6	;
    d548:	06 5e       	add	r14,	r6	;
    d54a:	1d 43       	mov	#1,	r13	;r3 As==01
    d54c:	06 9e       	cmp	r14,	r6	;
    d54e:	01 28       	jnc	$+4      	;abs 0xd552
    d550:	0d 43       	clr	r13		;
    d552:	07 4c       	mov	r12,	r7	;
    d554:	07 56       	add	r6,	r7	;
    d556:	1c 43       	mov	#1,	r12	;r3 As==01
    d558:	07 96       	cmp	r6,	r7	;
    d55a:	01 28       	jnc	$+4      	;abs 0xd55e
    d55c:	0c 43       	clr	r12		;
    d55e:	0d dc       	bis	r12,	r13	;
    d560:	0c 4a       	mov	r10,	r12	;
    d562:	0c 5a       	add	r10,	r12	;
    d564:	0c 5d       	add	r13,	r12	;
    d566:	05 48       	mov	r8,	r5	;
    d568:	05 58       	add	r8,	r5	;
    d56a:	1a 43       	mov	#1,	r10	;r3 As==01
    d56c:	05 98       	cmp	r8,	r5	;
    d56e:	01 28       	jnc	$+4      	;abs 0xd572
    d570:	0a 43       	clr	r10		;
    d572:	0d 4f       	mov	r15,	r13	;
    d574:	0d 5f       	add	r15,	r13	;
    d576:	1e 43       	mov	#1,	r14	;r3 As==01
    d578:	0d 9f       	cmp	r15,	r13	;
    d57a:	01 28       	jnc	$+4      	;abs 0xd57e
    d57c:	0e 43       	clr	r14		;
    d57e:	0a 5d       	add	r13,	r10	;
    d580:	1f 43       	mov	#1,	r15	;r3 As==01
    d582:	0a 9d       	cmp	r13,	r10	;
    d584:	01 28       	jnc	$+4      	;abs 0xd588
    d586:	0f 43       	clr	r15		;
    d588:	0e df       	bis	r15,	r14	;
    d58a:	08 47       	mov	r7,	r8	;
    d58c:	08 57       	add	r7,	r8	;
    d58e:	1d 43       	mov	#1,	r13	;r3 As==01
    d590:	08 97       	cmp	r7,	r8	;
    d592:	01 28       	jnc	$+4      	;abs 0xd596
    d594:	0d 43       	clr	r13		;
    d596:	0f 4e       	mov	r14,	r15	;
    d598:	0f 58       	add	r8,	r15	;
    d59a:	1e 43       	mov	#1,	r14	;r3 As==01
    d59c:	0f 98       	cmp	r8,	r15	;
    d59e:	01 28       	jnc	$+4      	;abs 0xd5a2
    d5a0:	0e 43       	clr	r14		;
    d5a2:	0d de       	bis	r14,	r13	;
    d5a4:	0c 5c       	rla	r12		;
    d5a6:	0c 5d       	add	r13,	r12	;
    d5a8:	06 45       	mov	r5,	r6	;
    d5aa:	06 55       	add	r5,	r6	;
    d5ac:	18 43       	mov	#1,	r8	;r3 As==01
    d5ae:	06 95       	cmp	r5,	r6	;
    d5b0:	01 28       	jnc	$+4      	;abs 0xd5b4
    d5b2:	08 43       	clr	r8		;
    d5b4:	0d 4a       	mov	r10,	r13	;
    d5b6:	0d 5a       	add	r10,	r13	;
    d5b8:	1e 43       	mov	#1,	r14	;r3 As==01
    d5ba:	0d 9a       	cmp	r10,	r13	;
    d5bc:	01 28       	jnc	$+4      	;abs 0xd5c0
    d5be:	0e 43       	clr	r14		;
    d5c0:	08 5d       	add	r13,	r8	;
    d5c2:	1a 43       	mov	#1,	r10	;r3 As==01
    d5c4:	08 9d       	cmp	r13,	r8	;
    d5c6:	01 28       	jnc	$+4      	;abs 0xd5ca
    d5c8:	0a 43       	clr	r10		;
    d5ca:	0e da       	bis	r10,	r14	;
    d5cc:	0a 4f       	mov	r15,	r10	;
    d5ce:	0a 5f       	add	r15,	r10	;
    d5d0:	1d 43       	mov	#1,	r13	;r3 As==01
    d5d2:	0a 9f       	cmp	r15,	r10	;
    d5d4:	01 28       	jnc	$+4      	;abs 0xd5d8
    d5d6:	0d 43       	clr	r13		;
    d5d8:	0f 4e       	mov	r14,	r15	;
    d5da:	0f 5a       	add	r10,	r15	;
    d5dc:	1e 43       	mov	#1,	r14	;r3 As==01
    d5de:	0f 9a       	cmp	r10,	r15	;
    d5e0:	01 28       	jnc	$+4      	;abs 0xd5e4
    d5e2:	0e 43       	clr	r14		;
    d5e4:	0d de       	bis	r14,	r13	;
    d5e6:	0c 5c       	rla	r12		;
    d5e8:	0c 5d       	add	r13,	r12	;
    d5ea:	07 46       	mov	r6,	r7	;
    d5ec:	07 56       	add	r6,	r7	;
    d5ee:	1a 43       	mov	#1,	r10	;r3 As==01
    d5f0:	07 96       	cmp	r6,	r7	;
    d5f2:	01 28       	jnc	$+4      	;abs 0xd5f6
    d5f4:	0a 43       	clr	r10		;
    d5f6:	0d 48       	mov	r8,	r13	;
    d5f8:	0d 58       	add	r8,	r13	;
    d5fa:	1e 43       	mov	#1,	r14	;r3 As==01
    d5fc:	0d 98       	cmp	r8,	r13	;
    d5fe:	01 28       	jnc	$+4      	;abs 0xd602
    d600:	0e 43       	clr	r14		;
    d602:	0a 5d       	add	r13,	r10	;
    d604:	18 43       	mov	#1,	r8	;r3 As==01
    d606:	0a 9d       	cmp	r13,	r10	;
    d608:	01 28       	jnc	$+4      	;abs 0xd60c
    d60a:	08 43       	clr	r8		;
    d60c:	0e d8       	bis	r8,	r14	;
    d60e:	08 4f       	mov	r15,	r8	;
    d610:	08 5f       	add	r15,	r8	;
    d612:	1d 43       	mov	#1,	r13	;r3 As==01
    d614:	08 9f       	cmp	r15,	r8	;
    d616:	01 28       	jnc	$+4      	;abs 0xd61a
    d618:	0d 43       	clr	r13		;
    d61a:	0f 4e       	mov	r14,	r15	;
    d61c:	0f 58       	add	r8,	r15	;
    d61e:	1e 43       	mov	#1,	r14	;r3 As==01
    d620:	0f 98       	cmp	r8,	r15	;
    d622:	01 28       	jnc	$+4      	;abs 0xd626
    d624:	0e 43       	clr	r14		;
    d626:	0d de       	bis	r14,	r13	;
    d628:	0c 5c       	rla	r12		;
    d62a:	0c 5d       	add	r13,	r12	;
    d62c:	06 47       	mov	r7,	r6	;
    d62e:	06 57       	add	r7,	r6	;
    d630:	18 43       	mov	#1,	r8	;r3 As==01
    d632:	06 97       	cmp	r7,	r6	;
    d634:	01 28       	jnc	$+4      	;abs 0xd638
    d636:	08 43       	clr	r8		;
    d638:	0d 4a       	mov	r10,	r13	;
    d63a:	0d 5a       	add	r10,	r13	;
    d63c:	1e 43       	mov	#1,	r14	;r3 As==01
    d63e:	0d 9a       	cmp	r10,	r13	;
    d640:	01 28       	jnc	$+4      	;abs 0xd644
    d642:	0e 43       	clr	r14		;
    d644:	08 5d       	add	r13,	r8	;
    d646:	1a 43       	mov	#1,	r10	;r3 As==01
    d648:	08 9d       	cmp	r13,	r8	;
    d64a:	01 28       	jnc	$+4      	;abs 0xd64e
    d64c:	0a 43       	clr	r10		;
    d64e:	0e da       	bis	r10,	r14	;
    d650:	0a 4f       	mov	r15,	r10	;
    d652:	0a 5f       	add	r15,	r10	;
    d654:	1d 43       	mov	#1,	r13	;r3 As==01
    d656:	0a 9f       	cmp	r15,	r10	;
    d658:	01 28       	jnc	$+4      	;abs 0xd65c
    d65a:	0d 43       	clr	r13		;
    d65c:	0f 4e       	mov	r14,	r15	;
    d65e:	0f 5a       	add	r10,	r15	;
    d660:	1e 43       	mov	#1,	r14	;r3 As==01
    d662:	0f 9a       	cmp	r10,	r15	;
    d664:	01 28       	jnc	$+4      	;abs 0xd668
    d666:	0e 43       	clr	r14		;
    d668:	0d de       	bis	r14,	r13	;
    d66a:	0c 5c       	rla	r12		;
    d66c:	0c 5d       	add	r13,	r12	;
    d66e:	07 46       	mov	r6,	r7	;
    d670:	07 56       	add	r6,	r7	;
    d672:	1a 43       	mov	#1,	r10	;r3 As==01
    d674:	07 96       	cmp	r6,	r7	;
    d676:	01 28       	jnc	$+4      	;abs 0xd67a
    d678:	0a 43       	clr	r10		;
    d67a:	0d 48       	mov	r8,	r13	;
    d67c:	0d 58       	add	r8,	r13	;
    d67e:	1e 43       	mov	#1,	r14	;r3 As==01
    d680:	0d 98       	cmp	r8,	r13	;
    d682:	01 28       	jnc	$+4      	;abs 0xd686
    d684:	0e 43       	clr	r14		;
    d686:	0a 5d       	add	r13,	r10	;
    d688:	18 43       	mov	#1,	r8	;r3 As==01
    d68a:	0a 9d       	cmp	r13,	r10	;
    d68c:	01 28       	jnc	$+4      	;abs 0xd690
    d68e:	08 43       	clr	r8		;
    d690:	0e d8       	bis	r8,	r14	;
    d692:	08 4f       	mov	r15,	r8	;
    d694:	08 5f       	add	r15,	r8	;
    d696:	1d 43       	mov	#1,	r13	;r3 As==01
    d698:	08 9f       	cmp	r15,	r8	;
    d69a:	01 28       	jnc	$+4      	;abs 0xd69e
    d69c:	0d 43       	clr	r13		;
    d69e:	0f 4e       	mov	r14,	r15	;
    d6a0:	0f 58       	add	r8,	r15	;
    d6a2:	1e 43       	mov	#1,	r14	;r3 As==01
    d6a4:	0f 98       	cmp	r8,	r15	;
    d6a6:	01 28       	jnc	$+4      	;abs 0xd6aa
    d6a8:	0e 43       	clr	r14		;
    d6aa:	0d de       	bis	r14,	r13	;
    d6ac:	0c 5c       	rla	r12		;
    d6ae:	0c 5d       	add	r13,	r12	;
    d6b0:	08 47       	mov	r7,	r8	;
    d6b2:	08 57       	add	r7,	r8	;
    d6b4:	16 43       	mov	#1,	r6	;r3 As==01
    d6b6:	08 97       	cmp	r7,	r8	;
    d6b8:	01 28       	jnc	$+4      	;abs 0xd6bc
    d6ba:	06 43       	clr	r6		;
    d6bc:	0e 4a       	mov	r10,	r14	;
    d6be:	0e 5a       	add	r10,	r14	;
    d6c0:	1d 43       	mov	#1,	r13	;r3 As==01
    d6c2:	0e 9a       	cmp	r10,	r14	;
    d6c4:	01 28       	jnc	$+4      	;abs 0xd6c8
    d6c6:	0d 43       	clr	r13		;
    d6c8:	07 46       	mov	r6,	r7	;
    d6ca:	07 5e       	add	r14,	r7	;
    d6cc:	1a 43       	mov	#1,	r10	;r3 As==01
    d6ce:	07 9e       	cmp	r14,	r7	;
    d6d0:	01 28       	jnc	$+4      	;abs 0xd6d4
    d6d2:	0a 43       	clr	r10		;
    d6d4:	0d da       	bis	r10,	r13	;
    d6d6:	0a 4f       	mov	r15,	r10	;
    d6d8:	0a 5f       	add	r15,	r10	;
    d6da:	1e 43       	mov	#1,	r14	;r3 As==01
    d6dc:	0a 9f       	cmp	r15,	r10	;
    d6de:	01 28       	jnc	$+4      	;abs 0xd6e2
    d6e0:	0e 43       	clr	r14		;
    d6e2:	0d 5a       	add	r10,	r13	;
    d6e4:	1f 43       	mov	#1,	r15	;r3 As==01
    d6e6:	0d 9a       	cmp	r10,	r13	;
    d6e8:	01 28       	jnc	$+4      	;abs 0xd6ec
    d6ea:	0f 43       	clr	r15		;
    d6ec:	0e df       	bis	r15,	r14	;
    d6ee:	0c 5c       	rla	r12		;
    d6f0:	0c 5e       	add	r14,	r12	;
    d6f2:	89 48 06 00 	mov	r8,	6(r9)	;
    d6f6:	89 47 08 00 	mov	r7,	8(r9)	;
    d6fa:	89 4d 0a 00 	mov	r13,	10(r9)	; 0x000a
    d6fe:	3c d0 00 10 	bis	#4096,	r12	;#0x1000
    d702:	89 4c 0c 00 	mov	r12,	12(r9)	; 0x000c
    d706:	21 53       	incd	r1		;
    d708:	30 40 a4 51 	br	#0x51a4		;

0000d70c <__fpcmp_parts_d>:
    d70c:	0a 12       	push	r10		;
    d70e:	09 12       	push	r9		;
    d710:	08 12       	push	r8		;
    d712:	07 12       	push	r7		;
    d714:	2f 4c       	mov	@r12,	r15	;
    d716:	1a 43       	mov	#1,	r10	;r3 As==01
    d718:	0a 9f       	cmp	r15,	r10	;
    d71a:	60 2c       	jc	$+194    	;abs 0xd7dc
    d71c:	2e 4d       	mov	@r13,	r14	;
    d71e:	0a 9e       	cmp	r14,	r10	;
    d720:	5d 2c       	jc	$+188    	;abs 0xd7dc
    d722:	2f 92       	cmp	#4,	r15	;r2 As==10
    d724:	08 20       	jnz	$+18     	;abs 0xd736
    d726:	2e 92       	cmp	#4,	r14	;r2 As==10
    d728:	0c 20       	jnz	$+26     	;abs 0xd742
    d72a:	1e 4d 02 00 	mov	2(r13),	r14	;
    d72e:	1e 8c 02 00 	sub	2(r12),	r14	;
    d732:	30 40 ea d7 	br	#0xd7ea		;
    d736:	2e 92       	cmp	#4,	r14	;r2 As==10
    d738:	0c 24       	jz	$+26     	;abs 0xd752
    d73a:	2f 93       	cmp	#2,	r15	;r3 As==10
    d73c:	08 24       	jz	$+18     	;abs 0xd74e
    d73e:	2e 93       	cmp	#2,	r14	;r3 As==10
    d740:	0e 20       	jnz	$+30     	;abs 0xd75e
    d742:	1e 43       	mov	#1,	r14	;r3 As==01
    d744:	8c 93 02 00 	cmp	#0,	2(r12)	;r3 As==00
    d748:	50 24       	jz	$+162    	;abs 0xd7ea
    d74a:	30 40 e8 d7 	br	#0xd7e8		;
    d74e:	2e 93       	cmp	#2,	r14	;r3 As==10
    d750:	48 24       	jz	$+146    	;abs 0xd7e2
    d752:	3e 43       	mov	#-1,	r14	;r3 As==11
    d754:	8d 93 02 00 	cmp	#0,	2(r13)	;r3 As==00
    d758:	48 24       	jz	$+146    	;abs 0xd7ea
    d75a:	30 40 dc d7 	br	#0xd7dc		;
    d75e:	1e 4c 02 00 	mov	2(r12),	r14	;
    d762:	1e 9d 02 00 	cmp	2(r13),	r14	;
    d766:	26 20       	jnz	$+78     	;abs 0xd7b4
    d768:	1a 4c 04 00 	mov	4(r12),	r10	;
    d76c:	1f 4d 04 00 	mov	4(r13),	r15	;
    d770:	0f 9a       	cmp	r10,	r15	;
    d772:	20 38       	jl	$+66     	;abs 0xd7b4
    d774:	0a 9f       	cmp	r15,	r10	;
    d776:	30 38       	jl	$+98     	;abs 0xd7d8
    d778:	18 4c 06 00 	mov	6(r12),	r8	;
    d77c:	1f 4c 08 00 	mov	8(r12),	r15	;
    d780:	1b 4c 0a 00 	mov	10(r12),r11	;0x0000a
    d784:	19 4c 0c 00 	mov	12(r12),r9	;0x0000c
    d788:	17 4d 06 00 	mov	6(r13),	r7	;
    d78c:	1c 4d 08 00 	mov	8(r13),	r12	;
    d790:	1a 4d 0a 00 	mov	10(r13),r10	;0x0000a
    d794:	1d 4d 0c 00 	mov	12(r13),r13	;0x0000c
    d798:	0d 99       	cmp	r9,	r13	;
    d79a:	0c 28       	jnc	$+26     	;abs 0xd7b4
    d79c:	09 9d       	cmp	r13,	r9	;
    d79e:	0e 20       	jnz	$+30     	;abs 0xd7bc
    d7a0:	0a 9b       	cmp	r11,	r10	;
    d7a2:	08 28       	jnc	$+18     	;abs 0xd7b4
    d7a4:	0b 9a       	cmp	r10,	r11	;
    d7a6:	0a 20       	jnz	$+22     	;abs 0xd7bc
    d7a8:	0c 9f       	cmp	r15,	r12	;
    d7aa:	04 28       	jnc	$+10     	;abs 0xd7b4
    d7ac:	0f 9c       	cmp	r12,	r15	;
    d7ae:	06 20       	jnz	$+14     	;abs 0xd7bc
    d7b0:	07 98       	cmp	r8,	r7	;
    d7b2:	04 2c       	jc	$+10     	;abs 0xd7bc
    d7b4:	0e 93       	cmp	#0,	r14	;r3 As==00
    d7b6:	12 24       	jz	$+38     	;abs 0xd7dc
    d7b8:	30 40 e8 d7 	br	#0xd7e8		;
    d7bc:	09 9d       	cmp	r13,	r9	;
    d7be:	0c 28       	jnc	$+26     	;abs 0xd7d8
    d7c0:	0d 99       	cmp	r9,	r13	;
    d7c2:	0f 20       	jnz	$+32     	;abs 0xd7e2
    d7c4:	0b 9a       	cmp	r10,	r11	;
    d7c6:	08 28       	jnc	$+18     	;abs 0xd7d8
    d7c8:	0a 9b       	cmp	r11,	r10	;
    d7ca:	0b 20       	jnz	$+24     	;abs 0xd7e2
    d7cc:	0f 9c       	cmp	r12,	r15	;
    d7ce:	04 28       	jnc	$+10     	;abs 0xd7d8
    d7d0:	0c 9f       	cmp	r15,	r12	;
    d7d2:	07 20       	jnz	$+16     	;abs 0xd7e2
    d7d4:	08 97       	cmp	r7,	r8	;
    d7d6:	05 2c       	jc	$+12     	;abs 0xd7e2
    d7d8:	0e 93       	cmp	#0,	r14	;r3 As==00
    d7da:	06 24       	jz	$+14     	;abs 0xd7e8
    d7dc:	1e 43       	mov	#1,	r14	;r3 As==01
    d7de:	30 40 ea d7 	br	#0xd7ea		;
    d7e2:	0e 43       	clr	r14		;
    d7e4:	30 40 ea d7 	br	#0xd7ea		;
    d7e8:	3e 43       	mov	#-1,	r14	;r3 As==11
    d7ea:	0c 4e       	mov	r14,	r12	;
    d7ec:	30 40 aa 51 	br	#0x51aa		;

0000d7f0 <__mspabi_mpyi>:
    d7f0:	0a 12       	push	r10		;
    d7f2:	09 12       	push	r9		;
    d7f4:	08 12       	push	r8		;
    d7f6:	09 4c       	mov	r12,	r9	;
    d7f8:	0c 4d       	mov	r13,	r12	;
    d7fa:	3a 40 11 00 	mov	#17,	r10	;#0x0011
    d7fe:	08 43       	clr	r8		;
    d800:	0c 93       	cmp	#0,	r12	;r3 As==00
    d802:	0d 24       	jz	$+28     	;abs 0xd81e
    d804:	7a 53       	add.b	#-1,	r10	;r3 As==11
    d806:	3a f0 ff 00 	and	#255,	r10	;#0x00ff
    d80a:	0a 93       	cmp	#0,	r10	;r3 As==00
    d80c:	08 24       	jz	$+18     	;abs 0xd81e
    d80e:	1c b3       	bit	#1,	r12	;r3 As==01
    d810:	01 24       	jz	$+4      	;abs 0xd814
    d812:	08 59       	add	r9,	r8	;
    d814:	09 59       	rla	r9		;
    d816:	b0 12 ec 51 	call	#20972		;#0x51ec
    d81a:	30 40 00 d8 	br	#0xd800		;
    d81e:	0c 48       	mov	r8,	r12	;
    d820:	30 40 ac 51 	br	#0x51ac		;

0000d824 <__mulqi3>:
    d824:	0a 12       	push	r10		;
    d826:	09 12       	push	r9		;
    d828:	08 12       	push	r8		;
    d82a:	4a 4c       	mov.b	r12,	r10	;
    d82c:	4c 4d       	mov.b	r13,	r12	;
    d82e:	38 40 09 00 	mov	#9,	r8	;
    d832:	09 43       	clr	r9		;
    d834:	0c 93       	cmp	#0,	r12	;r3 As==00
    d836:	13 24       	jz	$+40     	;abs 0xd85e
    d838:	78 53       	add.b	#-1,	r8	;r3 As==11
    d83a:	38 f0 ff 00 	and	#255,	r8	;#0x00ff
    d83e:	08 93       	cmp	#0,	r8	;r3 As==00
    d840:	0e 24       	jz	$+30     	;abs 0xd85e
    d842:	1c b3       	bit	#1,	r12	;r3 As==01
    d844:	03 24       	jz	$+8      	;abs 0xd84c
    d846:	49 5a       	add.b	r10,	r9	;
    d848:	39 f0 ff 00 	and	#255,	r9	;#0x00ff
    d84c:	4a 5a       	rla.b	r10		;
    d84e:	3a f0 ff 00 	and	#255,	r10	;#0x00ff
    d852:	b0 12 ec 51 	call	#20972		;#0x51ec
    d856:	3c f0 ff 00 	and	#255,	r12	;#0x00ff
    d85a:	30 40 34 d8 	br	#0xd834		;
    d85e:	4c 49       	mov.b	r9,	r12	;
    d860:	30 40 ac 51 	br	#0x51ac		;

0000d864 <__mspabi_mpyl>:
    d864:	0a 12       	push	r10		;
    d866:	09 12       	push	r9		;
    d868:	08 12       	push	r8		;
    d86a:	07 12       	push	r7		;
    d86c:	06 12       	push	r6		;
    d86e:	0a 4c       	mov	r12,	r10	;
    d870:	0b 4d       	mov	r13,	r11	;
    d872:	3d 40 21 00 	mov	#33,	r13	;#0x0021
    d876:	08 43       	clr	r8		;
    d878:	09 43       	clr	r9		;
    d87a:	0c 4e       	mov	r14,	r12	;
    d87c:	0c df       	bis	r15,	r12	;
    d87e:	0c 93       	cmp	#0,	r12	;r3 As==00
    d880:	16 24       	jz	$+46     	;abs 0xd8ae
    d882:	7d 53       	add.b	#-1,	r13	;r3 As==11
    d884:	3d f0 ff 00 	and	#255,	r13	;#0x00ff
    d888:	0d 93       	cmp	#0,	r13	;r3 As==00
    d88a:	11 24       	jz	$+36     	;abs 0xd8ae
    d88c:	0c 4e       	mov	r14,	r12	;
    d88e:	1c f3       	and	#1,	r12	;r3 As==01
    d890:	0c 93       	cmp	#0,	r12	;r3 As==00
    d892:	02 24       	jz	$+6      	;abs 0xd898
    d894:	08 5a       	add	r10,	r8	;
    d896:	09 6b       	addc	r11,	r9	;
    d898:	06 4a       	mov	r10,	r6	;
    d89a:	07 4b       	mov	r11,	r7	;
    d89c:	06 5a       	add	r10,	r6	;
    d89e:	07 6b       	addc	r11,	r7	;
    d8a0:	0a 46       	mov	r6,	r10	;
    d8a2:	0b 47       	mov	r7,	r11	;
    d8a4:	12 c3       	clrc			
    d8a6:	0f 10       	rrc	r15		;
    d8a8:	0e 10       	rrc	r14		;
    d8aa:	30 40 7a d8 	br	#0xd87a		;
    d8ae:	0c 48       	mov	r8,	r12	;
    d8b0:	0d 49       	mov	r9,	r13	;
    d8b2:	30 40 a8 51 	br	#0x51a8		;

0000d8b6 <_exit>:
    d8b6:	30 40 b6 d8 	br	#0xd8b6		;

0000d8ba <open>:
    d8ba:	b0 12 ea d9 	call	#55786		;#0xd9ea
    d8be:	bc 40 58 00 	mov	#88,	0(r12)	;#0x0058
    d8c2:	00 00 
    d8c4:	3c 43       	mov	#-1,	r12	;r3 As==11
    d8c6:	30 41       	ret			

0000d8c8 <close>:
    d8c8:	b0 12 ea d9 	call	#55786		;#0xd9ea
    d8cc:	bc 40 58 00 	mov	#88,	0(r12)	;#0x0058
    d8d0:	00 00 
    d8d2:	3c 43       	mov	#-1,	r12	;r3 As==11
    d8d4:	30 41       	ret			

0000d8d6 <read>:
    d8d6:	b0 12 ea d9 	call	#55786		;#0xd9ea
    d8da:	bc 40 58 00 	mov	#88,	0(r12)	;#0x0058
    d8de:	00 00 
    d8e0:	3c 43       	mov	#-1,	r12	;r3 As==11
    d8e2:	30 41       	ret			

0000d8e4 <fstat>:
    d8e4:	b0 12 ea d9 	call	#55786		;#0xd9ea
    d8e8:	bc 40 58 00 	mov	#88,	0(r12)	;#0x0058
    d8ec:	00 00 
    d8ee:	3c 43       	mov	#-1,	r12	;r3 As==11
    d8f0:	30 41       	ret			

0000d8f2 <lseek>:
    d8f2:	b0 12 ea d9 	call	#55786		;#0xd9ea
    d8f6:	bc 40 58 00 	mov	#88,	0(r12)	;#0x0058
    d8fa:	00 00 
    d8fc:	3c 43       	mov	#-1,	r12	;r3 As==11
    d8fe:	30 41       	ret			

0000d900 <kill>:
    d900:	b0 12 ea d9 	call	#55786		;#0xd9ea
    d904:	bc 40 58 00 	mov	#88,	0(r12)	;#0x0058
    d908:	00 00 
    d90a:	3c 43       	mov	#-1,	r12	;r3 As==11
    d90c:	30 41       	ret			

0000d90e <_isatty>:
    d90e:	1c 43       	mov	#1,	r12	;r3 As==01
    d910:	30 41       	ret			

0000d912 <getpid>:
    d912:	3c 40 2a 00 	mov	#42,	r12	;#0x002a
    d916:	30 41       	ret			

0000d918 <write>:
    d918:	0a 12       	push	r10		;
    d91a:	09 12       	push	r9		;
    d91c:	08 12       	push	r8		;
    d91e:	07 12       	push	r7		;
    d920:	06 12       	push	r6		;
    d922:	05 12       	push	r5		;
    d924:	04 12       	push	r4		;
    d926:	07 4c       	mov	r12,	r7	;
    d928:	08 4d       	mov	r13,	r8	;
    d92a:	09 4e       	mov	r14,	r9	;
    d92c:	0d 43       	clr	r13		;
    d92e:	0d 9e       	cmp	r14,	r13	;
    d930:	38 34       	jge	$+114    	;abs 0xd9a2
    d932:	37 f0 ff 00 	and	#255,	r7	;#0x00ff
    d936:	b0 12 c8 c9 	call	#51656		;#0xc9c8
    d93a:	44 4c       	mov.b	r12,	r4	;
    d93c:	35 40 18 54 	mov	#21528,	r5	;#0x5418
    d940:	36 40 d8 d9 	mov	#55768,	r6	;#0xd9d8
    d944:	0a 49       	mov	r9,	r10	;
    d946:	3e 40 40 00 	mov	#64,	r14	;#0x0040
    d94a:	0e 99       	cmp	r9,	r14	;
    d94c:	01 34       	jge	$+4      	;abs 0xd950
    d94e:	0a 4e       	mov	r14,	r10	;
    d950:	4c 4a       	mov.b	r10,	r12	;
    d952:	c2 4c 02 03 	mov.b	r12,	&0x0302	;
    d956:	c2 43 03 03 	mov.b	#0,	&0x0303	;r3 As==00
    d95a:	f2 40 f3 ff 	mov.b	#65523,	&0x0304	;#0xfff3
    d95e:	04 03 
    d960:	c2 47 05 03 	mov.b	r7,	&0x0305	;
    d964:	c2 44 06 03 	mov.b	r4,	&0x0306	;
    d968:	c2 4c 07 03 	mov.b	r12,	&0x0307	;
    d96c:	c2 43 08 03 	mov.b	#0,	&0x0308	;r3 As==00
    d970:	3c 40 0d 03 	mov	#781,	r12	;#0x030d
    d974:	0d 48       	mov	r8,	r13	;
    d976:	0e 4a       	mov	r10,	r14	;
    d978:	85 12       	call	r5		;
    d97a:	86 12       	call	r6		;
    d97c:	5c 42 04 03 	mov.b	&0x0304,r12	;0x0304
    d980:	5d 42 05 03 	mov.b	&0x0305,r13	;0x0305
    d984:	09 8a       	sub	r10,	r9	;
    d986:	08 5a       	add	r10,	r8	;
    d988:	0e 43       	clr	r14		;
    d98a:	0e 99       	cmp	r9,	r14	;
    d98c:	db 3b       	jl	$-72     	;abs 0xd944
    d98e:	0d 5d       	rla	r13		;
    d990:	0d 5d       	rla	r13		;
    d992:	0d 5d       	rla	r13		;
    d994:	0d 5d       	rla	r13		;
    d996:	0d 5d       	rla	r13		;
    d998:	0d 5d       	rla	r13		;
    d99a:	0d 5d       	rla	r13		;
    d99c:	0d 5d       	rla	r13		;
    d99e:	0f 4c       	mov	r12,	r15	;
    d9a0:	0f 5d       	add	r13,	r15	;
    d9a2:	0c 4f       	mov	r15,	r12	;
    d9a4:	30 40 a4 51 	br	#0x51a4		;

0000d9a8 <_sbrk>:
    d9a8:	21 83       	decd	r1		;
    d9aa:	1d 42 00 03 	mov	&0x0300,r13	;0x0300
    d9ae:	0e 43       	clr	r14		;
    d9b0:	0e 51       	add	r1,	r14	;
    d9b2:	81 4e 00 00 	mov	r14,	0(r1)	;
    d9b6:	0c 5d       	add	r13,	r12	;
    d9b8:	01 9c       	cmp	r12,	r1	;
    d9ba:	05 28       	jnc	$+12     	;abs 0xd9c6
    d9bc:	82 4c 00 03 	mov	r12,	&0x0300	;
    d9c0:	0c 4d       	mov	r13,	r12	;
    d9c2:	21 53       	incd	r1		;
    d9c4:	30 41       	ret			
    d9c6:	1c 43       	mov	#1,	r12	;r3 As==01
    d9c8:	3d 40 24 47 	mov	#18212,	r13	;#0x4724
    d9cc:	3e 40 1a 00 	mov	#26,	r14	;#0x001a
    d9d0:	b0 12 18 d9 	call	#55576		;#0xd918
    d9d4:	b0 12 dc d9 	call	#55772		;#0xd9dc

0000d9d8 <C$$IO$$>:
    d9d8:	03 43       	nop			
    d9da:	30 41       	ret			

0000d9dc <abort>:
    d9dc:	3c 40 06 00 	mov	#6,	r12	;
    d9e0:	b0 12 44 db 	call	#56132		;#0xdb44
    d9e4:	1c 43       	mov	#1,	r12	;r3 As==01
    d9e6:	b0 12 b6 d8 	call	#55478		;#0xd8b6

0000d9ea <__errno>:
    d9ea:	1c 42 20 02 	mov	&0x0220,r12	;0x0220
    d9ee:	30 41       	ret			

0000d9f0 <_init_signal_r>:
    d9f0:	0a 12       	push	r10		;
    d9f2:	0a 4c       	mov	r12,	r10	;
    d9f4:	8c 93 22 00 	cmp	#0,	34(r12)	;r3 As==00, 0x0022
    d9f8:	03 24       	jz	$+8      	;abs 0xda00
    d9fa:	0c 43       	clr	r12		;
    d9fc:	30 40 2a da 	br	#0xda2a		;
    da00:	3d 40 40 00 	mov	#64,	r13	;#0x0040
    da04:	b0 12 30 55 	call	#21808		;#0x5530
    da08:	8a 4c 22 00 	mov	r12,	34(r10)	; 0x0022
    da0c:	0c 93       	cmp	#0,	r12	;r3 As==00
    da0e:	0c 24       	jz	$+26     	;abs 0xda28
    da10:	0c 43       	clr	r12		;
    da12:	1d 4a 22 00 	mov	34(r10),r13	;0x00022
    da16:	0d 5c       	add	r12,	r13	;
    da18:	8d 43 00 00 	mov	#0,	0(r13)	;r3 As==00
    da1c:	2c 53       	incd	r12		;
    da1e:	3c 90 40 00 	cmp	#64,	r12	;#0x0040
    da22:	f7 23       	jnz	$-16     	;abs 0xda12
    da24:	30 40 fa d9 	br	#0xd9fa		;
    da28:	3c 43       	mov	#-1,	r12	;r3 As==11
    da2a:	3a 41       	pop	r10		;
    da2c:	30 41       	ret			

0000da2e <_signal_r>:
    da2e:	0a 12       	push	r10		;
    da30:	09 12       	push	r9		;
    da32:	08 12       	push	r8		;
    da34:	3a 40 1f 00 	mov	#31,	r10	;#0x001f
    da38:	0a 9d       	cmp	r13,	r10	;
    da3a:	06 2c       	jc	$+14     	;abs 0xda48
    da3c:	bc 40 16 00 	mov	#22,	0(r12)	;#0x0016
    da40:	00 00 
    da42:	3c 43       	mov	#-1,	r12	;r3 As==11
    da44:	30 40 70 da 	br	#0xda70		;
    da48:	09 4e       	mov	r14,	r9	;
    da4a:	0a 4d       	mov	r13,	r10	;
    da4c:	08 4c       	mov	r12,	r8	;
    da4e:	8c 93 22 00 	cmp	#0,	34(r12)	;r3 As==00, 0x0022
    da52:	09 24       	jz	$+20     	;abs 0xda66
    da54:	0d 4a       	mov	r10,	r13	;
    da56:	0d 5a       	add	r10,	r13	;
    da58:	1d 58 22 00 	add	34(r8),	r13	;0x00022
    da5c:	2c 4d       	mov	@r13,	r12	;
    da5e:	8d 49 00 00 	mov	r9,	0(r13)	;
    da62:	30 40 70 da 	br	#0xda70		;
    da66:	b0 12 f0 d9 	call	#55792		;#0xd9f0
    da6a:	0c 93       	cmp	#0,	r12	;r3 As==00
    da6c:	f3 27       	jz	$-24     	;abs 0xda54
    da6e:	3c 43       	mov	#-1,	r12	;r3 As==11
    da70:	30 40 ac 51 	br	#0x51ac		;

0000da74 <_raise_r>:
    da74:	0a 12       	push	r10		;
    da76:	09 12       	push	r9		;
    da78:	3e 40 1f 00 	mov	#31,	r14	;#0x001f
    da7c:	0e 9d       	cmp	r13,	r14	;
    da7e:	06 2c       	jc	$+14     	;abs 0xda8c
    da80:	bc 40 16 00 	mov	#22,	0(r12)	;#0x0016
    da84:	00 00 
    da86:	3c 43       	mov	#-1,	r12	;r3 As==11
    da88:	30 40 dc da 	br	#0xdadc		;
    da8c:	0a 4d       	mov	r13,	r10	;
    da8e:	09 4c       	mov	r12,	r9	;
    da90:	1d 4c 22 00 	mov	34(r12),r13	;0x00022
    da94:	0d 93       	cmp	#0,	r13	;r3 As==00
    da96:	06 24       	jz	$+14     	;abs 0xdaa4
    da98:	0c 4a       	mov	r10,	r12	;
    da9a:	0c 5a       	add	r10,	r12	;
    da9c:	0c 5d       	add	r13,	r12	;
    da9e:	2d 4c       	mov	@r12,	r13	;
    daa0:	0d 93       	cmp	#0,	r13	;r3 As==00
    daa2:	0a 20       	jnz	$+22     	;abs 0xdab8
    daa4:	0c 49       	mov	r9,	r12	;
    daa6:	b0 12 9a db 	call	#56218		;#0xdb9a
    daaa:	0d 4c       	mov	r12,	r13	;
    daac:	0c 49       	mov	r9,	r12	;
    daae:	0e 4a       	mov	r10,	r14	;
    dab0:	b0 12 76 db 	call	#56182		;#0xdb76
    dab4:	30 40 dc da 	br	#0xdadc		;
    dab8:	1d 93       	cmp	#1,	r13	;r3 As==01
    daba:	0f 24       	jz	$+32     	;abs 0xdada
    dabc:	3d 93       	cmp	#-1,	r13	;r3 As==11
    dabe:	06 20       	jnz	$+14     	;abs 0xdacc
    dac0:	b9 40 16 00 	mov	#22,	0(r9)	;#0x0016
    dac4:	00 00 
    dac6:	1c 43       	mov	#1,	r12	;r3 As==01
    dac8:	30 40 dc da 	br	#0xdadc		;
    dacc:	8c 43 00 00 	mov	#0,	0(r12)	;r3 As==00
    dad0:	0c 4a       	mov	r10,	r12	;
    dad2:	8d 12       	call	r13		;
    dad4:	0c 43       	clr	r12		;
    dad6:	30 40 dc da 	br	#0xdadc		;
    dada:	0c 43       	clr	r12		;
    dadc:	30 40 ae 51 	br	#0x51ae		;

0000dae0 <__sigtramp_r>:
    dae0:	0a 12       	push	r10		;
    dae2:	09 12       	push	r9		;
    dae4:	09 4c       	mov	r12,	r9	;
    dae6:	3e 40 1f 00 	mov	#31,	r14	;#0x001f
    daea:	0e 9d       	cmp	r13,	r14	;
    daec:	03 2c       	jc	$+8      	;abs 0xdaf4
    daee:	3c 43       	mov	#-1,	r12	;r3 As==11
    daf0:	30 40 40 db 	br	#0xdb40		;
    daf4:	0a 4d       	mov	r13,	r10	;
    daf6:	8c 93 22 00 	cmp	#0,	34(r12)	;r3 As==00, 0x0022
    dafa:	09 24       	jz	$+20     	;abs 0xdb0e
    dafc:	0c 4a       	mov	r10,	r12	;
    dafe:	0c 5a       	add	r10,	r12	;
    db00:	1c 59 22 00 	add	34(r9),	r12	;0x00022
    db04:	2d 4c       	mov	@r12,	r13	;
    db06:	0d 93       	cmp	#0,	r13	;r3 As==00
    db08:	08 20       	jnz	$+18     	;abs 0xdb1a
    db0a:	30 40 30 db 	br	#0xdb30		;
    db0e:	b0 12 f0 d9 	call	#55792		;#0xd9f0
    db12:	0c 93       	cmp	#0,	r12	;r3 As==00
    db14:	f3 27       	jz	$-24     	;abs 0xdafc
    db16:	30 40 ee da 	br	#0xdaee		;
    db1a:	3d 93       	cmp	#-1,	r13	;r3 As==11
    db1c:	0c 24       	jz	$+26     	;abs 0xdb36
    db1e:	1d 93       	cmp	#1,	r13	;r3 As==01
    db20:	0d 24       	jz	$+28     	;abs 0xdb3c
    db22:	8c 43 00 00 	mov	#0,	0(r12)	;r3 As==00
    db26:	0c 4a       	mov	r10,	r12	;
    db28:	8d 12       	call	r13		;
    db2a:	0c 43       	clr	r12		;
    db2c:	30 40 40 db 	br	#0xdb40		;
    db30:	1c 43       	mov	#1,	r12	;r3 As==01
    db32:	30 40 40 db 	br	#0xdb40		;
    db36:	2c 43       	mov	#2,	r12	;r3 As==10
    db38:	30 40 40 db 	br	#0xdb40		;
    db3c:	3c 40 03 00 	mov	#3,	r12	;
    db40:	30 40 ae 51 	br	#0x51ae		;

0000db44 <raise>:
    db44:	0d 4c       	mov	r12,	r13	;
    db46:	1c 42 20 02 	mov	&0x0220,r12	;0x0220
    db4a:	b0 12 74 da 	call	#55924		;#0xda74
    db4e:	30 41       	ret			

0000db50 <signal>:
    db50:	0f 4c       	mov	r12,	r15	;
    db52:	0e 4d       	mov	r13,	r14	;
    db54:	1c 42 20 02 	mov	&0x0220,r12	;0x0220
    db58:	0d 4f       	mov	r15,	r13	;
    db5a:	b0 12 2e da 	call	#55854		;#0xda2e
    db5e:	30 41       	ret			

0000db60 <_init_signal>:
    db60:	1c 42 20 02 	mov	&0x0220,r12	;0x0220
    db64:	b0 12 f0 d9 	call	#55792		;#0xd9f0
    db68:	30 41       	ret			

0000db6a <__sigtramp>:
    db6a:	0d 4c       	mov	r12,	r13	;
    db6c:	1c 42 20 02 	mov	&0x0220,r12	;0x0220
    db70:	b0 12 e0 da 	call	#56032		;#0xdae0
    db74:	30 41       	ret			

0000db76 <_kill_r>:
    db76:	0a 12       	push	r10		;
    db78:	0a 4c       	mov	r12,	r10	;
    db7a:	82 43 b6 08 	mov	#0,	&0x08b6	;r3 As==00
    db7e:	0c 4d       	mov	r13,	r12	;
    db80:	0d 4e       	mov	r14,	r13	;
    db82:	b0 12 00 d9 	call	#55552		;#0xd900
    db86:	3c 93       	cmp	#-1,	r12	;r3 As==11
    db88:	06 20       	jnz	$+14     	;abs 0xdb96
    db8a:	1d 42 b6 08 	mov	&0x08b6,r13	;0x08b6
    db8e:	0d 93       	cmp	#0,	r13	;r3 As==00
    db90:	02 24       	jz	$+6      	;abs 0xdb96
    db92:	8a 4d 00 00 	mov	r13,	0(r10)	;
    db96:	3a 41       	pop	r10		;
    db98:	30 41       	ret			

0000db9a <_getpid_r>:
    db9a:	b0 12 12 d9 	call	#55570		;#0xd912
    db9e:	30 41       	ret			

0000dba0 <__do_global_ctors_aux>:
    dba0:	0a 12       	push	r10		;
    dba2:	1c 42 4a 47 	mov	&0x474a,r12	;0x474a
    dba6:	3c 93       	cmp	#-1,	r12	;r3 As==11
    dba8:	08 24       	jz	$+18     	;abs 0xdbba
    dbaa:	3a 40 4a 47 	mov	#18250,	r10	;#0x474a
    dbae:	8c 12       	call	r12		;
    dbb0:	3a 50 fe ff 	add	#65534,	r10	;#0xfffe
    dbb4:	2c 4a       	mov	@r10,	r12	;
    dbb6:	3c 93       	cmp	#-1,	r12	;r3 As==11
    dbb8:	fa 23       	jnz	$-10     	;abs 0xdbae
    dbba:	3a 41       	pop	r10		;
    dbbc:	30 41       	ret			

0000dbbe <call___do_global_ctors_aux>:
    dbbe:	30 41       	ret			

0000dbc0 <__msp430_init>:
    dbc0:	b0 12 40 48 	call	#18496		;#0x4840
    dbc4:	b0 12 a0 db 	call	#56224		;#0xdba0
    dbc8:	b0 12 9c 47 	call	#18332		;#0x479c
    dbcc:	b0 12 8e 47 	call	#18318		;#0x478e
    dbd0:	30 41       	ret			

0000dbd2 <__msp430_fini>:
    dbd2:	b0 12 aa 47 	call	#18346		;#0x47aa
    dbd6:	b0 12 0a 48 	call	#18442		;#0x480a
    dbda:	30 41       	ret			

0000dbdc <__msp430_fini_end>:
    dbdc:	00 00       	beq			
	...
